 nCRP-Gibbs-Sampler

 Timestamp is 5936f776 (Tue Jun  6 14:41:58 2017)

 Preferred load address is 0000000180000000

 Start         Length     Name                   Class
 0001:00000000 000003f0H .text$di                CODE
 0001:000003f0 0000f3b0H .text$mn                CODE
 0001:0000f7a0 00000020H .text$mn$00             CODE
 0001:0000f7c0 000009acH .text$x                 CODE
 0001:0001016c 0000002bH .text$yd                CODE
 0002:00000000 000005d8H .idata$5                DATA
 0002:000005d8 00000010H .00cfg                  DATA
 0002:000005e8 00000008H .CRT$XCA                DATA
 0002:000005f0 00000008H .CRT$XCL                DATA
 0002:000005f8 000001e8H .CRT$XCU                DATA
 0002:000007e0 00000008H .CRT$XCZ                DATA
 0002:000007e8 00000008H .CRT$XIA                DATA
 0002:000007f0 00000008H .CRT$XIC                DATA
 0002:000007f8 00000008H .CRT$XIZ                DATA
 0002:00000800 00000008H .CRT$XLA                DATA
 0002:00000808 00000008H .CRT$XLZ                DATA
 0002:00000810 00000008H .CRT$XPA                DATA
 0002:00000818 00000008H .CRT$XPZ                DATA
 0002:00000820 00000008H .CRT$XTA                DATA
 0002:00000828 00000008H .CRT$XTZ                DATA
 0002:00000830 00000000H .gfids$y                DATA
 0002:00000830 000017b0H .rdata                  DATA
 0002:00001fe0 00000030H .rdata$T                DATA
 0002:00002010 000007ecH .rdata$r                DATA
 0002:000027fc 000003acH .rdata$zzzdbg           DATA
 0002:00002ba8 00000008H .rtc$IAA                DATA
 0002:00002bb0 00000008H .rtc$IZZ                DATA
 0002:00002bb8 00000008H .rtc$TAA                DATA
 0002:00002bc0 00000010H .rtc$TZZ                DATA
 0002:00002bd0 00002820H .xdata                  DATA
 0002:000053f0 000001b0H .xdata$x                DATA
 0002:000055a0 00000058H .edata                  DATA
 0002:000055f8 0000012cH .idata$2                DATA
 0002:00005724 00000014H .idata$3                DATA
 0002:00005738 000005d8H .idata$4                DATA
 0002:00005d10 000019bcH .idata$6                DATA
 0003:00000000 00000040H .data                   DATA
 0003:00000040 000003c0H .data$r                 DATA
 0003:00000400 00000740H .bss                    DATA
 0004:00000000 00001980H .pdata                  DATA
 0005:00000000 00000004H .tls                    DATA
 0005:00000004 00000004H .tls$                   DATA
 0005:00000008 00000001H .tls$ZZZ                DATA

  Address         Publics by Value              Rva+Base               Lib:Object

 0000:00000000       __guard_iat_count          0000000000000000     <absolute>
 0000:00000000       __guard_iat_table          0000000000000000     <absolute>
 0000:00000000       __guard_longjmp_count      0000000000000000     <absolute>
 0000:00000000       __guard_longjmp_table      0000000000000000     <absolute>
 0000:00000000       __guard_fids_count         0000000000000000     <absolute>
 0000:00000000       ___safe_se_handler_table   0000000000000000     <absolute>
 0000:00000000       ___safe_se_handler_count   0000000000000000     <absolute>
 0000:00000000       __dynamic_value_reloc_table 0000000000000000     <absolute>
 0000:00000000       __guard_fids_table         0000000000000000     <absolute>
 0000:00000100       __guard_flags              0000000000000100     <absolute>
 0000:00000000       __ImageBase                0000000180000000     <linker-defined>
 0001:000003f0       ?get_n_cols@?$eGlue@V?$Col@N@arma@@V12@Veglue_plus@2@@arma@@QEBAIXZ 00000001800013f0 f   Gaussian.obj
 0001:000003f0       ?get_n_rows@?$eOp@V?$eOp@V?$Row@N@arma@@Veop_scalar_minus_post@2@@arma@@Veop_exp@2@@arma@@QEBAIXZ 00000001800013f0 f   GibbsSampler.obj
 0001:000003f0       ?get_n_rows@?$Proxy@V?$Op@V?$Row@N@arma@@Vop_cumsum_default@2@@arma@@@arma@@QEBAIXZ 00000001800013f0 f   GibbsSampler.obj
 0001:000003f0       ?get_n_cols@?$eGlue@V?$Col@N@arma@@V12@Veglue_minus@2@@arma@@QEBAIXZ 00000001800013f0 f   Gaussian.obj
 0001:000003f0       ?get_n_cols@?$eOp@V?$eOp@V?$Col@N@arma@@Veop_scalar_minus_pre@2@@arma@@Veop_scalar_div_post@2@@arma@@QEBAIXZ 00000001800013f0 f   Gaussian.obj
 0001:000003f0       ?get_n_rows@?$eOp@V?$Row@N@arma@@Veop_scalar_div_post@2@@arma@@QEBAIXZ 00000001800013f0 f   GibbsSampler.obj
 0001:000003f0       _get_startup_argv_mode     00000001800013f0 f   MSVCRT:argv_mode.obj
 0001:000003f0       ?get_n_cols@?$eOp@V?$Col@N@arma@@Veop_scalar_div_post@2@@arma@@QEBAIXZ 00000001800013f0 f   Gaussian.obj
 0001:000003f0       DllMain                    00000001800013f0 f   dllmain.obj
 0001:000003f0       ?get_n_cols@?$eOp@V?$Col@N@arma@@Veop_scalar_times@2@@arma@@QEBAIXZ 00000001800013f0 f   Gaussian.obj
 0001:00000400       ?pow@@YANNH@Z              0000000180001400 f i Gaussian.obj
 0001:00000410       ??0exception@std@@QEAA@QEBD@Z 0000000180001410 f i Gaussian.obj
 0001:00000460       ??0exception@std@@QEAA@QEBDH@Z 0000000180001460 f i Gaussian.obj
 0001:00000480       ??0exception@std@@QEAA@AEBV01@@Z 0000000180001480 f i Gaussian.obj
 0001:000004c0       ??1exception@std@@UEAA@XZ  00000001800014c0 f i Gaussian.obj
 0001:000004e0       ?what@exception@std@@UEBAPEBDXZ 00000001800014e0 f i Gaussian.obj
 0001:00000500       ??_Gexception@std@@UEAAPEAXI@Z 0000000180001500 f i Gaussian.obj
 0001:00000500       ??_Eexception@std@@UEAAPEAXI@Z 0000000180001500 f i * CIL library *:* CIL module *
 0001:00000540       ??0bad_alloc@std@@QEAA@XZ  0000000180001540 f i Gaussian.obj
 0001:00000570       ??_Ebad_alloc@std@@UEAAPEAXI@Z 0000000180001570 f i * CIL library *:* CIL module *
 0001:00000570       ??_Eruntime_error@std@@UEAAPEAXI@Z 0000000180001570 f i * CIL library *:* CIL module *
 0001:00000570       ??_Gbad_cast@std@@UEAAPEAXI@Z 0000000180001570 f i GibbsSampler.obj
 0001:00000570       ??_Ebad_cast@std@@UEAAPEAXI@Z 0000000180001570 f i * CIL library *:* CIL module *
 0001:00000570       ??_Gruntime_error@std@@UEAAPEAXI@Z 0000000180001570 f i Gaussian.obj
 0001:00000570       ??_Gbad_alloc@std@@UEAAPEAXI@Z 0000000180001570 f i Gaussian.obj
 0001:000005b0       ??1bad_alloc@std@@UEAA@XZ  00000001800015b0 f i Gaussian.obj
 0001:000005b0       ??1bad_cast@std@@UEAA@XZ   00000001800015b0 f i GibbsSampler.obj
 0001:000005b0       ??1runtime_error@std@@UEAA@XZ 00000001800015b0 f i Gaussian.obj
 0001:000005c0       ??2@YAPEAX_KPEAX@Z         00000001800015c0 f i Gaussian.obj
 0001:000005d0       ?length@?$char_traits@D@std@@SA_KQEBD@Z 00000001800015d0 f i Gaussian.obj
 0001:000005e0       ?copy@?$char_traits@D@std@@SAPEADQEADQEBD_K@Z 00000001800015e0 f i Gaussian.obj
 0001:00000600       ?move@?$char_traits@D@std@@SAPEADQEADQEBD_K@Z 0000000180001600 f i Gaussian.obj
 0001:00000610       ?assign@?$char_traits@D@std@@SAXAEADAEBD@Z 0000000180001610 f i Gaussian.obj
 0001:00000620       ?eq@?$char_traits@D@std@@SA_NAEBD0@Z 0000000180001620 f i Gaussian.obj
 0001:00000630       ?to_int_type@?$char_traits@D@std@@SAHAEBD@Z 0000000180001630 f i Gaussian.obj
 0001:00000630       ?to_char_type@?$char_traits@D@std@@SADAEBH@Z 0000000180001630 f i Gaussian.obj
 0001:00000640       ?eq_int_type@?$char_traits@D@std@@SA_NAEBH0@Z 0000000180001640 f i Gaussian.obj
 0001:00000650       ?not_eof@?$char_traits@D@std@@SAHAEBH@Z 0000000180001650 f i Gaussian.obj
 0001:00000670       ?eof@?$char_traits@D@std@@SAHXZ 0000000180001670 f i Gaussian.obj
 0001:00000680       ?_Allocate@std@@YAPEAX_K0_N@Z 0000000180001680 f i Gaussian.obj
 0001:000006e0       ?_Deallocate@std@@YAXPEAX_K1@Z 00000001800016e0 f i Gaussian.obj
 0001:00000740       ??0runtime_error@std@@QEAA@AEBV?$basic_string@DU?$char_traits@D@std@@V?$allocator@D@2@@1@@Z 0000000180001740 f i Gaussian.obj
 0001:00000770       ??0runtime_error@std@@QEAA@AEBV01@@Z 0000000180001770 f i Gaussian.obj
 0001:000007a0       ??0gmm_dist_mode@arma@@QEAA@I@Z 00000001800017a0 f i Gaussian.obj
 0001:000007a0       ??0opts@solve_opts@arma@@QEAA@I@Z 00000001800017a0 f i Gaussian.obj
 0001:000007a0       ??0gmm_seed_mode@arma@@QEAA@I@Z 00000001800017a0 f i Gaussian.obj
 0001:000007b0       ??0opts_none@solve_opts@arma@@QEAA@XZ 00000001800017b0 f i Gaussian.obj
 0001:000007d0       ??0gmm_seed_keep_existing@arma@@QEAA@XZ 00000001800017d0 f i Gaussian.obj
 0001:000007d0       ??0gmm_dist_eucl@arma@@QEAA@XZ 00000001800017d0 f i Gaussian.obj
 0001:000007d0       ??0opts_fast@solve_opts@arma@@QEAA@XZ 00000001800017d0 f i Gaussian.obj
 0001:000007f0       ??0gmm_seed_static_subset@arma@@QEAA@XZ 00000001800017f0 f i Gaussian.obj
 0001:000007f0       ??0gmm_dist_maha@arma@@QEAA@XZ 00000001800017f0 f i Gaussian.obj
 0001:000007f0       ??0opts_equilibrate@solve_opts@arma@@QEAA@XZ 00000001800017f0 f i Gaussian.obj
 0001:00000810       ??0opts_no_approx@solve_opts@arma@@QEAA@XZ 0000000180001810 f i Gaussian.obj
 0001:00000810       ??0gmm_seed_random_subset@arma@@QEAA@XZ 0000000180001810 f i Gaussian.obj
 0001:00000830       ??0opts_triu@solve_opts@arma@@QEAA@XZ 0000000180001830 f i Gaussian.obj
 0001:00000850       ??0opts_tril@solve_opts@arma@@QEAA@XZ 0000000180001850 f i Gaussian.obj
 0001:00000870       ??0gmm_seed_static_spread@arma@@QEAA@XZ 0000000180001870 f i Gaussian.obj
 0001:00000870       ??0gmm_dist_prob@arma@@QEAA@XZ 0000000180001870 f i Gaussian.obj
 0001:00000890       ??0gmm_seed_random_spread@arma@@QEAA@XZ 0000000180001890 f i Gaussian.obj
 0001:000008b0       ?get_stream_err2@arma@@YAAEAV?$basic_ostream@DU?$char_traits@D@std@@@std@@XZ 00000001800018b0 f i Gaussian.obj
 0001:000008c0       ??$arma_isfinite@N@arma@@YA_NN@Z 00000001800018c0 f i Gaussian.obj
 0001:00000900       ??$arma_isinf@N@arma@@YA_NN@Z 0000000180001900 f i Gaussian.obj
 0001:00000940       ??0arma_ostream_state@arma@@QEAA@AEBV?$basic_ostream@DU?$char_traits@D@std@@@std@@@Z 0000000180001940 f i Gaussian.obj
 0001:000009b0       ?restore@arma_ostream_state@arma@@QEBAXAEAV?$basic_ostream@DU?$char_traits@D@std@@@std@@@Z 00000001800019b0 f i Gaussian.obj
 0001:00000a20       ??1?$Proxy@V?$Op@V?$Row@N@arma@@Vop_cumsum_default@2@@arma@@@arma@@QEAA@XZ 0000000180001a20 f i GibbsSampler.obj
 0001:00000a20       ??1?$Proxy@V?$mtOp@IV?$Op@V?$Row@N@arma@@Vop_cumsum_default@2@@arma@@Vop_rel_gt_pre@2@@arma@@@arma@@QEAA@XZ 0000000180001a20 f i GibbsSampler.obj
 0001:00000a20       ??1?$Col@N@arma@@QEAA@XZ   0000000180001a20 f i Gaussian.obj
 0001:00000a20       ??1?$Proxy@V?$Glue@V?$Op@V?$Mat@N@arma@@Vop_htrans@2@@arma@@V?$Mat@N@2@Vglue_times@2@@arma@@@arma@@QEAA@XZ 0000000180001a20 f i Gaussian.obj
 0001:00000a20       ??1?$Row@N@arma@@QEAA@XZ   0000000180001a20 f i GibbsSampler.obj
 0001:00000a20       ??1?$Proxy@V?$Glue@V?$eOp@V?$Col@N@arma@@Veop_scalar_times@2@@arma@@V?$Op@V?$Col@N@arma@@Vop_htrans@2@@2@Vglue_times@2@@arma@@@arma@@QEAA@XZ 0000000180001a20 f i Gaussian.obj
 0001:00000a30       ?cholupdate@@YA?AV?$Mat@N@arma@@V12@V?$Col@N@2@@Z 0000000180001a30 f   Gaussian.obj
 0001:00000be0       ?choldowndate@@YA?AV?$Mat@N@arma@@V12@V?$Col@N@2@@Z 0000000180001be0 f   Gaussian.obj
 0001:00000d90       ?ZZ@@YANNNNNV?$Mat@N@arma@@V?$Col@N@2@@Z 0000000180001d90 f   Gaussian.obj
 0001:00001030       ??0Gaussian@@QEAA@XZ       0000000180002030 f   Gaussian.obj
 0001:00001070       ??1Gaussian@@QEAA@XZ       0000000180002070 f   Gaussian.obj
 0001:000010a0       ?init@Gaussian@@QEAAXNNV?$Mat@N@arma@@NV?$Col@N@3@@Z 00000001800020a0 f   Gaussian.obj
 0001:00001280       ?getMu@Gaussian@@QEAA?AV?$Col@N@arma@@XZ 0000000180002280 f   Gaussian.obj
 0001:000012d0       ?getSigma@Gaussian@@QEAA?AV?$Mat@N@arma@@XZ 00000001800022d0 f   Gaussian.obj
 0001:00001420       ?additem@Gaussian@@QEAAXV?$Col@N@arma@@@Z 0000000180002420 f   Gaussian.obj
 0001:00001530       ?delitem@Gaussian@@QEAAXV?$Col@N@arma@@@Z 0000000180002530 f   Gaussian.obj
 0001:00001640       ?logpredictive@Gaussian@@QEAANV?$Col@N@arma@@@Z 0000000180002640 f   Gaussian.obj
 0001:000017d0       ??_D?$basic_ostringstream@DU?$char_traits@D@std@@V?$allocator@D@2@@std@@QEAAXXZ 00000001800027d0 f i Gaussian.obj
 0001:00001800       ?get_ref@?$Base@NV?$eOp@V?$eOp@V?$Row@N@arma@@Veop_scalar_minus_post@2@@arma@@Veop_exp@2@@arma@@@arma@@QEBAAEBV?$eOp@V?$eOp@V?$Row@N@arma@@Veop_scalar_minus_post@2@@arma@@Veop_exp@2@@2@XZ 0000000180002800 f i GibbsSampler.obj
 0001:00001800       ?get_ref@?$Base@NV?$eOp@V?$Col@N@arma@@Veop_scalar_div_post@2@@arma@@@arma@@QEBAAEBV?$eOp@V?$Col@N@arma@@Veop_scalar_div_post@2@@2@XZ 0000000180002800 f i Gaussian.obj
 0001:00001800       ?get_ref@?$Base@NV?$eGlue@V?$eOp@V?$Mat@N@arma@@Veop_scalar_times@2@@arma@@V?$Glue@V?$eOp@V?$Col@N@arma@@Veop_scalar_times@2@@arma@@V?$Op@V?$Col@N@arma@@Vop_htrans@2@@2@Vglue_times@2@@2@Veglue_plus@2@@arma@@@arma@@QEBAAEBV?$eGlue@V?$eOp@V?$Mat@N@arma@@Veop_scalar_times@2@@arma@@V?$Glue@V?$eOp@V?$Col@N@arma@@Veop_scalar_times@2@@arma@@V?$Op@V?$Col@N@arma@@Vop_htrans@2@@2@Vglue_times@2@@2@Veglue_plus@2@@2@XZ 0000000180002800 f i Gaussian.obj
 0001:00001800       ?get_ref@?$Base@NV?$eGlue@V?$Col@N@arma@@V12@Veglue_plus@2@@arma@@@arma@@QEBAAEBV?$eGlue@V?$Col@N@arma@@V12@Veglue_plus@2@@2@XZ 0000000180002800 f i Gaussian.obj
 0001:00001800       ??$forward@AEAPEAD@std@@YAAEAPEADAEAPEAD@Z 0000000180002800 f i Gaussian.obj
 0001:00001800       ??0?$fill_class@Ufill_zeros@fill@arma@@@fill@arma@@QEAA@XZ 0000000180002800 f i Gaussian.obj
 0001:00001800       ?get_ref@?$Base@NV?$subview@N@arma@@@arma@@QEBAAEBV?$subview@N@2@XZ 0000000180002800 f i GibbsSampler.obj
 0001:00001800       ?get_ref@?$Base@NV?$Gen@V?$Col@N@arma@@Vgen_randu@2@@arma@@@arma@@QEBAAEBV?$Gen@V?$Col@N@arma@@Vgen_randu@2@@2@XZ 0000000180002800 f i GibbsSampler.obj
 0001:00001800       ?get_ref@?$Base@NV?$Mat@N@arma@@@arma@@QEBAAEBV?$Mat@N@2@XZ 0000000180002800 f i Gaussian.obj
 0001:00001800       ??$rw@PEBV?$Mat@N@arma@@@access@arma@@SAAEAPEBV?$Mat@N@1@AEBQEBV21@@Z 0000000180002800 f i nCRP-Gibbs-Sampler.obj
 0001:00001800       ??0?$fill_class@Ufill_ones@fill@arma@@@fill@arma@@QEAA@XZ 0000000180002800 f i Gaussian.obj
 0001:00001800       ?get_ref@?$Base@NV?$eGlue@V?$Col@N@arma@@V12@Veglue_minus@2@@arma@@@arma@@QEBAAEBV?$eGlue@V?$Col@N@arma@@V12@Veglue_minus@2@@2@XZ 0000000180002800 f i Gaussian.obj
 0001:00001800       ?get_ref@?$Base@NV?$eOp@V?$eOp@V?$Col@N@arma@@Veop_scalar_minus_pre@2@@arma@@Veop_scalar_div_post@2@@arma@@@arma@@QEBAAEBV?$eOp@V?$eOp@V?$Col@N@arma@@Veop_scalar_minus_pre@2@@arma@@Veop_scalar_div_post@2@@2@XZ 0000000180002800 f i Gaussian.obj
 0001:00001800       ?get_aligned_ea@?$Proxy@V?$Glue@V?$Op@V?$Mat@N@arma@@Vop_htrans@2@@arma@@V?$Mat@N@2@Vglue_times@2@@arma@@@arma@@QEBAAEBV?$Mat@N@2@XZ 0000000180002800 f i Gaussian.obj
 0001:00001800       ??0?$fill_class@Ufill_eye@fill@arma@@@fill@arma@@QEAA@XZ 0000000180002800 f i Gaussian.obj
 0001:00001800       ??$_Unfancy@D@std@@YAPEADPEAD@Z 0000000180002800 f i Gaussian.obj
 0001:00001800       ??$rw@PEBI@access@arma@@SAAEAPEBIAEBQEBI@Z 0000000180002800 f i GibbsSampler.obj
 0001:00001800       ??0?$fill_class@Ufill_randn@fill@arma@@@fill@arma@@QEAA@XZ 0000000180002800 f i Gaussian.obj
 0001:00001800       ??$addressof@D@std@@YAPEADAEAD@Z 0000000180002800 f i Gaussian.obj
 0001:00001800       ??0?$fill_class@Ufill_randu@fill@arma@@@fill@arma@@QEAA@XZ 0000000180002800 f i Gaussian.obj
 0001:00001800       ??$rw@N@access@arma@@SAAEANAEBN@Z 0000000180002800 f i Gaussian.obj
 0001:00001800       ??$rw@G@access@arma@@SAAEAGAEBG@Z 0000000180002800 f i Gaussian.obj
 0001:00001800       ??$rw@PEAPEBV?$Mat@N@arma@@@access@arma@@SAAEAPEAPEBV?$Mat@N@1@AEBQEAPEBV21@@Z 0000000180002800 f i nCRP-Gibbs-Sampler.obj
 0001:00001800       ??$addressof@$$CBV?$basic_string@DU?$char_traits@D@std@@V?$allocator@D@2@@std@@@std@@YAPEBV?$basic_string@DU?$char_traits@D@std@@V?$allocator@D@2@@0@AEBV10@@Z 0000000180002800 f i Gaussian.obj
 0001:00001800       ?_Get_second@?$_Compressed_pair@U?$_Wrap_alloc@V?$allocator@D@std@@@std@@V?$_String_val@U?$_Simple_types@D@std@@@2@$00@std@@QEBAAEBV?$_String_val@U?$_Simple_types@D@std@@@2@XZ 0000000180002800 f i Gaussian.obj
 0001:00001800       ??$rw@PEBN@access@arma@@SAAEAPEBNAEBQEBN@Z 0000000180002800 f i Gaussian.obj
 0001:00001800       ??$rw@I@access@arma@@SAAEAIAEBI@Z 0000000180002800 f i Gaussian.obj
 0001:00001800       ??$addressof@V?$_String_val@U?$_Simple_types@D@std@@@std@@@std@@YAPEAV?$_String_val@U?$_Simple_types@D@std@@@0@AEAV10@@Z 0000000180002800 f i Gaussian.obj
 0001:00001800       ?get_ref@?$Base@NV?$eOp@V?$Row@N@arma@@Veop_scalar_div_post@2@@arma@@@arma@@QEBAAEBV?$eOp@V?$Row@N@arma@@Veop_scalar_div_post@2@@2@XZ 0000000180002800 f i GibbsSampler.obj
 0001:00001800       ?_Get_second@?$_Compressed_pair@U?$_Wrap_alloc@V?$allocator@D@std@@@std@@V?$_String_val@U?$_Simple_types@D@std@@@2@$00@std@@QEAAAEAV?$_String_val@U?$_Simple_types@D@std@@@2@XZ 0000000180002800 f i Gaussian.obj
 0001:00001800       ??$addressof@PEAD@std@@YAPEAPEADAEAPEAD@Z 0000000180002800 f i Gaussian.obj
 0001:00001800       ?get_ref@?$Base@NV?$eOp@V?$Col@N@arma@@Veop_scalar_times@2@@arma@@@arma@@QEBAAEBV?$eOp@V?$Col@N@arma@@Veop_scalar_times@2@@2@XZ 0000000180002800 f i Gaussian.obj
 0001:00001800       ??$move@AEAV?$basic_string@DU?$char_traits@D@std@@V?$allocator@D@2@@std@@@std@@YA$$QEAV?$basic_string@DU?$char_traits@D@std@@V?$allocator@D@2@@0@AEAV10@@Z 0000000180002800 f i Gaussian.obj
 0001:00001800       ??0?$fill_class@Ufill_none@fill@arma@@@fill@arma@@QEAA@XZ 0000000180002800 f i Gaussian.obj
 0001:00001800       ?get_aligned_ea@?$Proxy@V?$Glue@V?$eOp@V?$Col@N@arma@@Veop_scalar_times@2@@arma@@V?$Op@V?$Col@N@arma@@Vop_htrans@2@@2@Vglue_times@2@@arma@@@arma@@QEBAAEBV?$Mat@N@2@XZ 0000000180002800 f i Gaussian.obj
 0001:00001810       ?size@?$basic_string@DU?$char_traits@D@std@@V?$allocator@D@2@@std@@QEBA_KXZ 0000000180002810 f i Gaussian.obj
 0001:00001830       ?c_str@?$basic_string@DU?$char_traits@D@std@@V?$allocator@D@2@@std@@QEBAPEBDXZ 0000000180002830 f i Gaussian.obj
 0001:00001840       ??1?$basic_string@DU?$char_traits@D@std@@V?$allocator@D@2@@std@@QEAA@XZ 0000000180002840 f i Gaussian.obj
 0001:00001850       ??0?$basic_string@DU?$char_traits@D@std@@V?$allocator@D@2@@std@@QEAA@$$QEAV01@@Z 0000000180002850 f i Gaussian.obj
 0001:00001880       ??0?$basic_string@DU?$char_traits@D@std@@V?$allocator@D@2@@std@@QEAA@QEBD@Z 0000000180002880 f i Gaussian.obj
 0001:000018b0       ??0?$basic_string@DU?$char_traits@D@std@@V?$allocator@D@2@@std@@QEAA@QEBD_K@Z 00000001800028b0 f i Gaussian.obj
 0001:000018e0       ??0?$basic_string@DU?$char_traits@D@std@@V?$allocator@D@2@@std@@QEAA@XZ 00000001800028e0 f i Gaussian.obj
 0001:00001900       ?str@?$basic_ostringstream@DU?$char_traits@D@std@@V?$allocator@D@2@@std@@QEBA?AV?$basic_string@DU?$char_traits@D@std@@V?$allocator@D@2@@2@XZ 0000000180002900 f i Gaussian.obj
 0001:00001930       ??1?$basic_ostringstream@DU?$char_traits@D@std@@V?$allocator@D@2@@std@@UEAA@XZ 0000000180002930 f i Gaussian.obj
 0001:00001990       ??0?$basic_ostringstream@DU?$char_traits@D@std@@V?$allocator@D@2@@std@@QEAA@H@Z 0000000180002990 f i Gaussian.obj
 0001:00001a30       ?seekpos@?$basic_stringbuf@DU?$char_traits@D@std@@V?$allocator@D@2@@std@@MEAA?AV?$fpos@U_Mbstatet@@@2@V32@H@Z 0000000180002a30 f i Gaussian.obj
 0001:00001bd0       ?seekoff@?$basic_stringbuf@DU?$char_traits@D@std@@V?$allocator@D@2@@std@@MEAA?AV?$fpos@U_Mbstatet@@@2@_JHH@Z 0000000180002bd0 f i Gaussian.obj
 0001:00001e00       ?underflow@?$basic_stringbuf@DU?$char_traits@D@std@@V?$allocator@D@2@@std@@MEAAHXZ 0000000180002e00 f i Gaussian.obj
 0001:00001f00       ?pbackfail@?$basic_stringbuf@DU?$char_traits@D@std@@V?$allocator@D@2@@std@@MEAAHH@Z 0000000180002f00 f i Gaussian.obj
 0001:00001ff0       ?overflow@?$basic_stringbuf@DU?$char_traits@D@std@@V?$allocator@D@2@@std@@MEAAHH@Z 0000000180002ff0 f i Gaussian.obj
 0001:000022c0       ??1?$basic_stringbuf@DU?$char_traits@D@std@@V?$allocator@D@2@@std@@UEAA@XZ 00000001800032c0 f i Gaussian.obj
 0001:00002300       ??B?$fpos@U_Mbstatet@@@std@@QEBA_JXZ 0000000180003300 f i Gaussian.obj
 0001:00002310       ??_G?$basic_ostringstream@DU?$char_traits@D@std@@V?$allocator@D@2@@std@@UEAAPEAXI@Z 0000000180003310 f i Gaussian.obj
 0001:00002310       ??_E?$basic_ostringstream@DU?$char_traits@D@std@@V?$allocator@D@2@@std@@UEAAPEAXI@Z 0000000180003310 f i * CIL library *:* CIL module *
 0001:00002350       ??_G?$basic_stringbuf@DU?$char_traits@D@std@@V?$allocator@D@2@@std@@UEAAPEAXI@Z 0000000180003350 f i Gaussian.obj
 0001:00002350       ??_E?$basic_stringbuf@DU?$char_traits@D@std@@V?$allocator@D@2@@std@@UEAAPEAXI@Z 0000000180003350 f i * CIL library *:* CIL module *
 0001:00002390       ?pointer_to@?$pointer_traits@PEAD@std@@SAPEADAEAD@Z 0000000180003390 f i Gaussian.obj
 0001:00002390       ?_Get_data@?$_String_alloc@U?$_String_base_types@DV?$allocator@D@std@@@std@@@std@@QEAAAEAV?$_String_val@U?$_Simple_types@D@std@@@2@XZ 0000000180003390 f i Gaussian.obj
 0001:00002390       ?_Get_data@?$_String_alloc@U?$_String_base_types@DV?$allocator@D@std@@@std@@@std@@QEBAAEBV?$_String_val@U?$_Simple_types@D@std@@@2@XZ 0000000180003390 f i Gaussian.obj
 0001:000023a0       ??Bsentry@?$basic_ostream@DU?$char_traits@D@std@@@std@@QEBA_NXZ 00000001800033a0 f i Gaussian.obj
 0001:000023b0       ??1sentry@?$basic_ostream@DU?$char_traits@D@std@@@std@@QEAA@XZ 00000001800033b0 f i Gaussian.obj
 0001:000023f0       ??0sentry@?$basic_ostream@DU?$char_traits@D@std@@@std@@QEAA@AEAV12@@Z 00000001800033f0 f i Gaussian.obj
 0001:00002490       ?_Mysize@?$_String_alloc@U?$_String_base_types@DV?$allocator@D@std@@@std@@@std@@QEAAAEA_KXZ 0000000180003490 f i Gaussian.obj
 0001:00002490       ?_Mysize@?$_String_alloc@U?$_String_base_types@DV?$allocator@D@std@@@std@@@std@@QEBAAEB_KXZ 0000000180003490 f i Gaussian.obj
 0001:000024b0       ??$?0U?$_Wrap_alloc@V?$allocator@D@std@@@std@@X@?$_String_alloc@U?$_String_base_types@DV?$allocator@D@std@@@std@@@std@@QEAA@$$QEAU?$_Wrap_alloc@V?$allocator@D@std@@@1@@Z 00000001800034b0 f i Gaussian.obj
 0001:000024b0       ??0?$_String_alloc@U?$_String_base_types@DV?$allocator@D@std@@@std@@@std@@QEAA@XZ 00000001800034b0 f i Gaussian.obj
 0001:000024d0       ?_Myptr@?$_String_alloc@U?$_String_base_types@DV?$allocator@D@std@@@std@@@std@@QEBAPEBDXZ 00000001800034d0 f i Gaussian.obj
 0001:000024d0       ?_Myptr@?$_String_alloc@U?$_String_base_types@DV?$allocator@D@std@@@std@@@std@@QEAAPEADXZ 00000001800034d0 f i Gaussian.obj
 0001:000024f0       ?_Tidy_deallocate@?$basic_string@DU?$char_traits@D@std@@V?$allocator@D@2@@std@@QEAAXXZ 00000001800034f0 f i Gaussian.obj
 0001:00002550       ?_Tidy_init@?$basic_string@DU?$char_traits@D@std@@V?$allocator@D@2@@std@@QEAAXXZ 0000000180003550 f i Gaussian.obj
 0001:00002580       ?_Eos@?$basic_string@DU?$char_traits@D@std@@V?$allocator@D@2@@std@@QEAAX_K@Z 0000000180003580 f i Gaussian.obj
 0001:000025b0       ?erase@?$basic_string@DU?$char_traits@D@std@@V?$allocator@D@2@@std@@QEAAAEAV12@_K0@Z 00000001800035b0 f i Gaussian.obj
 0001:00002620       ?assign@?$basic_string@DU?$char_traits@D@std@@V?$allocator@D@2@@std@@QEAAAEAV12@QEBD@Z 0000000180003620 f i Gaussian.obj
 0001:00002640       ?assign@?$basic_string@DU?$char_traits@D@std@@V?$allocator@D@2@@std@@QEAAAEAV12@QEBD_K@Z 0000000180003640 f i Gaussian.obj
 0001:000026d0       ?_Assign_rv_contents_with_alloc_always_equal@?$basic_string@DU?$char_traits@D@std@@V?$allocator@D@2@@std@@QEAAX$$QEAV12@U?$integral_constant@_N$00@2@@Z 00000001800036d0 f i Gaussian.obj
 0001:00002720       ?_Tidy@?$basic_stringbuf@DU?$char_traits@D@std@@V?$allocator@D@2@@std@@IEAAXXZ 0000000180003720 f i Gaussian.obj
 0001:000027c0       ?str@?$basic_stringbuf@DU?$char_traits@D@std@@V?$allocator@D@2@@std@@QEBA?AV?$basic_string@DU?$char_traits@D@std@@V?$allocator@D@2@@2@XZ 00000001800037c0 f i Gaussian.obj
 0001:000028f0       ??0?$basic_stringbuf@DU?$char_traits@D@std@@V?$allocator@D@2@@std@@QEAA@H@Z 00000001800038f0 f i Gaussian.obj
 0001:00002940       ?allocate@?$allocator@D@std@@QEAAPEAD_K@Z 0000000180003940 f i Gaussian.obj
 0001:00002950       ?deallocate@?$allocator@D@std@@QEAAXPEAD_K@Z 0000000180003950 f i Gaussian.obj
 0001:00002960       ??0?$fpos@U_Mbstatet@@@std@@QEAA@_J@Z 0000000180003960 f i Gaussian.obj
 0001:00002980       ??1_Sentry_base@?$basic_ostream@DU?$char_traits@D@std@@@std@@QEAA@XZ 0000000180003980 f i Gaussian.obj
 0001:000029d0       ??0_Sentry_base@?$basic_ostream@DU?$char_traits@D@std@@@std@@QEAA@AEAV12@@Z 00000001800039d0 f i Gaussian.obj
 0001:00002a20       ?_Large_string_engaged@?$_String_val@U?$_Simple_types@D@std@@@std@@QEBA_NXZ 0000000180003a20 f i Gaussian.obj
 0001:00002a30       ?_Myptr@?$_String_val@U?$_Simple_types@D@std@@@std@@QEBAPEBDXZ 0000000180003a30 f i Gaussian.obj
 0001:00002a30       ?_Myptr@?$_String_val@U?$_Simple_types@D@std@@@std@@QEAAPEADXZ 0000000180003a30 f i Gaussian.obj
 0001:00002a60       ?deallocate@?$_Wrap_alloc@V?$allocator@D@std@@@std@@QEAAXPEAD_K@Z 0000000180003a60 f i Gaussian.obj
 0001:00002a70       ?_Check_offset@?$basic_string@DU?$char_traits@D@std@@V?$allocator@D@2@@std@@QEBAX_K@Z 0000000180003a70 f i Gaussian.obj
 0001:00002a90       ?_Xlen@?$basic_string@DU?$char_traits@D@std@@V?$allocator@D@2@@std@@SAXXZ 0000000180003a90 f i Gaussian.obj
 0001:00002ab0       ?_Inside@?$basic_string@DU?$char_traits@D@std@@V?$allocator@D@2@@std@@QEBA_NQEBD@Z 0000000180003ab0 f i Gaussian.obj
 0001:00002ae0       ?_Grow@?$basic_string@DU?$char_traits@D@std@@V?$allocator@D@2@@std@@QEAA_N_K@Z 0000000180003ae0 f i Gaussian.obj
 0001:00002b10       ?_Clamp_suffix_size@?$basic_string@DU?$char_traits@D@std@@V?$allocator@D@2@@std@@QEBA_K_K0@Z 0000000180003b10 f i Gaussian.obj
 0001:00002b40       ?assign@?$basic_string@DU?$char_traits@D@std@@V?$allocator@D@2@@std@@QEAAAEAV12@AEBV12@_K_K@Z 0000000180003b40 f i Gaussian.obj
 0001:00002bf0       ?_Getstate@?$basic_stringbuf@DU?$char_traits@D@std@@V?$allocator@D@2@@std@@AEAAHH@Z 0000000180003bf0 f i Gaussian.obj
 0001:00002c30       ?_Init@?$basic_stringbuf@DU?$char_traits@D@std@@V?$allocator@D@2@@std@@IEAAXPEBD_KH@Z 0000000180003c30 f i Gaussian.obj
 0001:00002c40       ?_Myres@?$_String_alloc@U?$_String_base_types@DV?$allocator@D@std@@@std@@@std@@QEAAAEA_KXZ 0000000180003c40 f i Gaussian.obj
 0001:00002c60       ?_Xran@?$basic_string@DU?$char_traits@D@std@@V?$allocator@D@2@@std@@SAXXZ 0000000180003c60 f i Gaussian.obj
 0001:00002c80       ?_Copy@?$basic_string@DU?$char_traits@D@std@@V?$allocator@D@2@@std@@QEAAX_K@Z 0000000180003c80 f i Gaussian.obj
 0001:00002da0       ?erase@?$basic_string@DU?$char_traits@D@std@@V?$allocator@D@2@@std@@QEAAAEAV12@_K@Z 0000000180003da0 f i Gaussian.obj
 0001:00002dd0       ?allocate@?$_Wrap_alloc@V?$allocator@D@std@@@std@@QEAAPEAD_K@Z 0000000180003dd0 f i Gaussian.obj
 0001:00002de0       ?max_size@?$basic_string@DU?$char_traits@D@std@@V?$allocator@D@2@@std@@QEBA_KXZ 0000000180003de0 f i Gaussian.obj
 0001:00002e10       ?max_size@?$_Wrap_alloc@V?$allocator@D@std@@@std@@QEBA_KU_Nil@2@@Z 0000000180003e10 f i Gaussian.obj
 0001:00002e20       ?max_size@?$allocator_traits@V?$allocator@D@std@@@std@@SA_KAEBV?$allocator@D@2@@Z 0000000180003e20 f i Gaussian.obj
 0001:00002e30       ?max_size@?$allocator@D@std@@QEBA_KXZ 0000000180003e30 f i Gaussian.obj
 0001:00002e40       ??1?$Mat@I@arma@@QEAA@XZ   0000000180003e40 f i GibbsSampler.obj
 0001:00002e40       ??1?$Mat@N@arma@@QEAA@XZ   0000000180003e40 f i Gaussian.obj
 0001:00002e80       ??0?$Mat@N@arma@@QEAA@AEBV01@@Z 0000000180003e80 f i Gaussian.obj
 0001:00002ee0       ??0?$Mat@N@arma@@QEAA@XZ   0000000180003ee0 f i Gaussian.obj
 0001:00002f00       ??4?$Mat@N@arma@@QEAAAEBV01@AEBV01@@Z 0000000180003f00 f i Gaussian.obj
 0001:00002f50       ?at@?$Mat@N@arma@@QEAAAEANII@Z 0000000180003f50 f i Gaussian.obj
 0001:00002f50       ??R?$Mat@N@arma@@QEAAAEANII@Z 0000000180003f50 f i Gaussian.obj
 0001:00002f70       ??R?$Mat@N@arma@@QEAAAEANI@Z 0000000180003f70 f i Gaussian.obj
 0001:00002f80       ?get_ea@?$Proxy@V?$Glue@V?$eOp@V?$Col@N@arma@@Veop_scalar_times@2@@arma@@V?$Op@V?$Col@N@arma@@Vop_htrans@2@@2@Vglue_times@2@@arma@@@arma@@QEBAPEBNXZ 0000000180003f80 f i Gaussian.obj
 0001:00002f80       ?get_ea@?$Proxy@V?$Glue@V?$Op@V?$Mat@N@arma@@Vop_htrans@2@@arma@@V?$Mat@N@2@Vglue_times@2@@arma@@@arma@@QEBAPEBNXZ 0000000180003f80 f i Gaussian.obj
 0001:00002f80       ?begin@?$Mat@N@arma@@QEAAPEANXZ 0000000180003f80 f i Gaussian.obj
 0001:00002f80       ?get_ea@?$Proxy@V?$Op@V?$Row@N@arma@@Vop_cumsum_default@2@@arma@@@arma@@QEBAPEBNXZ 0000000180003f80 f i GibbsSampler.obj
 0001:00002f90       ?end@?$Mat@N@arma@@QEAAPEANXZ 0000000180003f90 f i Gaussian.obj
 0001:00002fb0       ??0?$Col@N@arma@@QEAA@AEBV01@@Z 0000000180003fb0 f i Gaussian.obj
 0001:00003010       ??0?$Col@N@arma@@QEAA@XZ   0000000180004010 f i Gaussian.obj
 0001:00003040       ?t@?$Col@N@arma@@QEBA?BV?$Op@V?$Col@N@arma@@Vop_htrans@2@@2@XZ 0000000180004040 f i Gaussian.obj
 0001:00003070       ??$min@I@std@@YAAEBIAEBI0@Z 0000000180004070 f i Gaussian.obj
 0001:00003080       ??$?6U?$char_traits@D@std@@@std@@YAAEAV?$basic_ostream@DU?$char_traits@D@std@@@0@AEAV10@PEBD@Z 0000000180004080 f i Gaussian.obj
 0001:000032a0       ??$?6U?$char_traits@D@std@@@std@@YAAEAV?$basic_ostream@DU?$char_traits@D@std@@@0@AEAV10@D@Z 00000001800042a0 f i Gaussian.obj
 0001:000034d0       ?t@?$Base_trans_default@V?$Mat@N@arma@@@arma@@QEBA?BV?$Op@V?$Mat@N@arma@@Vop_htrans@2@@2@XZ 00000001800044d0 f i Gaussian.obj
 0001:00003500       ??1wall_clock@arma@@QEAA@XZ 0000000180004500 f i GibbsSampler.obj
 0001:00003500       ??1?$Op@V?$Row@N@arma@@Vop_cumsum_default@2@@arma@@QEAA@XZ 0000000180004500 f i GibbsSampler.obj
 0001:00003500       ??1?$Gen@V?$Col@N@arma@@Vgen_randu@2@@arma@@QEAA@XZ 0000000180004500 f i GibbsSampler.obj
 0001:00003500       ??1?$eOp@V?$Col@N@arma@@Veop_scalar_minus_pre@2@@arma@@QEAA@XZ 0000000180004500 f i Gaussian.obj
 0001:00003500       ??1?$eOp@V?$Col@N@arma@@Veop_scalar_times@2@@arma@@QEAA@XZ 0000000180004500 f i Gaussian.obj
 0001:00003500       ??1?$mtOp@IV?$Op@V?$Row@N@arma@@Vop_cumsum_default@2@@arma@@Vop_rel_gt_pre@2@@arma@@QEAA@XZ 0000000180004500 f i GibbsSampler.obj
 0001:00003500       ??1?$eOp@V?$Row@N@arma@@Veop_scalar_minus_post@2@@arma@@QEAA@XZ 0000000180004500 f i GibbsSampler.obj
 0001:00003500       ??1?$eOp@V?$Col@N@arma@@Veop_scalar_div_post@2@@arma@@QEAA@XZ 0000000180004500 f i Gaussian.obj
 0001:00003500       ??1?$eOp@V?$Mat@N@arma@@Veop_scalar_times@2@@arma@@QEAA@XZ 0000000180004500 f i Gaussian.obj
 0001:00003500       ??1?$Op@V?$eGlue@V?$eOp@V?$Mat@N@arma@@Veop_scalar_times@2@@arma@@V?$Glue@V?$eOp@V?$Col@N@arma@@Veop_scalar_times@2@@arma@@V?$Op@V?$Col@N@arma@@Vop_htrans@2@@2@Vglue_times@2@@2@Veglue_plus@2@@arma@@Vop_chol@2@@arma@@QEAA@XZ 0000000180004500 f i Gaussian.obj
 0001:00003500       ??1?$diagview@N@arma@@QEAA@XZ 0000000180004500 f i Gaussian.obj
 0001:00003500       ??1?$eOp@V?$eOp@V?$Col@N@arma@@Veop_scalar_minus_pre@2@@arma@@Veop_scalar_div_post@2@@arma@@QEAA@XZ 0000000180004500 f i Gaussian.obj
 0001:00003500       ??1?$Op@V?$Col@N@arma@@Vop_htrans@2@@arma@@QEAA@XZ 0000000180004500 f i Gaussian.obj
 0001:00003500       ??1?$Op@V?$Mat@N@arma@@Vop_htrans@2@@arma@@QEAA@XZ 0000000180004500 f i Gaussian.obj
 0001:00003500       ??1?$Glue@V?$Op@V?$Mat@N@arma@@Vop_htrans@2@@arma@@V?$Mat@N@2@Vglue_times@2@@arma@@QEAA@XZ 0000000180004500 f i Gaussian.obj
 0001:00003500       ??1?$eOp@V?$eOp@V?$Row@N@arma@@Veop_scalar_minus_post@2@@arma@@Veop_exp@2@@arma@@QEAA@XZ 0000000180004500 f i GibbsSampler.obj
 0001:00003500       ??1?$Op@V?$Mat@N@arma@@Vop_diagvec@2@@arma@@QEAA@XZ 0000000180004500 f i Gaussian.obj
 0001:00003500       ??1?$eGlue@V?$Col@N@arma@@V12@Veglue_minus@2@@arma@@QEAA@XZ 0000000180004500 f i Gaussian.obj
 0001:00003500       ??1?$Glue@V?$eOp@V?$Col@N@arma@@Veop_scalar_times@2@@arma@@V?$Op@V?$Col@N@arma@@Vop_htrans@2@@2@Vglue_times@2@@arma@@QEAA@XZ 0000000180004500 f i Gaussian.obj
 0001:00003500       ??1?$eGlue@V?$Col@N@arma@@V12@Veglue_plus@2@@arma@@QEAA@XZ 0000000180004500 f i Gaussian.obj
 0001:00003500       ??1?$eOp@V?$Row@N@arma@@Veop_scalar_div_post@2@@arma@@QEAA@XZ 0000000180004500 f i GibbsSampler.obj
 0001:00003500       ??1?$subview@N@arma@@QEAA@XZ 0000000180004500 f i GibbsSampler.obj
 0001:00003520       ??$arma_stream_err2@D@arma@@YAAEAV?$basic_ostream@DU?$char_traits@D@std@@@std@@PEAV12@@Z 0000000180004520 f i Gaussian.obj
 0001:00003590       ??$endl@DU?$char_traits@D@std@@@std@@YAAEAV?$basic_ostream@DU?$char_traits@D@std@@@0@AEAV10@@Z 0000000180004590 f i Gaussian.obj
 0001:000035d0       ??$regspace@V?$Col@N@arma@@@arma@@YA?AV?$Col@N@0@NN@Z 00000001800045d0 f i Gaussian.obj
 0001:00003610       ??$?GV?$Col@N@arma@@@arma@@YA?BV?$eOp@V?$Col@N@arma@@Veop_scalar_minus_pre@2@@0@NAEBV?$Col@N@0@@Z 0000000180004610 f i Gaussian.obj
 0001:00003610       ??$?DV?$Col@N@arma@@@arma@@YA?BV?$eOp@V?$Col@N@arma@@Veop_scalar_times@2@@0@NAEBV?$Col@N@0@@Z 0000000180004610 f i Gaussian.obj
 0001:00003640       ??$?KV?$Row@N@arma@@@arma@@YA?BV?$eOp@V?$Row@N@arma@@Veop_scalar_div_post@2@@0@AEBV?$Row@N@0@N@Z 0000000180004640 f i GibbsSampler.obj
 0001:00003640       ??$?KV?$Col@N@arma@@@arma@@YA?BV?$eOp@V?$Col@N@arma@@Veop_scalar_div_post@2@@0@AEBV?$Col@N@0@N@Z 0000000180004640 f i Gaussian.obj
 0001:00003640       ??$?GV?$Row@N@arma@@@arma@@YA?BV?$eOp@V?$Row@N@arma@@Veop_scalar_minus_post@2@@0@AEBV?$Row@N@0@N@Z 0000000180004640 f i GibbsSampler.obj
 0001:00003640       ??$?DV?$Mat@N@arma@@@arma@@YA?BV?$eOp@V?$Mat@N@arma@@Veop_scalar_times@2@@0@AEBV?$Mat@N@0@N@Z 0000000180004640 f i Gaussian.obj
 0001:00003640       ??$?KV?$eOp@V?$Col@N@arma@@Veop_scalar_minus_pre@2@@arma@@@arma@@YA?BV?$eOp@V?$eOp@V?$Col@N@arma@@Veop_scalar_minus_pre@2@@arma@@Veop_scalar_div_post@2@@0@AEBV?$eOp@V?$Col@N@arma@@Veop_scalar_minus_pre@2@@0@N@Z 0000000180004640 f i Gaussian.obj
 0001:00003660       ??$?0V?$eOp@V?$eOp@V?$Col@N@arma@@Veop_scalar_minus_pre@2@@arma@@Veop_scalar_div_post@2@@arma@@@?$Col@N@arma@@QEAA@AEBU?$Base@NV?$eOp@V?$eOp@V?$Col@N@arma@@Veop_scalar_minus_pre@2@@arma@@Veop_scalar_div_post@2@@arma@@@1@@Z 0000000180004660 f i Gaussian.obj
 0001:000036b0       ??$?0V?$eOp@V?$Col@N@arma@@Veop_scalar_div_post@2@@arma@@@?$Col@N@arma@@QEAA@AEBU?$Base@NV?$eOp@V?$Col@N@arma@@Veop_scalar_div_post@2@@arma@@@1@@Z 00000001800046b0 f i Gaussian.obj
 0001:00003700       ??$diagvec@V?$Mat@N@arma@@@arma@@YA?BV?$Op@V?$Mat@N@arma@@Vop_diagvec@2@@0@AEBU?$Base@NV?$Mat@N@arma@@@0@H@Z 0000000180004700 f i Gaussian.obj
 0001:00003730       ??1?$eOp@V?$Op@V?$Mat@N@arma@@Vop_diagvec@2@@arma@@Veop_log@2@@arma@@QEAA@XZ 0000000180004730 f i Gaussian.obj
 0001:00003750       ??$log@V?$Op@V?$Mat@N@arma@@Vop_diagvec@2@@arma@@@arma@@YA?BV?$eOp@V?$Op@V?$Mat@N@arma@@Vop_diagvec@2@@arma@@Veop_log@2@@0@AEBV?$Op@V?$Mat@N@arma@@Vop_diagvec@2@@0@@Z 0000000180004750 f i Gaussian.obj
 0001:00003770       ??$sum@V?$eOp@V?$Op@V?$Mat@N@arma@@Vop_diagvec@2@@arma@@Veop_log@2@@arma@@@arma@@YANAEBV?$eOp@V?$Op@V?$Mat@N@arma@@Vop_diagvec@2@@arma@@Veop_log@2@@0@Varma_empty_class@0@PEBH@Z 0000000180004770 f i Gaussian.obj
 0001:00003780       ??$?DV?$eOp@V?$Col@N@arma@@Veop_scalar_times@2@@arma@@V?$Op@V?$Col@N@arma@@Vop_htrans@2@@1@@arma@@YA?BV?$Glue@V?$eOp@V?$Col@N@arma@@Veop_scalar_times@2@@arma@@V?$Op@V?$Col@N@arma@@Vop_htrans@2@@2@Vglue_times@2@@0@AEBV?$eOp@V?$Col@N@arma@@Veop_scalar_times@2@@0@AEBV?$Op@V?$Col@N@arma@@Vop_htrans@2@@0@@Z 0000000180004780 f i Gaussian.obj
 0001:00003780       ??$?DV?$Op@V?$Mat@N@arma@@Vop_htrans@2@@arma@@V?$Mat@N@1@@arma@@YA?BV?$Glue@V?$Op@V?$Mat@N@arma@@Vop_htrans@2@@arma@@V?$Mat@N@2@Vglue_times@2@@0@AEBV?$Op@V?$Mat@N@arma@@Vop_htrans@2@@0@AEBV?$Mat@N@0@@Z 0000000180004780 f i Gaussian.obj
 0001:000037a0       ??1?$eGlue@V?$eOp@V?$Mat@N@arma@@Veop_scalar_times@2@@arma@@V?$Glue@V?$eOp@V?$Col@N@arma@@Veop_scalar_times@2@@arma@@V?$Op@V?$Col@N@arma@@Vop_htrans@2@@2@Vglue_times@2@@2@Veglue_plus@2@@arma@@QEAA@XZ 00000001800047a0 f i Gaussian.obj
 0001:000037c0       ??$?HV?$eOp@V?$Mat@N@arma@@Veop_scalar_times@2@@arma@@V?$Glue@V?$eOp@V?$Col@N@arma@@Veop_scalar_times@2@@arma@@V?$Op@V?$Col@N@arma@@Vop_htrans@2@@2@Vglue_times@2@@1@@arma@@YA?BV?$eGlue@V?$eOp@V?$Mat@N@arma@@Veop_scalar_times@2@@arma@@V?$Glue@V?$eOp@V?$Col@N@arma@@Veop_scalar_times@2@@arma@@V?$Op@V?$Col@N@arma@@Vop_htrans@2@@2@Vglue_times@2@@2@Veglue_plus@2@@0@AEBV?$eOp@V?$Mat@N@arma@@Veop_scalar_times@2@@0@AEBV?$Glue@V?$eOp@V?$Col@N@arma@@Veop_scalar_times@2@@arma@@V?$Op@V?$Col@N@arma@@Vop_htrans@2@@2@Vglue_times@2@@0@@Z 00000001800047c0 f i Gaussian.obj
 0001:000037e0       ??$chol@V?$eGlue@V?$eOp@V?$Mat@N@arma@@Veop_scalar_times@2@@arma@@V?$Glue@V?$eOp@V?$Col@N@arma@@Veop_scalar_times@2@@arma@@V?$Op@V?$Col@N@arma@@Vop_htrans@2@@2@Vglue_times@2@@2@Veglue_plus@2@@arma@@@arma@@YA?BV?$Op@V?$eGlue@V?$eOp@V?$Mat@N@arma@@Veop_scalar_times@2@@arma@@V?$Glue@V?$eOp@V?$Col@N@arma@@Veop_scalar_times@2@@arma@@V?$Op@V?$Col@N@arma@@Vop_htrans@2@@2@Vglue_times@2@@2@Veglue_plus@2@@arma@@Vop_chol@2@@0@AEBU?$Base@NV?$eGlue@V?$eOp@V?$Mat@N@arma@@Veop_scalar_times@2@@arma@@V?$Glue@V?$eOp@V?$Col@N@arma@@Veop_scalar_times@2@@arma@@V?$Op@V?$Col@N@arma@@Vop_htrans@2@@2@Vglue_times@2@@2@Veglue_plus@2@@arma@@@0@PEBD@Z 00000001800047e0 f i Gaussian.obj
 0001:00003810       ??$?4V?$eGlue@V?$eOp@V?$Mat@N@arma@@Veop_scalar_times@2@@arma@@V?$Glue@V?$eOp@V?$Col@N@arma@@Veop_scalar_times@2@@arma@@V?$Op@V?$Col@N@arma@@Vop_htrans@2@@2@Vglue_times@2@@2@Veglue_plus@2@@arma@@Vop_chol@1@@?$Mat@N@arma@@QEAAAEBV01@AEBV?$Op@V?$eGlue@V?$eOp@V?$Mat@N@arma@@Veop_scalar_times@2@@arma@@V?$Glue@V?$eOp@V?$Col@N@arma@@Veop_scalar_times@2@@arma@@V?$Op@V?$Col@N@arma@@Vop_htrans@2@@2@Vglue_times@2@@2@Veglue_plus@2@@arma@@Vop_chol@2@@1@@Z 0000000180004810 f i Gaussian.obj
 0001:00003830       ??$?4V?$eOp@V?$Col@N@arma@@Veop_scalar_times@2@@arma@@@?$Col@N@arma@@QEAAAEBV01@AEBU?$Base@NV?$eOp@V?$Col@N@arma@@Veop_scalar_times@2@@arma@@@1@@Z 0000000180004830 f i Gaussian.obj
 0001:00003860       ??1?$eOp@V?$Glue@V?$Op@V?$Mat@N@arma@@Vop_htrans@2@@arma@@V?$Mat@N@2@Vglue_times@2@@arma@@Veop_scalar_div_post@2@@arma@@QEAA@XZ 0000000180004860 f i Gaussian.obj
 0001:00003880       ??$?KV?$Glue@V?$Op@V?$Mat@N@arma@@Vop_htrans@2@@arma@@V?$Mat@N@2@Vglue_times@2@@arma@@@arma@@YA?BV?$eOp@V?$Glue@V?$Op@V?$Mat@N@arma@@Vop_htrans@2@@arma@@V?$Mat@N@2@Vglue_times@2@@arma@@Veop_scalar_div_post@2@@0@AEBV?$Glue@V?$Op@V?$Mat@N@arma@@Vop_htrans@2@@arma@@V?$Mat@N@2@Vglue_times@2@@0@N@Z 0000000180004880 f i Gaussian.obj
 0001:000038a0       ??$?0V?$Glue@V?$Op@V?$Mat@N@arma@@Vop_htrans@2@@arma@@V?$Mat@N@2@Vglue_times@2@@arma@@Veop_scalar_div_post@1@@?$Mat@N@arma@@QEAA@AEBV?$eOp@V?$Glue@V?$Op@V?$Mat@N@arma@@Vop_htrans@2@@arma@@V?$Mat@N@2@Vglue_times@2@@arma@@Veop_scalar_div_post@2@@1@@Z 00000001800048a0 f i Gaussian.obj
 0001:00003900       ??$?HV?$Col@N@arma@@V01@@arma@@YA?BV?$eGlue@V?$Col@N@arma@@V12@Veglue_plus@2@@0@AEBV?$Col@N@0@0@Z 0000000180004900 f i Gaussian.obj
 0001:00003900       ??$?GV?$Col@N@arma@@V01@@arma@@YA?BV?$eGlue@V?$Col@N@arma@@V12@Veglue_minus@2@@0@AEBV?$Col@N@0@0@Z 0000000180004900 f i Gaussian.obj
 0001:00003920       ??$?4V?$eGlue@V?$Col@N@arma@@V12@Veglue_plus@2@@arma@@@?$Col@N@arma@@QEAAAEBV01@AEBU?$Base@NV?$eGlue@V?$Col@N@arma@@V12@Veglue_plus@2@@arma@@@1@@Z 0000000180004920 f i Gaussian.obj
 0001:00003950       ??$?0V?$eGlue@V?$Col@N@arma@@V12@Veglue_plus@2@@arma@@@?$Col@N@arma@@QEAA@AEBU?$Base@NV?$eGlue@V?$Col@N@arma@@V12@Veglue_plus@2@@arma@@@1@@Z 0000000180004950 f i Gaussian.obj
 0001:000039a0       ??$?4V?$eGlue@V?$Col@N@arma@@V12@Veglue_minus@2@@arma@@@?$Col@N@arma@@QEAAAEBV01@AEBU?$Base@NV?$eGlue@V?$Col@N@arma@@V12@Veglue_minus@2@@arma@@@1@@Z 00000001800049a0 f i Gaussian.obj
 0001:000039d0       ??$?6NV?$Mat@N@arma@@@arma@@YAAEAV?$basic_ostream@DU?$char_traits@D@std@@@std@@AEAV12@AEBU?$Base@NV?$Mat@N@arma@@@0@@Z 00000001800049d0 f i Gaussian.obj
 0001:00003a10       ??$?0$$V@?$_Compressed_pair@U?$_Wrap_alloc@V?$allocator@D@std@@@std@@V?$_String_val@U?$_Simple_types@D@std@@@2@$00@std@@QEAA@U_Zero_then_variadic_args_t@1@@Z 0000000180004a10 f i Gaussian.obj
 0001:00003a10       ??$?0U?$_Wrap_alloc@V?$allocator@D@std@@@std@@$$V@?$_Compressed_pair@U?$_Wrap_alloc@V?$allocator@D@std@@@std@@V?$_String_val@U?$_Simple_types@D@std@@@2@$00@std@@QEAA@U_One_then_variadic_args_t@1@$$QEAU?$_Wrap_alloc@V?$allocator@D@std@@@1@@Z 0000000180004a10 f i Gaussian.obj
 0001:00003a30       ??$_Min_value@_K@std@@YAAEB_KAEB_K0@Z 0000000180004a30 f i Gaussian.obj
 0001:00003a40       ??$construct@PEADAEAPEAD@?$_Wrap_alloc@V?$allocator@D@std@@@std@@QEAAXPEAPEADAEAPEAD@Z 0000000180004a40 f i Gaussian.obj
 0001:00003a60       ??1?$Proxy@V?$Op@V?$Mat@N@arma@@Vop_diagvec@2@@arma@@@arma@@QEAA@XZ 0000000180004a60 f i Gaussian.obj
 0001:00003a70       ??1?$subview_col@N@arma@@QEAA@XZ 0000000180004a70 f i GibbsSampler.obj
 0001:00003a70       ??1?$Proxy_diagvec_mat@V?$Op@V?$Mat@N@arma@@Vop_diagvec@2@@arma@@@arma@@QEAA@XZ 0000000180004a70 f i Gaussian.obj
 0001:00003a80       ??0?$quasi_unwrap@V?$Row@N@arma@@@arma@@QEAA@AEBV?$Row@N@1@@Z 0000000180004a80 f i GibbsSampler.obj
 0001:00003a80       ??0?$unwrap@V?$Mat@N@arma@@@arma@@QEAA@AEBV?$Mat@N@1@@Z 0000000180004a80 f i Gaussian.obj
 0001:00003a80       ??0?$Proxy@V?$eOp@V?$Op@V?$Mat@N@arma@@Vop_diagvec@2@@arma@@Veop_log@2@@arma@@@arma@@QEAA@AEBV?$eOp@V?$Op@V?$Mat@N@arma@@Vop_diagvec@2@@arma@@Veop_log@2@@1@@Z 0000000180004a80 f i Gaussian.obj
 0001:00003a80       ??0?$partial_unwrap@V?$Mat@N@arma@@@arma@@QEAA@AEBV?$Mat@N@1@@Z 0000000180004a80 f i Gaussian.obj
 0001:00003a80       ??0?$Proxy@V?$Col@N@arma@@@arma@@QEAA@AEBV?$Col@N@1@@Z 0000000180004a80 f i Gaussian.obj
 0001:00003a80       ??0?$Proxy@V?$Row@N@arma@@@arma@@QEAA@AEBV?$Row@N@1@@Z 0000000180004a80 f i GibbsSampler.obj
 0001:00003a80       ??0?$Proxy@V?$eOp@V?$Col@N@arma@@Veop_scalar_minus_pre@2@@arma@@@arma@@QEAA@AEBV?$eOp@V?$Col@N@arma@@Veop_scalar_minus_pre@2@@1@@Z 0000000180004a80 f i Gaussian.obj
 0001:00003a80       ??0?$_String_const_iterator@V?$_String_val@U?$_Simple_types@D@std@@@std@@@std@@QEAA@PEBDPEBU_Container_base0@1@@Z 0000000180004a80 f i GibbsSampler.obj
 0001:00003a80       ??0?$Proxy@V?$eOp@V?$Mat@N@arma@@Veop_scalar_times@2@@arma@@@arma@@QEAA@AEBV?$eOp@V?$Mat@N@arma@@Veop_scalar_times@2@@1@@Z 0000000180004a80 f i Gaussian.obj
 0001:00003a80       ??0?$Proxy@V?$eOp@V?$Row@N@arma@@Veop_scalar_minus_post@2@@arma@@@arma@@QEAA@AEBV?$eOp@V?$Row@N@arma@@Veop_scalar_minus_post@2@@1@@Z 0000000180004a80 f i GibbsSampler.obj
 0001:00003a80       ??0?$quasi_unwrap@V?$Mat@I@arma@@@arma@@QEAA@AEBV?$Mat@I@1@@Z 0000000180004a80 f i GibbsSampler.obj
 0001:00003a80       ??0?$Proxy@V?$Mat@N@arma@@@arma@@QEAA@AEBV?$Mat@N@1@@Z 0000000180004a80 f i Gaussian.obj
 0001:00003a90       ??0?$_String_val@U?$_Simple_types@D@std@@@std@@QEAA@XZ 0000000180004a90 f i Gaussian.obj
 0001:00003aa0       ??0?$Mat@N@arma@@IEAA@AEBUarma_vec_indicator@1@IIG@Z 0000000180004aa0 f i Gaussian.obj
 0001:00003ae0       ??0?$Mat@N@arma@@IEAA@AEBUarma_vec_indicator@1@G@Z 0000000180004ae0 f i Gaussian.obj
 0001:00003b10       ??A?$Mat@N@arma@@QEAAAEANI@Z 0000000180004b10 f i Gaussian.obj
 0001:00003b20       ?memptr@?$Mat@I@arma@@QEAAPEAIXZ 0000000180004b20 f i GibbsSampler.obj
 0001:00003b20       ?memptr@?$Mat@N@arma@@QEBAPEBNXZ 0000000180004b20 f i Gaussian.obj
 0001:00003b20       ?memptr@?$Cube@N@arma@@QEAAPEANXZ 0000000180004b20 f i nCRP-Gibbs-Sampler.obj
 0001:00003b20       ?memptr@?$Cube@N@arma@@QEBAPEBNXZ 0000000180004b20 f i nCRP-Gibbs-Sampler.obj
 0001:00003b20       ?memptr@?$Mat@I@arma@@QEBAPEBIXZ 0000000180004b20 f i GibbsSampler.obj
 0001:00003b20       ?memptr@?$Mat@N@arma@@QEAAPEANXZ 0000000180004b20 f i Gaussian.obj
 0001:00003b30       ?set_size@?$Mat@N@arma@@QEAAXII@Z 0000000180004b30 f i Gaussian.obj
 0001:00003b40       ?set_size@?$Mat@N@arma@@QEAAXI@Z 0000000180004b40 f i Gaussian.obj
 0001:00003b70       ?init_cold@?$Mat@N@arma@@IEAAXXZ 0000000180004b70 f i Gaussian.obj
 0001:00003bc0       ?init_warm@?$Mat@N@arma@@IEAAXII@Z 0000000180004bc0 f i Gaussian.obj
 0001:00003d30       ??0?$Op@V?$Mat@N@arma@@Vop_htrans@2@@arma@@QEAA@AEBV?$Mat@N@1@@Z 0000000180004d30 f i Gaussian.obj
 0001:00003d30       ??0?$Op@V?$Row@N@arma@@Vop_cumsum_default@2@@arma@@QEAA@AEBV?$Row@N@1@@Z 0000000180004d30 f i GibbsSampler.obj
 0001:00003d30       ??0?$Op@V?$Col@N@arma@@Vop_htrans@2@@arma@@QEAA@AEBV?$Col@N@1@@Z 0000000180004d30 f i Gaussian.obj
 0001:00003d40       ??0?$eOp@V?$eOp@V?$Col@N@arma@@Veop_scalar_minus_pre@2@@arma@@Veop_scalar_div_post@2@@arma@@QEAA@AEBV?$eOp@V?$Col@N@arma@@Veop_scalar_minus_pre@2@@1@N@Z 0000000180004d40 f i Gaussian.obj
 0001:00003d40       ??0?$eOp@V?$Row@N@arma@@Veop_scalar_div_post@2@@arma@@QEAA@AEBV?$Row@N@1@N@Z 0000000180004d40 f i GibbsSampler.obj
 0001:00003d40       ??0?$eOp@V?$Col@N@arma@@Veop_scalar_minus_pre@2@@arma@@QEAA@AEBV?$Col@N@1@N@Z 0000000180004d40 f i Gaussian.obj
 0001:00003d40       ??0?$eOp@V?$Mat@N@arma@@Veop_scalar_times@2@@arma@@QEAA@AEBV?$Mat@N@1@N@Z 0000000180004d40 f i Gaussian.obj
 0001:00003d40       ??0?$eOp@V?$Row@N@arma@@Veop_scalar_minus_post@2@@arma@@QEAA@AEBV?$Row@N@1@N@Z 0000000180004d40 f i GibbsSampler.obj
 0001:00003d40       ??0?$eOp@V?$Col@N@arma@@Veop_scalar_div_post@2@@arma@@QEAA@AEBV?$Col@N@1@N@Z 0000000180004d40 f i Gaussian.obj
 0001:00003d40       ??0?$eOp@V?$Col@N@arma@@Veop_scalar_times@2@@arma@@QEAA@AEBV?$Col@N@1@N@Z 0000000180004d40 f i Gaussian.obj
 0001:00003d60       ??0?$Op@V?$Mat@N@arma@@Vop_diagvec@2@@arma@@QEAA@AEBV?$Mat@N@1@II@Z 0000000180004d60 f i Gaussian.obj
 0001:00003d70       ??0?$eOp@V?$Op@V?$Mat@N@arma@@Vop_diagvec@2@@arma@@Veop_log@2@@arma@@QEAA@AEBV?$Op@V?$Mat@N@arma@@Vop_diagvec@2@@1@@Z 0000000180004d70 f i Gaussian.obj
 0001:00003da0       ??0?$Glue@V?$Op@V?$Mat@N@arma@@Vop_htrans@2@@arma@@V?$Mat@N@2@Vglue_times@2@@arma@@QEAA@AEBV?$Op@V?$Mat@N@arma@@Vop_htrans@2@@1@AEBV?$Mat@N@1@@Z 0000000180004da0 f i Gaussian.obj
 0001:00003da0       ??0?$Glue@V?$eOp@V?$Col@N@arma@@Veop_scalar_times@2@@arma@@V?$Op@V?$Col@N@arma@@Vop_htrans@2@@2@Vglue_times@2@@arma@@QEAA@AEBV?$eOp@V?$Col@N@arma@@Veop_scalar_times@2@@1@AEBV?$Op@V?$Col@N@arma@@Vop_htrans@2@@1@@Z 0000000180004da0 f i Gaussian.obj
 0001:00003db0       ??0?$eGlue@V?$eOp@V?$Mat@N@arma@@Veop_scalar_times@2@@arma@@V?$Glue@V?$eOp@V?$Col@N@arma@@Veop_scalar_times@2@@arma@@V?$Op@V?$Col@N@arma@@Vop_htrans@2@@2@Vglue_times@2@@2@Veglue_plus@2@@arma@@QEAA@AEBV?$eOp@V?$Mat@N@arma@@Veop_scalar_times@2@@1@AEBV?$Glue@V?$eOp@V?$Col@N@arma@@Veop_scalar_times@2@@arma@@V?$Op@V?$Col@N@arma@@Vop_htrans@2@@2@Vglue_times@2@@1@@Z 0000000180004db0 f i Gaussian.obj
 0001:00003df0       ??0?$Op@V?$eGlue@V?$eOp@V?$Mat@N@arma@@Veop_scalar_times@2@@arma@@V?$Glue@V?$eOp@V?$Col@N@arma@@Veop_scalar_times@2@@arma@@V?$Op@V?$Col@N@arma@@Vop_htrans@2@@2@Vglue_times@2@@2@Veglue_plus@2@@arma@@Vop_chol@2@@arma@@QEAA@AEBV?$eGlue@V?$eOp@V?$Mat@N@arma@@Veop_scalar_times@2@@arma@@V?$Glue@V?$eOp@V?$Col@N@arma@@Veop_scalar_times@2@@arma@@V?$Op@V?$Col@N@arma@@Vop_htrans@2@@2@Vglue_times@2@@2@Veglue_plus@2@@1@II@Z 0000000180004df0 f i Gaussian.obj
 0001:00003e10       ??0?$eOp@V?$Glue@V?$Op@V?$Mat@N@arma@@Vop_htrans@2@@arma@@V?$Mat@N@2@Vglue_times@2@@arma@@Veop_scalar_div_post@2@@arma@@QEAA@AEBV?$Glue@V?$Op@V?$Mat@N@arma@@Vop_htrans@2@@arma@@V?$Mat@N@2@Vglue_times@2@@1@N@Z 0000000180004e10 f i Gaussian.obj
 0001:00003e50       ?get_n_rows@?$eOp@V?$Glue@V?$Op@V?$Mat@N@arma@@Vop_htrans@2@@arma@@V?$Mat@N@2@Vglue_times@2@@arma@@Veop_scalar_div_post@2@@arma@@QEBAIXZ 0000000180004e50 f i Gaussian.obj
 0001:00003e60       ?get_n_cols@?$eOp@V?$Glue@V?$Op@V?$Mat@N@arma@@Vop_htrans@2@@arma@@V?$Mat@N@2@Vglue_times@2@@arma@@Veop_scalar_div_post@2@@arma@@QEBAIXZ 0000000180004e60 f i Gaussian.obj
 0001:00003e70       ?get_n_elem@?$eOp@V?$Glue@V?$Op@V?$Mat@N@arma@@Vop_htrans@2@@arma@@V?$Mat@N@2@Vglue_times@2@@arma@@Veop_scalar_div_post@2@@arma@@QEBAIXZ 0000000180004e70 f i Gaussian.obj
 0001:00003e80       ??0?$eGlue@V?$Col@N@arma@@V12@Veglue_minus@2@@arma@@QEAA@AEBV?$Col@N@1@0@Z 0000000180004e80 f i Gaussian.obj
 0001:00003e80       ??0?$eGlue@V?$Col@N@arma@@V12@Veglue_plus@2@@arma@@QEAA@AEBV?$Col@N@1@0@Z 0000000180004e80 f i Gaussian.obj
 0001:00003eb0       ??$release@$$CBI@memory@arma@@SAXPEBI@Z 0000000180004eb0 f i GibbsSampler.obj
 0001:00003eb0       ??$release@$$CBN@memory@arma@@SAXPEBN@Z 0000000180004eb0 f i Gaussian.obj
 0001:00003ec0       ??$copy@N@arrayops@arma@@SAXPEANPEBNI@Z 0000000180004ec0 f i Gaussian.obj
 0001:00003ee0       ??$inplace_set@N@arrayops@arma@@SAXPEANNI@Z 0000000180004ee0 f i Gaussian.obj
 0001:00003f20       ??$internal_regspace_default_delta@N@arma@@YAXAEAV?$Mat@N@0@NN@Z 0000000180004f20 f i Gaussian.obj
 0001:00003ff0       ??$?4V?$eOp@V?$Col@N@arma@@Veop_scalar_minus_pre@2@@arma@@Veop_scalar_div_post@1@@?$Mat@N@arma@@QEAAAEBV01@AEBV?$eOp@V?$eOp@V?$Col@N@arma@@Veop_scalar_minus_pre@2@@arma@@Veop_scalar_div_post@2@@1@@Z 0000000180004ff0 f i Gaussian.obj
 0001:00004040       ??$?4V?$Col@N@arma@@Veop_scalar_div_post@1@@?$Mat@N@arma@@QEAAAEBV01@AEBV?$eOp@V?$Col@N@arma@@Veop_scalar_div_post@2@@1@@Z 0000000180005040 f i Gaussian.obj
 0001:00004090       ??$accu@V?$eOp@V?$Op@V?$Mat@N@arma@@Vop_diagvec@2@@arma@@Veop_log@2@@arma@@@arma@@YANAEBV?$eOp@V?$Op@V?$Mat@N@arma@@Vop_diagvec@2@@arma@@Veop_log@2@@0@@Z 0000000180005090 f i Gaussian.obj
 0001:000040b0       ??$apply@V?$eGlue@V?$eOp@V?$Mat@N@arma@@Veop_scalar_times@2@@arma@@V?$Glue@V?$eOp@V?$Col@N@arma@@Veop_scalar_times@2@@arma@@V?$Op@V?$Col@N@arma@@Vop_htrans@2@@2@Vglue_times@2@@2@Veglue_plus@2@@arma@@@op_chol@arma@@SAXAEAV?$Mat@N@1@AEBV?$Op@V?$eGlue@V?$eOp@V?$Mat@N@arma@@Veop_scalar_times@2@@arma@@V?$Glue@V?$eOp@V?$Col@N@arma@@Veop_scalar_times@2@@arma@@V?$Op@V?$Col@N@arma@@Vop_htrans@2@@2@Vglue_times@2@@2@Veglue_plus@2@@arma@@Vop_chol@2@@1@@Z 00000001800050b0 f i Gaussian.obj
 0001:000040e0       ??$?4V?$Col@N@arma@@Veop_scalar_times@1@@?$Mat@N@arma@@QEAAAEBV01@AEBV?$eOp@V?$Col@N@arma@@Veop_scalar_times@2@@1@@Z 00000001800050e0 f i Gaussian.obj
 0001:00004130       ??$apply@V?$Mat@N@arma@@V?$Glue@V?$Op@V?$Mat@N@arma@@Vop_htrans@2@@arma@@V?$Mat@N@2@Vglue_times@2@@2@@?$eop_core@Veop_scalar_div_post@arma@@@arma@@SAXAEAV?$Mat@N@1@AEBV?$eOp@V?$Glue@V?$Op@V?$Mat@N@arma@@Vop_htrans@2@@arma@@V?$Mat@N@2@Vglue_times@2@@arma@@Veop_scalar_div_post@2@@1@@Z 0000000180005130 f i Gaussian.obj
 0001:00004210       ??$?4V?$Col@N@arma@@V01@Veglue_plus@1@@?$Mat@N@arma@@QEAAAEBV01@AEBV?$eGlue@V?$Col@N@arma@@V12@Veglue_plus@2@@1@@Z 0000000180005210 f i Gaussian.obj
 0001:00004260       ??$?4V?$Col@N@arma@@V01@Veglue_minus@1@@?$Mat@N@arma@@QEAAAEBV01@AEBV?$eGlue@V?$Col@N@arma@@V12@Veglue_minus@2@@1@@Z 0000000180005260 f i Gaussian.obj
 0001:000042b0       ??$print@N@arma_ostream@arma@@SAXAEAV?$basic_ostream@DU?$char_traits@D@std@@@std@@AEBV?$Mat@N@1@_N@Z 00000001800052b0 f i Gaussian.obj
 0001:00004470       ??$construct@PEADAEAPEAD@?$allocator_traits@V?$allocator@D@std@@@std@@SAXAEAV?$allocator@D@1@PEAPEADAEAPEAD@Z 0000000180005470 f i Gaussian.obj
 0001:00004490       ??_G?$Mat@N@arma@@QEAAPEAXI@Z 0000000180005490 f i Gaussian.obj
 0001:000044c0       ?is_aligned@?$Proxy@V?$Row@N@arma@@@arma@@QEBA_NXZ 00000001800054c0 f i GibbsSampler.obj
 0001:000044c0       ?is_aligned@?$Proxy@V?$Col@N@arma@@@arma@@QEBA_NXZ 00000001800054c0 f i Gaussian.obj
 0001:000044c0       ?is_aligned@?$Proxy@V?$Glue@V?$Op@V?$Mat@N@arma@@Vop_htrans@2@@arma@@V?$Mat@N@2@Vglue_times@2@@arma@@@arma@@QEBA_NXZ 00000001800054c0 f i Gaussian.obj
 0001:000044c0       ?is_aligned@?$Proxy@V?$Glue@V?$eOp@V?$Col@N@arma@@Veop_scalar_times@2@@arma@@V?$Op@V?$Col@N@arma@@Vop_htrans@2@@2@Vglue_times@2@@arma@@@arma@@QEBA_NXZ 00000001800054c0 f i Gaussian.obj
 0001:000044c0       ?is_aligned@?$Proxy@V?$Mat@N@arma@@@arma@@QEBA_NXZ 00000001800054c0 f i Gaussian.obj
 0001:000044d0       ?get_n_elem@?$Proxy@V?$Glue@V?$Op@V?$Mat@N@arma@@Vop_htrans@2@@arma@@V?$Mat@N@2@Vglue_times@2@@arma@@@arma@@QEBAIXZ 00000001800054d0 f i Gaussian.obj
 0001:000044e0       ?get_n_cols@?$Proxy@V?$Glue@V?$Op@V?$Mat@N@arma@@Vop_htrans@2@@arma@@V?$Mat@N@2@Vglue_times@2@@arma@@@arma@@QEBAIXZ 00000001800054e0 f i Gaussian.obj
 0001:000044e0       ?get_n_cols@?$Proxy@V?$Op@V?$Row@N@arma@@Vop_cumsum_default@2@@arma@@@arma@@QEBAIXZ 00000001800054e0 f i GibbsSampler.obj
 0001:000044f0       ?get_n_rows@?$Proxy@V?$Glue@V?$Op@V?$Mat@N@arma@@Vop_htrans@2@@arma@@V?$Mat@N@2@Vglue_times@2@@arma@@@arma@@QEBAIXZ 00000001800054f0 f i Gaussian.obj
 0001:00004500       ??0?$Proxy@V?$Glue@V?$Op@V?$Mat@N@arma@@Vop_htrans@2@@arma@@V?$Mat@N@2@Vglue_times@2@@arma@@@arma@@QEAA@AEBV?$Glue@V?$Op@V?$Mat@N@arma@@Vop_htrans@2@@arma@@V?$Mat@N@2@Vglue_times@2@@1@@Z 0000000180005500 f i Gaussian.obj
 0001:00004530       ??0?$Proxy@V?$Glue@V?$eOp@V?$Col@N@arma@@Veop_scalar_times@2@@arma@@V?$Op@V?$Col@N@arma@@Vop_htrans@2@@2@Vglue_times@2@@arma@@@arma@@QEAA@AEBV?$Glue@V?$eOp@V?$Col@N@arma@@Veop_scalar_times@2@@arma@@V?$Op@V?$Col@N@arma@@Vop_htrans@2@@2@Vglue_times@2@@1@@Z 0000000180005530 f i Gaussian.obj
 0001:00004560       ?get_n_cols@?$Proxy@V?$eOp@V?$Mat@N@arma@@Veop_scalar_times@2@@arma@@@arma@@QEBAIXZ 0000000180005560 f i Gaussian.obj
 0001:00004560       ?get_n_cols@?$Proxy@V?$eOp@V?$Row@N@arma@@Veop_scalar_minus_post@2@@arma@@@arma@@QEBAIXZ 0000000180005560 f i GibbsSampler.obj
 0001:00004570       ?get_n_rows@?$Proxy@V?$eOp@V?$Col@N@arma@@Veop_scalar_minus_pre@2@@arma@@@arma@@QEBAIXZ 0000000180005570 f i Gaussian.obj
 0001:00004570       ?get_n_rows@?$Proxy@V?$eOp@V?$Mat@N@arma@@Veop_scalar_times@2@@arma@@@arma@@QEBAIXZ 0000000180005570 f i Gaussian.obj
 0001:00004580       ??0?$Proxy@V?$Op@V?$Mat@N@arma@@Vop_diagvec@2@@arma@@@arma@@QEAA@AEBV?$Op@V?$Mat@N@arma@@Vop_diagvec@2@@1@@Z 0000000180005580 f i Gaussian.obj
 0001:000045b0       ?get_n_rows@?$Proxy@V?$Mat@N@arma@@@arma@@QEBAIXZ 00000001800055b0 f i Gaussian.obj
 0001:000045b0       ?get_n_rows@?$Proxy@V?$Col@N@arma@@@arma@@QEBAIXZ 00000001800055b0 f i Gaussian.obj
 0001:000045c0       ??0?$Proxy_diagvec_mat@V?$Op@V?$Mat@N@arma@@Vop_diagvec@2@@arma@@@arma@@QEAA@AEBV?$Op@V?$Mat@N@arma@@Vop_diagvec@2@@1@@Z 00000001800055c0 f i Gaussian.obj
 0001:00004600       ?diag@?$Mat@N@arma@@QEBA?BV?$diagview@N@2@H@Z 0000000180005600 f i Gaussian.obj
 0001:00004670       ?at_alt@?$Mat@N@arma@@QEBAAEBNI@Z 0000000180005670 f i Gaussian.obj
 0001:00004680       ?at@?$Mat@N@arma@@QEBAAEBNII@Z 0000000180005680 f i Gaussian.obj
 0001:000046a0       ?is_empty@?$Mat@N@arma@@QEBA_NXZ 00000001800056a0 f i Gaussian.obj
 0001:000046b0       ?reset@?$Mat@N@arma@@QEAAXXZ 00000001800056b0 f i Gaussian.obj
 0001:000046e0       ?steal_mem@?$Mat@N@arma@@QEAAXAEAV12@@Z 00000001800056e0 f i Gaussian.obj
 0001:00004830       ?get_n_rows@?$eGlue@V?$eOp@V?$Mat@N@arma@@Veop_scalar_times@2@@arma@@V?$Glue@V?$eOp@V?$Col@N@arma@@Veop_scalar_times@2@@arma@@V?$Op@V?$Col@N@arma@@Vop_htrans@2@@2@Vglue_times@2@@2@Veglue_plus@2@@arma@@QEBAIXZ 0000000180005830 f i Gaussian.obj
 0001:00004830       ?get_n_rows@?$eOp@V?$eOp@V?$Col@N@arma@@Veop_scalar_minus_pre@2@@arma@@Veop_scalar_div_post@2@@arma@@QEBAIXZ 0000000180005830 f i Gaussian.obj
 0001:00004840       ?get_n_rows@?$eGlue@V?$Col@N@arma@@V12@Veglue_minus@2@@arma@@QEBAIXZ 0000000180005840 f i Gaussian.obj
 0001:00004840       ?get_n_rows@?$eGlue@V?$Col@N@arma@@V12@Veglue_plus@2@@arma@@QEBAIXZ 0000000180005840 f i Gaussian.obj
 0001:00004840       ?get_n_rows@?$eOp@V?$Col@N@arma@@Veop_scalar_times@2@@arma@@QEBAIXZ 0000000180005840 f i Gaussian.obj
 0001:00004840       ?get_n_rows@?$eOp@V?$Col@N@arma@@Veop_scalar_div_post@2@@arma@@QEBAIXZ 0000000180005840 f i Gaussian.obj
 0001:00004840       ?get_n_rows@?$eOp@V?$Mat@N@arma@@Veop_scalar_times@2@@arma@@QEBAIXZ 0000000180005840 f i Gaussian.obj
 0001:00004840       ?get_n_rows@?$eOp@V?$Col@N@arma@@Veop_scalar_minus_pre@2@@arma@@QEBAIXZ 0000000180005840 f i Gaussian.obj
 0001:00004850       ?get_n_cols@?$eOp@V?$Row@N@arma@@Veop_scalar_minus_post@2@@arma@@QEBAIXZ 0000000180005850 f i GibbsSampler.obj
 0001:00004850       ?get_n_cols@?$eOp@V?$Row@N@arma@@Veop_scalar_div_post@2@@arma@@QEBAIXZ 0000000180005850 f i GibbsSampler.obj
 0001:00004850       ?get_n_cols@?$eOp@V?$Mat@N@arma@@Veop_scalar_times@2@@arma@@QEBAIXZ 0000000180005850 f i Gaussian.obj
 0001:00004860       ??$acquire@N@memory@arma@@SAPEANI@Z 0000000180005860 f i Gaussian.obj
 0001:000048a0       ??$copy_small@N@arrayops@arma@@SAXPEANPEBNI@Z 00000001800058a0 f i Gaussian.obj
 0001:00004930       ??$arma_check_bad_alloc@$$BY0CH@D@arma@@YAX_NAEAY0CH@$$CBD@Z 0000000180005930 f i Gaussian.obj
 0001:00004950       ??$inplace_set_small@N@arrayops@arma@@SAXPEANNI@Z 0000000180005950 f i Gaussian.obj
 0001:000049d0       ??$geq@N@?$cond_rel@$0A@@arma@@SA_NNN@Z 00000001800059d0 f i Gaussian.obj
 0001:000049d0       ??$is_aligned@N@memory@arma@@SA_NPEBN@Z 00000001800059d0 f i Gaussian.obj
 0001:000049d0       ??$leq@N@?$cond_rel@$0A@@arma@@SA_NNN@Z 00000001800059d0 f i Gaussian.obj
 0001:000049e0       ??$inplace_set_base@N@arrayops@arma@@SAXPEANNI@Z 00000001800059e0 f i Gaussian.obj
 0001:00004a10       ??$apply@V?$Mat@N@arma@@V?$eOp@V?$Col@N@arma@@Veop_scalar_minus_pre@2@@2@@?$eop_core@Veop_scalar_div_post@arma@@@arma@@SAXAEAV?$Mat@N@1@AEBV?$eOp@V?$eOp@V?$Col@N@arma@@Veop_scalar_minus_pre@2@@arma@@Veop_scalar_div_post@2@@1@@Z 0000000180005a10 f i Gaussian.obj
 0001:00004b20       ??$apply@V?$Mat@N@arma@@V?$Row@N@2@@?$eop_core@Veop_scalar_div_post@arma@@@arma@@SAXAEAV?$Mat@N@1@AEBV?$eOp@V?$Row@N@arma@@Veop_scalar_div_post@2@@1@@Z 0000000180005b20 f i GibbsSampler.obj
 0001:00004b20       ??$apply@V?$Mat@N@arma@@V?$Col@N@2@@?$eop_core@Veop_scalar_div_post@arma@@@arma@@SAXAEAV?$Mat@N@1@AEBV?$eOp@V?$Col@N@arma@@Veop_scalar_div_post@2@@1@@Z 0000000180005b20 f i Gaussian.obj
 0001:00004c00       ??$accu_proxy_linear@V?$eOp@V?$Op@V?$Mat@N@arma@@Vop_diagvec@2@@arma@@Veop_log@2@@arma@@@arma@@YANAEBV?$Proxy@V?$eOp@V?$Op@V?$Mat@N@arma@@Vop_diagvec@2@@arma@@Veop_log@2@@arma@@@0@@Z 0000000180005c00 f i Gaussian.obj
 0001:00004cb0       ??$chol@NV?$eGlue@V?$eOp@V?$Mat@N@arma@@Veop_scalar_times@2@@arma@@V?$Glue@V?$eOp@V?$Col@N@arma@@Veop_scalar_times@2@@arma@@V?$Op@V?$Col@N@arma@@Vop_htrans@2@@2@Vglue_times@2@@2@Veglue_plus@2@@arma@@@auxlib@arma@@SA_NAEAV?$Mat@N@1@AEBU?$Base@NV?$eGlue@V?$eOp@V?$Mat@N@arma@@Veop_scalar_times@2@@arma@@V?$Glue@V?$eOp@V?$Col@N@arma@@Veop_scalar_times@2@@arma@@V?$Op@V?$Col@N@arma@@Vop_htrans@2@@2@Vglue_times@2@@2@Veglue_plus@2@@arma@@@1@I@Z 0000000180005cb0 f i Gaussian.obj
 0001:00004e70       ??$apply@V?$Mat@N@arma@@V?$Col@N@2@@?$eop_core@Veop_scalar_times@arma@@@arma@@SAXAEAV?$Mat@N@1@AEBV?$eOp@V?$Col@N@arma@@Veop_scalar_times@2@@1@@Z 0000000180005e70 f i Gaussian.obj
 0001:00004f50       ??$process@N@?$eop_core@Veop_scalar_div_post@arma@@@arma@@SANNN@Z 0000000180005f50 f i Gaussian.obj
 0001:00004f60       ??$apply@V?$Mat@N@arma@@V?$Col@N@2@V32@@?$eglue_core@Veglue_plus@arma@@@arma@@SAXAEAV?$Mat@N@1@AEBV?$eGlue@V?$Col@N@arma@@V12@Veglue_plus@2@@1@@Z 0000000180005f60 f i Gaussian.obj
 0001:000052b0       ??$apply@V?$Mat@N@arma@@V?$Col@N@2@V32@@?$eglue_core@Veglue_minus@arma@@@arma@@SAXAEAV?$Mat@N@1@AEBV?$eGlue@V?$Col@N@arma@@V12@Veglue_minus@2@@1@@Z 00000001800062b0 f i Gaussian.obj
 0001:00005600       ??$modify_stream@N@arma_ostream@arma@@SA_JAEAV?$basic_ostream@DU?$char_traits@D@std@@@std@@PEBNI@Z 0000000180006600 f i Gaussian.obj
 0001:000058e0       ??$print_elem@N@arma_ostream@arma@@SAXAEAV?$basic_ostream@DU?$char_traits@D@std@@@std@@AEBN_N@Z 00000001800068e0 f i Gaussian.obj
 0001:00005960       ??$construct@PEADAEAPEAD@?$allocator@D@std@@QEAAXPEAPEADAEAPEAD@Z 0000000180006960 f i Gaussian.obj
 0001:00005990       ??$?0V?$Op@V?$Mat@N@arma@@Vop_htrans@2@@arma@@V?$Mat@N@1@Vglue_times@1@@?$Mat@N@arma@@QEAA@AEBV?$Glue@V?$Op@V?$Mat@N@arma@@Vop_htrans@2@@arma@@V?$Mat@N@2@Vglue_times@2@@1@@Z 0000000180006990 f i Gaussian.obj
 0001:000059c0       ??$?0V?$eOp@V?$Col@N@arma@@Veop_scalar_times@2@@arma@@V?$Op@V?$Col@N@arma@@Vop_htrans@2@@1@Vglue_times@1@@?$Mat@N@arma@@QEAA@AEBV?$Glue@V?$eOp@V?$Col@N@arma@@Veop_scalar_times@2@@arma@@V?$Op@V?$Col@N@arma@@Vop_htrans@2@@2@Vglue_times@2@@1@@Z 00000001800069c0 f i Gaussian.obj
 0001:000059f0       ?get_aligned_ea@?$Proxy@V?$eOp@V?$Col@N@arma@@Veop_scalar_minus_pre@2@@arma@@@arma@@QEBAAEBV?$eOp@V?$Col@N@arma@@Veop_scalar_minus_pre@2@@2@XZ 00000001800069f0 f i Gaussian.obj
 0001:000059f0       ?get_aligned_ea@?$Proxy@V?$eOp@V?$Row@N@arma@@Veop_scalar_minus_post@2@@arma@@@arma@@QEBAAEBV?$eOp@V?$Row@N@arma@@Veop_scalar_minus_post@2@@2@XZ 00000001800069f0 f i GibbsSampler.obj
 0001:000059f0       ?get_aligned_ea@?$Proxy@V?$eOp@V?$Mat@N@arma@@Veop_scalar_times@2@@arma@@@arma@@QEBAAEBV?$eOp@V?$Mat@N@arma@@Veop_scalar_times@2@@2@XZ 00000001800069f0 f i Gaussian.obj
 0001:000059f0       ??D?$_String_const_iterator@V?$_String_val@U?$_Simple_types@D@std@@@std@@@std@@QEBAAEBDXZ 00000001800069f0 f i GibbsSampler.obj
 0001:000059f0       ?get_ea@?$Proxy@V?$eOp@V?$Col@N@arma@@Veop_scalar_minus_pre@2@@arma@@@arma@@QEBAAEBV?$eOp@V?$Col@N@arma@@Veop_scalar_minus_pre@2@@2@XZ 00000001800069f0 f i Gaussian.obj
 0001:000059f0       ?get_ea@?$Proxy@V?$eOp@V?$Row@N@arma@@Veop_scalar_minus_post@2@@arma@@@arma@@QEBAAEBV?$eOp@V?$Row@N@arma@@Veop_scalar_minus_post@2@@2@XZ 00000001800069f0 f i GibbsSampler.obj
 0001:000059f0       ?get_ea@?$Proxy@V?$eOp@V?$Op@V?$Mat@N@arma@@Vop_diagvec@2@@arma@@Veop_log@2@@arma@@@arma@@QEBAAEBV?$eOp@V?$Op@V?$Mat@N@arma@@Vop_diagvec@2@@arma@@Veop_log@2@@2@XZ 00000001800069f0 f i Gaussian.obj
 0001:000059f0       ?get_aligned_ea@?$Proxy@V?$Row@N@arma@@@arma@@QEBAAEBV?$Row@N@2@XZ 00000001800069f0 f i GibbsSampler.obj
 0001:000059f0       ?get_ea@?$Proxy@V?$eOp@V?$Mat@N@arma@@Veop_scalar_times@2@@arma@@@arma@@QEBAAEBV?$eOp@V?$Mat@N@arma@@Veop_scalar_times@2@@2@XZ 00000001800069f0 f i Gaussian.obj
 0001:000059f0       ?get_aligned_ea@?$Proxy@V?$Col@N@arma@@@arma@@QEBAAEBV?$Col@N@2@XZ 00000001800069f0 f i Gaussian.obj
 0001:00005a00       ?get_n_elem@?$Proxy@V?$eOp@V?$Op@V?$Mat@N@arma@@Vop_diagvec@2@@arma@@Veop_log@2@@arma@@@arma@@QEBAIXZ 0000000180006a00 f i Gaussian.obj
 0001:00005a10       ?get_n_cols@?$Proxy@V?$Row@N@arma@@@arma@@QEBAIXZ 0000000180006a10 f i GibbsSampler.obj
 0001:00005a10       ?get_n_cols@?$Proxy@V?$Mat@N@arma@@@arma@@QEBAIXZ 0000000180006a10 f i Gaussian.obj
 0001:00005a20       ?is_aligned@?$Proxy@V?$eOp@V?$Col@N@arma@@Veop_scalar_minus_pre@2@@arma@@@arma@@QEBA_NXZ 0000000180006a20 f i Gaussian.obj
 0001:00005a20       ?is_aligned@?$Proxy@V?$eOp@V?$Mat@N@arma@@Veop_scalar_times@2@@arma@@@arma@@QEBA_NXZ 0000000180006a20 f i Gaussian.obj
 0001:00005a20       ?is_aligned@?$Proxy@V?$eOp@V?$Row@N@arma@@Veop_scalar_minus_post@2@@arma@@@arma@@QEBA_NXZ 0000000180006a20 f i GibbsSampler.obj
 0001:00005a30       ?get_ea@?$Proxy@V?$Col@N@arma@@@arma@@QEBAPEBNXZ 0000000180006a30 f i Gaussian.obj
 0001:00005a30       ?get_ea@?$Proxy@V?$Row@N@arma@@@arma@@QEBAPEBNXZ 0000000180006a30 f i GibbsSampler.obj
 0001:00005a30       ?get_ea@?$Proxy@V?$Mat@N@arma@@@arma@@QEBAPEBNXZ 0000000180006a30 f i Gaussian.obj
 0001:00005a40       ??A?$Mat@N@arma@@QEBAAEBNI@Z 0000000180006a40 f i Gaussian.obj
 0001:00005a50       ?colptr@?$Mat@N@arma@@QEAAPEANI@Z 0000000180006a50 f i Gaussian.obj
 0001:00005a70       ??0?$diagview@N@arma@@IEAA@AEBV?$Mat@N@1@III@Z 0000000180006a70 f i Gaussian.obj
 0001:00005a90       ??A?$eOp@V?$Col@N@arma@@Veop_scalar_minus_pre@2@@arma@@QEBANI@Z 0000000180006a90 f i Gaussian.obj
 0001:00005ab0       ?at_alt@?$eOp@V?$Col@N@arma@@Veop_scalar_minus_pre@2@@arma@@QEBANI@Z 0000000180006ab0 f i Gaussian.obj
 0001:00005ad0       ?get_n_elem@?$eOp@V?$eOp@V?$Col@N@arma@@Veop_scalar_minus_pre@2@@arma@@Veop_scalar_div_post@2@@arma@@QEBAIXZ 0000000180006ad0 f i Gaussian.obj
 0001:00005ad0       ?get_n_elem@?$eGlue@V?$eOp@V?$Mat@N@arma@@Veop_scalar_times@2@@arma@@V?$Glue@V?$eOp@V?$Col@N@arma@@Veop_scalar_times@2@@arma@@V?$Op@V?$Col@N@arma@@Vop_htrans@2@@2@Vglue_times@2@@2@Veglue_plus@2@@arma@@QEBAIXZ 0000000180006ad0 f i Gaussian.obj
 0001:00005ad0       ?get_n_elem@?$eOp@V?$eOp@V?$Row@N@arma@@Veop_scalar_minus_post@2@@arma@@Veop_exp@2@@arma@@QEBAIXZ 0000000180006ad0 f i GibbsSampler.obj
 0001:00005ae0       ?get_n_elem@?$eOp@V?$Row@N@arma@@Veop_scalar_div_post@2@@arma@@QEBAIXZ 0000000180006ae0 f i GibbsSampler.obj
 0001:00005ae0       ?get_n_elem@?$eOp@V?$Col@N@arma@@Veop_scalar_div_post@2@@arma@@QEBAIXZ 0000000180006ae0 f i Gaussian.obj
 0001:00005ae0       ?get_n_elem@?$eOp@V?$Col@N@arma@@Veop_scalar_minus_pre@2@@arma@@QEBAIXZ 0000000180006ae0 f i Gaussian.obj
 0001:00005ae0       ?get_n_elem@?$eOp@V?$Row@N@arma@@Veop_scalar_minus_post@2@@arma@@QEBAIXZ 0000000180006ae0 f i GibbsSampler.obj
 0001:00005ae0       ?get_n_elem@?$eGlue@V?$Col@N@arma@@V12@Veglue_plus@2@@arma@@QEBAIXZ 0000000180006ae0 f i Gaussian.obj
 0001:00005ae0       ?get_n_elem@?$eGlue@V?$Col@N@arma@@V12@Veglue_minus@2@@arma@@QEBAIXZ 0000000180006ae0 f i Gaussian.obj
 0001:00005ae0       ?get_n_elem@?$eOp@V?$Col@N@arma@@Veop_scalar_times@2@@arma@@QEBAIXZ 0000000180006ae0 f i Gaussian.obj
 0001:00005ae0       ?get_n_elem@?$eOp@V?$Mat@N@arma@@Veop_scalar_times@2@@arma@@QEBAIXZ 0000000180006ae0 f i Gaussian.obj
 0001:00005af0       ?get_n_elem@?$eOp@V?$Op@V?$Mat@N@arma@@Vop_diagvec@2@@arma@@Veop_log@2@@arma@@QEBAIXZ 0000000180006af0 f i Gaussian.obj
 0001:00005b00       ??A?$eOp@V?$Op@V?$Mat@N@arma@@Vop_diagvec@2@@arma@@Veop_log@2@@arma@@QEBANI@Z 0000000180006b00 f i Gaussian.obj
 0001:00005b80       ??$accumulate@N@arrayops@arma@@SANPEBNI@Z 0000000180006b80 f i Gaussian.obj
 0001:00005bd0       ??$?4V?$eOp@V?$Mat@N@arma@@Veop_scalar_times@2@@arma@@V?$Glue@V?$eOp@V?$Col@N@arma@@Veop_scalar_times@2@@arma@@V?$Op@V?$Col@N@arma@@Vop_htrans@2@@2@Vglue_times@2@@1@Veglue_plus@1@@?$Mat@N@arma@@QEAAAEBV01@AEBV?$eGlue@V?$eOp@V?$Mat@N@arma@@Veop_scalar_times@2@@arma@@V?$Glue@V?$eOp@V?$Col@N@arma@@Veop_scalar_times@2@@arma@@V?$Op@V?$Col@N@arma@@Vop_htrans@2@@2@Vglue_times@2@@2@Veglue_plus@2@@1@@Z 0000000180006bd0 f i Gaussian.obj
 0001:00005c20       ??$potrf@N@lapack@arma@@YAXPEADPEAHPEAN11@Z 0000000180006c20 f i Gaussian.obj
 0001:00005c30       ??$process@N@?$eop_core@Veop_scalar_times@arma@@@arma@@SANNN@Z 0000000180006c30 f i Gaussian.obj
 0001:00005c40       ??$leq@N@?$cond_rel@$00@arma@@SA_NNN@Z 0000000180006c40 f i Gaussian.obj
 0001:00005c50       ??$gt@N@?$cond_rel@$00@arma@@SA_NNN@Z 0000000180006c50 f i Gaussian.obj
 0001:00005c60       ??$lt@N@?$cond_rel@$00@arma@@SA_NNN@Z 0000000180006c60 f i Gaussian.obj
 0001:00005c70       ??$geq@N@?$cond_rel@$00@arma@@SA_NNN@Z 0000000180006c70 f i Gaussian.obj
 0001:00005c80       ??$print_elem_zero@N@arma_ostream@arma@@SAXAEAV?$basic_ostream@DU?$char_traits@D@std@@@std@@_N@Z 0000000180006c80 f i Gaussian.obj
 0001:00005d40       ??$apply@V?$Op@V?$Mat@N@arma@@Vop_htrans@2@@arma@@V?$Mat@N@2@@glue_times@arma@@SAXAEAV?$Mat@N@1@AEBV?$Glue@V?$Op@V?$Mat@N@arma@@Vop_htrans@2@@arma@@V?$Mat@N@2@Vglue_times@2@@1@@Z 0000000180006d40 f i Gaussian.obj
 0001:00005d60       ??$apply@V?$eOp@V?$Col@N@arma@@Veop_scalar_times@2@@arma@@V?$Op@V?$Col@N@arma@@Vop_htrans@2@@2@@glue_times@arma@@SAXAEAV?$Mat@N@1@AEBV?$Glue@V?$eOp@V?$Col@N@arma@@Veop_scalar_times@2@@arma@@V?$Op@V?$Col@N@arma@@Vop_htrans@2@@2@Vglue_times@2@@1@@Z 0000000180006d60 f i Gaussian.obj
 0001:00005d80       ??0bad_alloc@std@@QEAA@AEBV01@@Z 0000000180006d80 f i Gaussian.obj
 0001:00005db0       ??A?$Proxy_diagvec_mat@V?$Op@V?$Mat@N@arma@@Vop_diagvec@2@@arma@@@arma@@QEBANI@Z 0000000180006db0 f i Gaussian.obj
 0001:00005dc0       ?get_n_elem@?$Proxy_diagvec_mat@V?$Op@V?$Mat@N@arma@@Vop_diagvec@2@@arma@@@arma@@QEBAIXZ 0000000180006dc0 f i Gaussian.obj
 0001:00005dd0       ?get_n_elem@?$Proxy@V?$eOp@V?$Row@N@arma@@Veop_scalar_minus_post@2@@arma@@@arma@@QEBAIXZ 0000000180006dd0 f i GibbsSampler.obj
 0001:00005dd0       ?get_n_elem@?$Proxy@V?$eOp@V?$Col@N@arma@@Veop_scalar_minus_pre@2@@arma@@@arma@@QEBAIXZ 0000000180006dd0 f i Gaussian.obj
 0001:00005dd0       ?get_n_elem@?$Proxy@V?$eOp@V?$Mat@N@arma@@Veop_scalar_times@2@@arma@@@arma@@QEBAIXZ 0000000180006dd0 f i Gaussian.obj
 0001:00005de0       ?at_alt@?$Proxy@V?$Col@N@arma@@@arma@@QEBANI@Z 0000000180006de0 f i Gaussian.obj
 0001:00005de0       ?at_alt@?$Proxy@V?$Row@N@arma@@@arma@@QEBANI@Z 0000000180006de0 f i GibbsSampler.obj
 0001:00005de0       ?at_alt@?$Proxy@V?$Mat@N@arma@@@arma@@QEBANI@Z 0000000180006de0 f i Gaussian.obj
 0001:00005e00       ??A?$Proxy@V?$Row@N@arma@@@arma@@QEBANI@Z 0000000180006e00 f i GibbsSampler.obj
 0001:00005e00       ??A?$Proxy@V?$Mat@N@arma@@@arma@@QEBANI@Z 0000000180006e00 f i Gaussian.obj
 0001:00005e00       ??A?$Proxy@V?$Col@N@arma@@@arma@@QEBANI@Z 0000000180006e00 f i Gaussian.obj
 0001:00005e20       ?get_n_elem@?$Proxy@V?$Row@N@arma@@@arma@@QEBAIXZ 0000000180006e20 f i GibbsSampler.obj
 0001:00005e20       ?get_n_elem@?$Proxy@V?$Mat@N@arma@@@arma@@QEBAIXZ 0000000180006e20 f i Gaussian.obj
 0001:00005e20       ?get_n_elem@?$Proxy@V?$Col@N@arma@@@arma@@QEBAIXZ 0000000180006e20 f i Gaussian.obj
 0001:00005e30       ??A?$diagview@N@arma@@QEBANI@Z 0000000180006e30 f i Gaussian.obj
 0001:00005e50       ?get_n_cols@?$eGlue@V?$eOp@V?$Mat@N@arma@@Veop_scalar_times@2@@arma@@V?$Glue@V?$eOp@V?$Col@N@arma@@Veop_scalar_times@2@@arma@@V?$Op@V?$Col@N@arma@@Vop_htrans@2@@2@Vglue_times@2@@2@Veglue_plus@2@@arma@@QEBAIXZ 0000000180006e50 f i Gaussian.obj
 0001:00005e50       ?get_n_cols@?$eOp@V?$eOp@V?$Row@N@arma@@Veop_scalar_minus_post@2@@arma@@Veop_exp@2@@arma@@QEBAIXZ 0000000180006e50 f i GibbsSampler.obj
 0001:00005e60       ??$process@N@?$eop_core@Veop_scalar_minus_pre@arma@@@arma@@SANNN@Z 0000000180006e60 f i Gaussian.obj
 0001:00005e70       ??$process@N@?$eop_core@Veop_log@arma@@@arma@@SANNN@Z 0000000180006e70 f i Gaussian.obj
 0001:00005e80       ??$apply@V?$Mat@N@arma@@V?$eOp@V?$Mat@N@arma@@Veop_scalar_times@2@@2@V?$Glue@V?$eOp@V?$Col@N@arma@@Veop_scalar_times@2@@arma@@V?$Op@V?$Col@N@arma@@Vop_htrans@2@@2@Vglue_times@2@@2@@?$eglue_core@Veglue_plus@arma@@@arma@@SAXAEAV?$Mat@N@1@AEBV?$eGlue@V?$eOp@V?$Mat@N@arma@@Veop_scalar_times@2@@arma@@V?$Glue@V?$eOp@V?$Col@N@arma@@Veop_scalar_times@2@@arma@@V?$Op@V?$Col@N@arma@@Vop_htrans@2@@2@Vglue_times@2@@2@Veglue_plus@2@@1@@Z 0000000180006e80 f i Gaussian.obj
 0001:00005fd0       ??$apply@V?$Op@V?$Mat@N@arma@@Vop_htrans@2@@arma@@V?$Mat@N@2@@?$glue_times_redirect@$01@arma@@SAXAEAV?$Mat@N@1@AEBV?$Glue@V?$Op@V?$Mat@N@arma@@Vop_htrans@2@@arma@@V?$Mat@N@2@Vglue_times@2@@1@@Z 0000000180006fd0 f i Gaussian.obj
 0001:00005fe0       ??$apply@V?$eOp@V?$Col@N@arma@@Veop_scalar_times@2@@arma@@V?$Op@V?$Col@N@arma@@Vop_htrans@2@@2@@?$glue_times_redirect@$01@arma@@SAXAEAV?$Mat@N@1@AEBV?$Glue@V?$eOp@V?$Col@N@arma@@Veop_scalar_times@2@@arma@@V?$Op@V?$Col@N@arma@@Vop_htrans@2@@2@Vglue_times@2@@1@@Z 0000000180006fe0 f i Gaussian.obj
 0001:00005ff0       ??A?$eOp@V?$Mat@N@arma@@Veop_scalar_times@2@@arma@@QEBANI@Z 0000000180006ff0 f i Gaussian.obj
 0001:00006010       ?at_alt@?$eOp@V?$Mat@N@arma@@Veop_scalar_times@2@@arma@@QEBANI@Z 0000000180007010 f i Gaussian.obj
 0001:00006030       ??$log@N@eop_aux@arma@@SANN@Z 0000000180007030 f i Gaussian.obj
 0001:00006040       ??$apply@V?$Op@V?$Mat@N@arma@@Vop_htrans@2@@arma@@V?$Mat@N@2@@?$glue_times_redirect2_helper@$00@arma@@SAXAEAV?$Mat@N@1@AEBV?$Glue@V?$Op@V?$Mat@N@arma@@Vop_htrans@2@@arma@@V?$Mat@N@2@Vglue_times@2@@1@@Z 0000000180007040 f i Gaussian.obj
 0001:00006050       ??$apply@V?$eOp@V?$Col@N@arma@@Veop_scalar_times@2@@arma@@V?$Op@V?$Col@N@arma@@Vop_htrans@2@@2@@?$glue_times_redirect2_helper@$00@arma@@SAXAEAV?$Mat@N@1@AEBV?$Glue@V?$eOp@V?$Col@N@arma@@Veop_scalar_times@2@@arma@@V?$Op@V?$Col@N@arma@@Vop_htrans@2@@2@Vglue_times@2@@1@@Z 0000000180007050 f i Gaussian.obj
 0001:00006060       ??1?$unwrap_check@V?$Mat@N@arma@@@arma@@QEAA@XZ 0000000180007060 f i Gaussian.obj
 0001:00006090       ??$apply@V?$Op@V?$Mat@N@arma@@Vop_htrans@2@@arma@@V?$Mat@N@2@@?$glue_times_redirect2_helper@$0A@@arma@@SAXAEAV?$Mat@N@1@AEBV?$Glue@V?$Op@V?$Mat@N@arma@@Vop_htrans@2@@arma@@V?$Mat@N@2@Vglue_times@2@@1@@Z 0000000180007090 f i Gaussian.obj
 0001:00006160       ??$apply@V?$eOp@V?$Col@N@arma@@Veop_scalar_times@2@@arma@@V?$Op@V?$Col@N@arma@@Vop_htrans@2@@2@@?$glue_times_redirect2_helper@$0A@@arma@@SAXAEAV?$Mat@N@1@AEBV?$Glue@V?$eOp@V?$Col@N@arma@@Veop_scalar_times@2@@arma@@V?$Op@V?$Col@N@arma@@Vop_htrans@2@@2@Vglue_times@2@@1@@Z 0000000180007160 f i Gaussian.obj
 0001:00006240       ?is_alias@?$partial_unwrap@V?$Op@V?$Col@N@arma@@Vop_htrans@2@@arma@@@arma@@QEBA_NAEBV?$Mat@N@2@@Z 0000000180007240 f i Gaussian.obj
 0001:00006240       ?is_alias@?$partial_unwrap@V?$Mat@N@arma@@@arma@@QEBA_NAEBV?$Mat@N@2@@Z 0000000180007240 f i Gaussian.obj
 0001:00006240       ?is_alias@?$partial_unwrap@V?$Op@V?$Mat@N@arma@@Vop_htrans@2@@arma@@@arma@@QEBA_NAEBV?$Mat@N@2@@Z 0000000180007240 f i Gaussian.obj
 0001:00006250       ?get_val@?$partial_unwrap@V?$Op@V?$Col@N@arma@@Vop_htrans@2@@arma@@@arma@@QEBANXZ 0000000180007250 f i Gaussian.obj
 0001:00006260       ??0?$partial_unwrap@V?$Op@V?$Mat@N@arma@@Vop_htrans@2@@arma@@@arma@@QEAA@AEBV?$Op@V?$Mat@N@arma@@Vop_htrans@2@@1@@Z 0000000180007260 f i Gaussian.obj
 0001:00006260       ??0?$partial_unwrap@V?$Op@V?$Col@N@arma@@Vop_htrans@2@@arma@@@arma@@QEAA@AEBV?$Op@V?$Col@N@arma@@Vop_htrans@2@@1@@Z 0000000180007260 f i Gaussian.obj
 0001:00006270       ?is_alias@?$partial_unwrap@V?$eOp@V?$Col@N@arma@@Veop_scalar_times@2@@arma@@@arma@@QEBA_NAEBV?$Mat@N@2@@Z 0000000180007270 f i Gaussian.obj
 0001:00006280       ?get_val@?$partial_unwrap@V?$eOp@V?$Col@N@arma@@Veop_scalar_times@2@@arma@@@arma@@QEBANXZ 0000000180007280 f i Gaussian.obj
 0001:00006290       ??0?$partial_unwrap@V?$eOp@V?$Col@N@arma@@Veop_scalar_times@2@@arma@@@arma@@QEAA@AEBV?$eOp@V?$Col@N@arma@@Veop_scalar_times@2@@1@@Z 0000000180007290 f i Gaussian.obj
 0001:000062b0       ??0?$Mat@N@arma@@QEAA@II@Z 00000001800072b0 f i Gaussian.obj
 0001:000062e0       ??$apply@N$00$0A@$0A@V?$Mat@N@arma@@V12@@glue_times@arma@@SAXAEAV?$Mat@N@1@AEBV21@1N@Z 00000001800072e0 f i Gaussian.obj
 0001:000063d0       ??$apply@N$0A@$00$00V?$Col@N@arma@@V12@@glue_times@arma@@SAXAEAV?$Mat@N@1@AEBV?$Col@N@1@1N@Z 00000001800073d0 f i Gaussian.obj
 0001:000064a0       ?zeros@?$Mat@N@arma@@QEAAAEBV12@XZ 00000001800074a0 f i Gaussian.obj
 0001:000064d0       ??$apply@V?$Mat@N@arma@@@?$gemv@$00$0A@$0A@@arma@@SAXPEANAEBV?$Mat@N@1@PEBNNN@Z 00000001800074d0 f i Gaussian.obj
 0001:000064e0       ??$apply@V?$Mat@N@arma@@@?$syrk@$00$0A@$0A@@arma@@SAXAEAV?$Mat@N@1@AEBV21@NN@Z 00000001800074e0 f i Gaussian.obj
 0001:000064f0       ??$apply@V?$Mat@N@arma@@V12@@?$gemm@$00$0A@$0A@$0A@@arma@@SAXAEAV?$Mat@N@1@AEBV21@1NN@Z 00000001800074f0 f i Gaussian.obj
 0001:00006500       ??$apply@V?$Col@N@arma@@@?$gemv@$0A@$00$0A@@arma@@SAXPEANAEBV?$Col@N@1@PEBNNN@Z 0000000180007500 f i Gaussian.obj
 0001:00006510       ??$apply@V?$Col@N@arma@@@?$syrk@$0A@$00$0A@@arma@@SAXAEAV?$Mat@N@1@AEBV?$Col@N@1@NN@Z 0000000180007510 f i Gaussian.obj
 0001:00006520       ??$apply@V?$Col@N@arma@@V12@@?$gemm@$0A@$00$00$0A@@arma@@SAXAEAV?$Mat@N@1@AEBV?$Col@N@1@1NN@Z 0000000180007520 f i Gaussian.obj
 0001:00006530       ?colptr@?$Mat@N@arma@@QEBAPEBNI@Z 0000000180007530 f i Gaussian.obj
 0001:00006540       ??$fill_zeros@N@arrayops@arma@@SAXPEANI@Z 0000000180007540 f i Gaussian.obj
 0001:00006550       ??$is_alias@N@?$Proxy@V?$Mat@N@arma@@@arma@@QEBA_NAEBV?$Mat@N@1@@Z 0000000180007550 f i Gaussian.obj
 0001:00006550       ??$is_alias@N@?$quasi_unwrap@V?$Row@N@arma@@@arma@@QEBA_NAEBV?$Mat@N@1@@Z 0000000180007550 f i GibbsSampler.obj
 0001:00006560       ??$direct_dot_arma@N@op_dot@arma@@SANIQEBN0@Z 0000000180007560 f i Gaussian.obj
 0001:000065d0       ??$apply_blas_type@NV?$Mat@N@arma@@@?$gemv@$00$0A@$0A@@arma@@SAXPEANAEBV?$Mat@N@1@PEBNNN@Z 00000001800075d0 f i Gaussian.obj
 0001:00006690       ??$apply_blas_type@NV?$Mat@N@arma@@@?$syrk@$00$0A@$0A@@arma@@SAXAEAV?$Mat@N@1@AEBV21@NN@Z 0000000180007690 f i Gaussian.obj
 0001:00006770       ??$apply_blas_type@NV?$Mat@N@arma@@V12@@?$gemm@$00$0A@$0A@$0A@@arma@@SAXAEAV?$Mat@N@1@AEBV21@1NN@Z 0000000180007770 f i Gaussian.obj
 0001:00006880       ??$apply_blas_type@NV?$Col@N@arma@@@?$gemv@$0A@$00$0A@@arma@@SAXPEANAEBV?$Col@N@1@PEBNNN@Z 0000000180007880 f i Gaussian.obj
 0001:00006930       ??$apply_blas_type@NV?$Col@N@arma@@@?$syrk@$0A@$00$0A@@arma@@SAXAEAV?$Mat@N@1@AEBV?$Col@N@1@NN@Z 0000000180007930 f i Gaussian.obj
 0001:00006a00       ??$apply_blas_type@NV?$Col@N@arma@@V12@@?$gemm@$0A@$00$00$0A@@arma@@SAXAEAV?$Mat@N@1@AEBV?$Col@N@1@1NN@Z 0000000180007a00 f i Gaussian.obj
 0001:00006b60       ?is_vec@?$Mat@N@arma@@QEBA_NXZ 0000000180007b60 f i Gaussian.obj
 0001:00006b80       ??$apply@NV?$Mat@N@arma@@@?$gemv_emul_tinysq@$00$0A@$0A@@arma@@SAXPEANAEBV?$Mat@N@1@PEBNNN@Z 0000000180007b80 f i Gaussian.obj
 0001:00006db0       ??$gemv@N@blas@arma@@YAXPEBDPEBH1PEBN21212PEAN1@Z 0000000180007db0 f i Gaussian.obj
 0001:00006e20       ??$gemm@N@blas@arma@@YAXPEBD0PEBH11PEBN21212PEAN1@Z 0000000180007e20 f i Gaussian.obj
 0001:00006ea0       ??$apply@NV?$Mat@N@arma@@@?$syrk_vec@$00$0A@$0A@@arma@@SAXAEAV?$Mat@N@1@AEBV21@NN@Z 0000000180007ea0 f i Gaussian.obj
 0001:00007000       ??$apply@NV?$Mat@N@arma@@@?$syrk_emul@$00$0A@$0A@@arma@@SAXAEAV?$Mat@N@1@AEBV21@NN@Z 0000000180008000 f i Gaussian.obj
 0001:000070b0       ??$syrk@N@blas@arma@@YAXPEBD0PEBH1PEBN212PEAN1@Z 00000001800080b0 f i Gaussian.obj
 0001:000070c0       ??$inplace_copy_upper_tri_to_lower_tri@N@syrk_helper@arma@@SAXAEAV?$Mat@N@1@@Z 00000001800080c0 f i Gaussian.obj
 0001:00007170       ??$apply@NV?$Mat@N@arma@@V12@@?$gemm_emul_tinysq@$00$0A@$0A@@arma@@SAXAEAV?$Mat@N@1@AEBV21@1NN@Z 0000000180008170 f i Gaussian.obj
 0001:00007260       ??$apply@NV?$Mat@N@arma@@@?$syrk_emul@$00$00$0A@@arma@@SAXAEAV?$Mat@N@1@AEBV21@NN@Z 0000000180008260 f i Gaussian.obj
 0001:00007310       ??$apply_mat_noalias_tinysq@NV?$Col@N@arma@@@op_strans@arma@@SAXAEAV?$Mat@N@1@AEBV?$Col@N@1@@Z 0000000180008310 f i Gaussian.obj
 0001:00007450       ??$apply@NV?$Col@N@arma@@@?$gemv_emul_tinysq@$0A@$00$0A@@arma@@SAXPEANAEBV?$Col@N@1@PEBNNN@Z 0000000180008450 f i Gaussian.obj
 0001:000076a0       ??$apply@NV?$Col@N@arma@@V?$Mat@N@2@@?$gemm_emul_tinysq@$0A@$00$0A@@arma@@SAXAEAV?$Mat@N@1@AEBV?$Col@N@1@AEBV21@NN@Z 00000001800086a0 f i Gaussian.obj
 0001:000077a0       ??$apply@NV?$Col@N@arma@@@?$syrk_vec@$0A@$00$0A@@arma@@SAXAEAV?$Mat@N@1@AEBV?$Col@N@1@NN@Z 00000001800087a0 f i Gaussian.obj
 0001:00007920       ??$apply@NV?$Col@N@arma@@@?$syrk_emul@$0A@$00$0A@@arma@@SAXAEAV?$Mat@N@1@AEBV?$Col@N@1@NN@Z 0000000180008920 f i Gaussian.obj
 0001:000079b0       ??$apply_mat_noalias@NV?$Col@N@arma@@@op_strans@arma@@SAXAEAV?$Mat@N@1@AEBV?$Col@N@1@@Z 00000001800089b0 f i Gaussian.obj
 0001:00007a00       ??$assign@N$0A@@?$gemv_emul_tinysq@$00$0A@$0A@@arma@@SAXPEANNNN@Z 0000000180008a00 f i Gaussian.obj
 0001:00007a10       ??$assign@N$00@?$gemv_emul_tinysq@$00$0A@$0A@@arma@@SAXPEANNNN@Z 0000000180008a10 f i Gaussian.obj
 0001:00007a20       ??$assign@N$01@?$gemv_emul_tinysq@$00$0A@$0A@@arma@@SAXPEANNNN@Z 0000000180008a20 f i Gaussian.obj
 0001:00007a30       ??$assign@N$02@?$gemv_emul_tinysq@$00$0A@$0A@@arma@@SAXPEANNNN@Z 0000000180008a30 f i Gaussian.obj
 0001:00007a40       ??$assign@N$0A@@?$gemv_emul_tinysq@$0A@$00$0A@@arma@@SAXPEANNNN@Z 0000000180008a40 f i Gaussian.obj
 0001:00007a50       ??$assign@N$00@?$gemv_emul_tinysq@$0A@$00$0A@@arma@@SAXPEANNNN@Z 0000000180008a50 f i Gaussian.obj
 0001:00007a60       ??$assign@N$01@?$gemv_emul_tinysq@$0A@$00$0A@@arma@@SAXPEANNNN@Z 0000000180008a60 f i Gaussian.obj
 0001:00007a70       ??$assign@N$02@?$gemv_emul_tinysq@$0A@$00$0A@@arma@@SAXPEANNNN@Z 0000000180008a70 f i Gaussian.obj
 0001:00007a80       ??$direct_dot@N@op_dot@arma@@SANIQEBN0@Z 0000000180008a80 f i Gaussian.obj
 0001:00007a90       ??$dot@N@blas@arma@@YANIPEBN0@Z 0000000180008a90 f i Gaussian.obj
 0001:00007ac4       ??_E?$basic_ostringstream@DU?$char_traits@D@std@@V?$allocator@D@2@@std@@$4PPPPPPPM@A@EAAPEAXI@Z 0000000180008ac4 f i Gaussian.obj
 0001:00007ad0       ?infinity@?$numeric_limits@N@std@@SANXZ 0000000180008ad0 f i GibbsSampler.obj
 0001:00007ae0       ?quiet_NaN@?$numeric_limits@N@std@@SANXZ 0000000180008ae0 f i GibbsSampler.obj
 0001:00007af0       ?assign@?$char_traits@D@std@@SAPEADQEAD_KD@Z 0000000180008af0 f i GibbsSampler.obj
 0001:00007b20       ??0bad_cast@std@@QEAA@XZ   0000000180008b20 f i GibbsSampler.obj
 0001:00007b50       ??1locale@std@@QEAA@XZ     0000000180008b50 f i GibbsSampler.obj
 0001:00007b90       ?_Getfacet@locale@std@@QEBAPEBVfacet@12@_K@Z 0000000180008b90 f i GibbsSampler.obj
 0001:00007c00       ??$_Fgetc@D@std@@YA_NAEADPEAU_iobuf@@@Z 0000000180008c00 f i GibbsSampler.obj
 0001:00007c30       ??$_Fputc@D@std@@YA_NDPEAU_iobuf@@@Z 0000000180008c30 f i GibbsSampler.obj
 0001:00007c50       ??$_Ungetc@D@std@@YA_NAEBDPEAU_iobuf@@@Z 0000000180008c50 f i GibbsSampler.obj
 0001:00007c70       ??0distr_param@arma@@QEAA@NN@Z 0000000180008c70 f i GibbsSampler.obj
 0001:00007c90       ?set_seed@arma_rng_cxx98@arma@@SAXI@Z 0000000180008c90 f i GibbsSampler.obj
 0001:00007ca0       ?randi_val@arma_rng_cxx98@arma@@SAHXZ 0000000180008ca0 f i GibbsSampler.obj
 0001:00007cc0       ?randu_val@arma_rng_cxx98@arma@@SANXZ 0000000180008cc0 f i GibbsSampler.obj
 0001:00007d00       ?randi_max_val@arma_rng_cxx98@arma@@SAHXZ 0000000180008d00 f i GibbsSampler.obj
 0001:00007d10       ?set_seed@arma_rng@arma@@SAXI@Z 0000000180008d10 f i GibbsSampler.obj
 0001:00007d20       ?set_seed_random@arma_rng@arma@@SAXXZ 0000000180008d20 f i GibbsSampler.obj
 0001:00007eb0       ??_D?$basic_ifstream@DU?$char_traits@D@std@@@std@@QEAAXXZ 0000000180008eb0 f i GibbsSampler.obj
 0001:00007ee0       ??0wall_clock@arma@@QEAA@XZ 0000000180008ee0 f i GibbsSampler.obj
 0001:00007ef0       ?tic@wall_clock@arma@@QEAAXXZ 0000000180008ef0 f i GibbsSampler.obj
 0001:00007f10       ?toc@wall_clock@arma@@QEAANXZ 0000000180008f10 f i GibbsSampler.obj
 0001:00007f50       ??0GibbsSampler@@QEAA@XZ   0000000180008f50 f   GibbsSampler.obj
 0001:00007fe0       ??1GibbsSampler@@QEAA@XZ   0000000180008fe0 f   GibbsSampler.obj
 0001:00008050       ?init@GibbsSampler@@QEAAXNNV?$Row@N@arma@@N0V?$field@V?$Mat@N@arma@@@3@0@Z 0000000180009050 f   GibbsSampler.obj
 0001:000086e0       ??4Gaussian@@QEAAAEAV0@AEBV0@@Z 00000001800096e0 f i GibbsSampler.obj
 0001:00008750       ?run@GibbsSampler@@QEAAXN@Z 0000000180009750 f   GibbsSampler.obj
 0001:00009130       ??B?$randu@N@arma_rng@arma@@QEAANXZ 000000018000a130 f i GibbsSampler.obj
 0001:00009140       ??0?$basic_string@DU?$char_traits@D@std@@V?$allocator@D@2@@std@@QEAA@_KD@Z 000000018000a140 f i GibbsSampler.obj
 0001:00009170       ??1?$basic_ifstream@DU?$char_traits@D@std@@@std@@UEAA@XZ 000000018000a170 f i GibbsSampler.obj
 0001:000091d0       ??0?$basic_ifstream@DU?$char_traits@D@std@@@std@@QEAA@PEBDHH@Z 000000018000a1d0 f i GibbsSampler.obj
 0001:00009290       ?imbue@?$basic_filebuf@DU?$char_traits@D@std@@@std@@MEAAXAEBVlocale@2@@Z 000000018000a290 f i GibbsSampler.obj
 0001:000092c0       ?sync@?$basic_filebuf@DU?$char_traits@D@std@@@std@@MEAAHXZ 000000018000a2c0 f i GibbsSampler.obj
 0001:00009330       ?setbuf@?$basic_filebuf@DU?$char_traits@D@std@@@std@@MEAAPEAV?$basic_streambuf@DU?$char_traits@D@std@@@2@PEAD_J@Z 000000018000a330 f i GibbsSampler.obj
 0001:00009390       ?seekpos@?$basic_filebuf@DU?$char_traits@D@std@@@std@@MEAA?AV?$fpos@U_Mbstatet@@@2@V32@H@Z 000000018000a390 f i GibbsSampler.obj
 0001:00009490       ?seekoff@?$basic_filebuf@DU?$char_traits@D@std@@@std@@MEAA?AV?$fpos@U_Mbstatet@@@2@_JHH@Z 000000018000a490 f i GibbsSampler.obj
 0001:00009560       ?uflow@?$basic_filebuf@DU?$char_traits@D@std@@@std@@MEAAHXZ 000000018000a560 f i GibbsSampler.obj
 0001:00009790       ?underflow@?$basic_filebuf@DU?$char_traits@D@std@@@std@@MEAAHXZ 000000018000a790 f i GibbsSampler.obj
 0001:00009820       ?pbackfail@?$basic_filebuf@DU?$char_traits@D@std@@@std@@MEAAHH@Z 000000018000a820 f i GibbsSampler.obj
 0001:00009970       ?overflow@?$basic_filebuf@DU?$char_traits@D@std@@@std@@MEAAHH@Z 000000018000a970 f i GibbsSampler.obj
 0001:00009bb0       ?_Unlock@?$basic_filebuf@DU?$char_traits@D@std@@@std@@UEAAXXZ 000000018000abb0 f i GibbsSampler.obj
 0001:00009bd0       ?_Lock@?$basic_filebuf@DU?$char_traits@D@std@@@std@@UEAAXXZ 000000018000abd0 f i GibbsSampler.obj
 0001:00009bf0       ??1?$basic_filebuf@DU?$char_traits@D@std@@@std@@UEAA@XZ 000000018000abf0 f i GibbsSampler.obj
 0001:00009c40       ??_G?$basic_ifstream@DU?$char_traits@D@std@@@std@@UEAAPEAXI@Z 000000018000ac40 f i GibbsSampler.obj
 0001:00009c40       ??_E?$basic_ifstream@DU?$char_traits@D@std@@@std@@UEAAPEAXI@Z 000000018000ac40 f i * CIL library *:* CIL module *
 0001:00009c80       ??_G?$basic_filebuf@DU?$char_traits@D@std@@@std@@UEAAPEAXI@Z 000000018000ac80 f i GibbsSampler.obj
 0001:00009c80       ??_E?$basic_filebuf@DU?$char_traits@D@std@@@std@@UEAAPEAXI@Z 000000018000ac80 f i * CIL library *:* CIL module *
 0001:00009cc0       ??D?$_String_iterator@V?$_String_val@U?$_Simple_types@D@std@@@std@@@std@@QEBAAEADXZ 000000018000acc0 f i GibbsSampler.obj
 0001:00009cd0       ?begin@?$basic_string@DU?$char_traits@D@std@@V?$allocator@D@2@@std@@QEAA?AV?$_String_iterator@V?$_String_val@U?$_Simple_types@D@std@@@std@@@2@XZ 000000018000acd0 f i GibbsSampler.obj
 0001:00009d10       ?assign@?$basic_string@DU?$char_traits@D@std@@V?$allocator@D@2@@std@@QEAAAEAV12@_KD@Z 000000018000ad10 f i GibbsSampler.obj
 0001:00009d50       ?append@?$basic_string@DU?$char_traits@D@std@@V?$allocator@D@2@@std@@QEAAAEAV12@_KD@Z 000000018000ad50 f i GibbsSampler.obj
 0001:00009de0       ?_Set_back@?$basic_filebuf@DU?$char_traits@D@std@@@std@@AEAAXXZ 000000018000ade0 f i GibbsSampler.obj
 0001:00009e40       ?_Reset_back@?$basic_filebuf@DU?$char_traits@D@std@@@std@@AEAAXXZ 000000018000ae40 f i GibbsSampler.obj
 0001:00009e80       ?_Initcvt@?$basic_filebuf@DU?$char_traits@D@std@@@std@@IEAAXPEBV?$codecvt@DDU_Mbstatet@@@2@@Z 000000018000ae80 f i GibbsSampler.obj
 0001:00009ed0       ?_Endwrite@?$basic_filebuf@DU?$char_traits@D@std@@@std@@IEAA_NXZ 000000018000aed0 f i GibbsSampler.obj
 0001:0000a060       ?_Init@?$basic_filebuf@DU?$char_traits@D@std@@@std@@IEAAXPEAU_iobuf@@W4_Initfl@12@@Z 000000018000b060 f i GibbsSampler.obj
 0001:0000a100       ?close@?$basic_filebuf@DU?$char_traits@D@std@@@std@@QEAAPEAV12@XZ 000000018000b100 f i GibbsSampler.obj
 0001:0000a170       ?open@?$basic_filebuf@DU?$char_traits@D@std@@@std@@QEAAPEAV12@PEBDHH@Z 000000018000b170 f i GibbsSampler.obj
 0001:0000a200       ??0?$basic_filebuf@DU?$char_traits@D@std@@@std@@QEAA@PEAU_iobuf@@@Z 000000018000b200 f i GibbsSampler.obj
 0001:0000a240       ?seekpos@?$fpos@U_Mbstatet@@@std@@QEBA_JXZ 000000018000b240 f i GibbsSampler.obj
 0001:0000a250       ?state@?$fpos@U_Mbstatet@@@std@@QEBA?AU_Mbstatet@@XZ 000000018000b250 f i GibbsSampler.obj
 0001:0000a260       ??0?$fpos@U_Mbstatet@@@std@@QEAA@U_Mbstatet@@_J@Z 000000018000b260 f i GibbsSampler.obj
 0001:0000a280       ??0?$_String_iterator@V?$_String_val@U?$_Simple_types@D@std@@@std@@@std@@QEAA@PEADPEBU_Container_base0@1@@Z 000000018000b280 f i GibbsSampler.obj
 0001:0000a2a0       ?address@?$_Wrap_alloc@V?$allocator@D@std@@@std@@QEBAPEADAEAD@Z 000000018000b2a0 f i GibbsSampler.obj
 0001:0000a2b0       ?_Chassign@?$basic_string@DU?$char_traits@D@std@@V?$allocator@D@2@@std@@QEAAX_K0D@Z 000000018000b2b0 f i GibbsSampler.obj
 0001:0000a2f0       ?col@?$Mat@N@arma@@QEAA?AV?$subview_col@N@2@I@Z 000000018000b2f0 f i GibbsSampler.obj
 0001:0000a320       ?zeros@?$Mat@N@arma@@QEAAAEBV12@I@Z 000000018000b320 f i GibbsSampler.obj
 0001:0000a340       ??4?$Row@N@arma@@QEAAAEBV01@AEBV01@@Z 000000018000b340 f i GibbsSampler.obj
 0001:0000a340       ??4?$Col@N@arma@@QEAAAEBV01@AEBV01@@Z 000000018000b340 f i GibbsSampler.obj
 0001:0000a360       ??0?$Row@N@arma@@QEAA@XZ   000000018000b360 f i GibbsSampler.obj
 0001:0000a390       ??0?$Gen@V?$Col@N@arma@@Vgen_randu@2@@arma@@QEAA@II@Z 000000018000b390 f i GibbsSampler.obj
 0001:0000a3b0       ??1?$field@VGaussian@@@arma@@QEAA@XZ 000000018000b3b0 f i GibbsSampler.obj
 0001:0000a3f0       ??0?$field@VGaussian@@@arma@@QEAA@II@Z 000000018000b3f0 f i GibbsSampler.obj
 0001:0000a420       ??4?$field@VGaussian@@@arma@@QEAAAEBV01@AEBV01@@Z 000000018000b420 f i GibbsSampler.obj
 0001:0000a440       ??R?$field@V?$Mat@N@arma@@@arma@@QEAAAEAV?$Mat@N@1@I@Z 000000018000b440 f i GibbsSampler.obj
 0001:0000a440       ??R?$field@V?$Row@N@arma@@@arma@@QEAAAEAV?$Row@N@1@I@Z 000000018000b440 f i GibbsSampler.obj
 0001:0000a440       ??R?$field@V?$field@VGaussian@@@arma@@@arma@@QEAAAEAV?$field@VGaussian@@@1@I@Z 000000018000b440 f i GibbsSampler.obj
 0001:0000a440       ??R?$field@V?$Mat@N@arma@@@arma@@QEAAAEAV?$Mat@N@1@II@Z 000000018000b440 f i nCRP-Gibbs-Sampler.obj
 0001:0000a440       ??R?$field@VGaussian@@@arma@@QEAAAEAVGaussian@@I@Z 000000018000b440 f i GibbsSampler.obj
 0001:0000a440       ??R?$field@V?$field@V?$Row@N@arma@@@arma@@@arma@@QEAAAEAV?$field@V?$Row@N@arma@@@1@I@Z 000000018000b440 f i GibbsSampler.obj
 0001:0000a450       ??1?$field@V?$field@VGaussian@@@arma@@@arma@@QEAA@XZ 000000018000b450 f i GibbsSampler.obj
 0001:0000a490       ??0?$field@V?$field@VGaussian@@@arma@@@arma@@QEAA@II@Z 000000018000b490 f i GibbsSampler.obj
 0001:0000a4c0       ??0?$field@V?$field@VGaussian@@@arma@@@arma@@QEAA@XZ 000000018000b4c0 f i GibbsSampler.obj
 0001:0000a4c0       ??0?$field@V?$field@V?$Row@N@arma@@@arma@@@arma@@QEAA@XZ 000000018000b4c0 f i GibbsSampler.obj
 0001:0000a4c0       ??0?$field@VGaussian@@@arma@@QEAA@XZ 000000018000b4c0 f i GibbsSampler.obj
 0001:0000a4c0       ??0?$field@V?$Row@N@arma@@@arma@@QEAA@XZ 000000018000b4c0 f i GibbsSampler.obj
 0001:0000a4c0       ??0?$field@V?$Mat@N@arma@@@arma@@QEAA@XZ 000000018000b4c0 f i GibbsSampler.obj
 0001:0000a4e0       ??4?$field@V?$field@VGaussian@@@arma@@@arma@@QEAAAEBV01@AEBV01@@Z 000000018000b4e0 f i GibbsSampler.obj
 0001:0000a500       ??1?$field@V?$Mat@N@arma@@@arma@@QEAA@XZ 000000018000b500 f i GibbsSampler.obj
 0001:0000a540       ??4?$field@V?$Mat@N@arma@@@arma@@QEAAAEBV01@AEBV01@@Z 000000018000b540 f i GibbsSampler.obj
 0001:0000a560       ??1?$field@V?$Row@N@arma@@@arma@@QEAA@XZ 000000018000b560 f i GibbsSampler.obj
 0001:0000a5a0       ??0?$field@V?$Row@N@arma@@@arma@@QEAA@II@Z 000000018000b5a0 f i GibbsSampler.obj
 0001:0000a5d0       ??4?$field@V?$Row@N@arma@@@arma@@QEAAAEBV01@AEBV01@@Z 000000018000b5d0 f i GibbsSampler.obj
 0001:0000a5f0       ??1?$field@V?$field@V?$Row@N@arma@@@arma@@@arma@@QEAA@XZ 000000018000b5f0 f i GibbsSampler.obj
 0001:0000a630       ??0?$field@V?$field@V?$Row@N@arma@@@arma@@@arma@@QEAA@II@Z 000000018000b630 f i GibbsSampler.obj
 0001:0000a660       ??4?$field@V?$field@V?$Row@N@arma@@@arma@@@arma@@QEAAAEBV01@AEBV01@@Z 000000018000b660 f i GibbsSampler.obj
 0001:0000a680       ??$?0Ufill_eye@fill@arma@@@?$Mat@N@arma@@QEAA@IIAEBU?$fill_class@Ufill_eye@fill@arma@@@fill@1@@Z 000000018000b680 f i GibbsSampler.obj
 0001:0000a6c0       ??$?0Ufill_zeros@fill@arma@@@?$Col@N@arma@@QEAA@IAEBU?$fill_class@Ufill_zeros@fill@arma@@@fill@1@@Z 000000018000b6c0 f i GibbsSampler.obj
 0001:0000a700       ??$randi@V?$Row@N@arma@@@arma@@YA?AV?$Row@N@0@IAEBVdistr_param@0@Varma_empty_class@0@PEBV10@@Z 000000018000b700 f i GibbsSampler.obj
 0001:0000a730       ??$?0Ufill_zeros@fill@arma@@@?$Row@N@arma@@QEAA@IAEBU?$fill_class@Ufill_zeros@fill@arma@@@fill@1@@Z 000000018000b730 f i GibbsSampler.obj
 0001:0000a770       ??$randi@V?$Col@N@arma@@@arma@@YA?AV?$Col@N@0@IAEBVdistr_param@0@Varma_empty_class@0@PEBV10@@Z 000000018000b770 f i GibbsSampler.obj
 0001:0000a7a0       ??$?0V?$subview@N@arma@@@?$Col@N@arma@@QEAA@AEBU?$Base@NV?$subview@N@arma@@@1@@Z 000000018000b7a0 f i GibbsSampler.obj
 0001:0000a7f0       ??$sum@V?$Row@N@arma@@@arma@@YANAEBV?$Row@N@0@Varma_empty_class@0@PEBH@Z 000000018000b7f0 f i GibbsSampler.obj
 0001:0000a800       ??$max@V?$Row@N@arma@@@arma@@YANAEBV?$Row@N@0@Varma_empty_class@0@PEBH@Z 000000018000b800 f i GibbsSampler.obj
 0001:0000a810       ??$exp@V?$eOp@V?$Row@N@arma@@Veop_scalar_minus_post@2@@arma@@@arma@@YA?BV?$eOp@V?$eOp@V?$Row@N@arma@@Veop_scalar_minus_post@2@@arma@@Veop_exp@2@@0@AEBV?$eOp@V?$Row@N@arma@@Veop_scalar_minus_post@2@@0@@Z 000000018000b810 f i GibbsSampler.obj
 0001:0000a830       ??$?4V?$eOp@V?$eOp@V?$Row@N@arma@@Veop_scalar_minus_post@2@@arma@@Veop_exp@2@@arma@@@?$Row@N@arma@@QEAAAEBV01@AEBU?$Base@NV?$eOp@V?$eOp@V?$Row@N@arma@@Veop_scalar_minus_post@2@@arma@@Veop_exp@2@@arma@@@1@@Z 000000018000b830 f i GibbsSampler.obj
 0001:0000a860       ??$?0V?$eOp@V?$eOp@V?$Row@N@arma@@Veop_scalar_minus_post@2@@arma@@Veop_exp@2@@arma@@@?$Row@N@arma@@QEAA@AEBU?$Base@NV?$eOp@V?$eOp@V?$Row@N@arma@@Veop_scalar_minus_post@2@@arma@@Veop_exp@2@@arma@@@1@@Z 000000018000b860 f i GibbsSampler.obj
 0001:0000a8b0       ??$?4V?$eOp@V?$Row@N@arma@@Veop_scalar_div_post@2@@arma@@@?$Row@N@arma@@QEAAAEBV01@AEBU?$Base@NV?$eOp@V?$Row@N@arma@@Veop_scalar_div_post@2@@arma@@@1@@Z 000000018000b8b0 f i GibbsSampler.obj
 0001:0000a8e0       ??$randu@V?$Col@N@arma@@@arma@@YA?BV?$Gen@V?$Col@N@arma@@Vgen_randu@2@@0@IVarma_empty_class@0@PEBV?$Col@N@0@@Z 000000018000b8e0 f i GibbsSampler.obj
 0001:0000a900       ??$?4V?$Gen@V?$Col@N@arma@@Vgen_randu@2@@arma@@@?$Col@N@arma@@QEAAAEBV01@AEBU?$Base@NV?$Gen@V?$Col@N@arma@@Vgen_randu@2@@arma@@@1@@Z 000000018000b900 f i GibbsSampler.obj
 0001:0000a930       ??$cumsum@V?$Row@N@arma@@@arma@@YA?BV?$Op@V?$Row@N@arma@@Vop_cumsum_default@2@@0@AEBV?$Row@N@0@@Z 000000018000b930 f i GibbsSampler.obj
 0001:0000a950       ??$?OV?$Op@V?$Row@N@arma@@Vop_cumsum_default@2@@arma@@@arma@@YA?BV?$mtOp@IV?$Op@V?$Row@N@arma@@Vop_cumsum_default@2@@arma@@Vop_rel_gt_pre@2@@0@NAEBV?$Op@V?$Row@N@arma@@Vop_cumsum_default@2@@0@@Z 000000018000b950 f i GibbsSampler.obj
 0001:0000a970       ??$sum@V?$mtOp@IV?$Op@V?$Row@N@arma@@Vop_cumsum_default@2@@arma@@Vop_rel_gt_pre@2@@arma@@@arma@@YAIAEBV?$mtOp@IV?$Op@V?$Row@N@arma@@Vop_cumsum_default@2@@arma@@Vop_rel_gt_pre@2@@0@Varma_empty_class@0@PEBH@Z 000000018000b970 f i GibbsSampler.obj
 0001:0000a980       ??$use_facet@V?$codecvt@DDU_Mbstatet@@@std@@@std@@YAAEBV?$codecvt@DDU_Mbstatet@@@0@AEBVlocale@0@@Z 000000018000b980 f i GibbsSampler.obj
 0001:0000aa50       ??0bad_cast@std@@QEAA@AEBV01@@Z 000000018000ba50 f i GibbsSampler.obj
 0001:0000aa80       ?fill@?$randu@N@arma_rng@arma@@SAXPEANI@Z 000000018000ba80 f i GibbsSampler.obj
 0001:0000ab00       ??4?$Mat@N@arma@@QEAAAEBV01@AEBV?$subview@N@1@@Z 000000018000bb00 f i GibbsSampler.obj
 0001:0000aba0       ??0?$subview_col@N@arma@@IEAA@AEBV?$Mat@N@1@I@Z 000000018000bba0 f i GibbsSampler.obj
 0001:0000abe0       ?init@?$field@VGaussian@@@arma@@AEAAXII@Z 000000018000bbe0 f i GibbsSampler.obj
 0001:0000abf0       ?init@?$field@VGaussian@@@arma@@AEAAXAEBV12@@Z 000000018000bbf0 f i GibbsSampler.obj
 0001:0000ad10       ?delete_objects@?$field@VGaussian@@@arma@@AEAAXXZ 000000018000bd10 f i GibbsSampler.obj
 0001:0000ad80       ?init@?$field@V?$field@VGaussian@@@arma@@@arma@@AEAAXII@Z 000000018000bd80 f i GibbsSampler.obj
 0001:0000ad90       ?init@?$field@V?$field@VGaussian@@@arma@@@arma@@AEAAXAEBV12@@Z 000000018000bd90 f i GibbsSampler.obj
 0001:0000aeb0       ?delete_objects@?$field@V?$field@VGaussian@@@arma@@@arma@@AEAAXXZ 000000018000beb0 f i GibbsSampler.obj
 0001:0000af20       ?init@?$field@V?$Mat@N@arma@@@arma@@AEAAXAEBV12@@Z 000000018000bf20 f i GibbsSampler.obj
 0001:0000b040       ?delete_objects@?$field@V?$Mat@N@arma@@@arma@@AEAAXXZ 000000018000c040 f i GibbsSampler.obj
 0001:0000b0b0       ?init@?$field@V?$Row@N@arma@@@arma@@AEAAXII@Z 000000018000c0b0 f i GibbsSampler.obj
 0001:0000b0c0       ?init@?$field@V?$Row@N@arma@@@arma@@AEAAXAEBV12@@Z 000000018000c0c0 f i GibbsSampler.obj
 0001:0000b1e0       ?delete_objects@?$field@V?$Row@N@arma@@@arma@@AEAAXXZ 000000018000c1e0 f i GibbsSampler.obj
 0001:0000b250       ?init@?$field@V?$field@V?$Row@N@arma@@@arma@@@arma@@AEAAXII@Z 000000018000c250 f i GibbsSampler.obj
 0001:0000b260       ?init@?$field@V?$field@V?$Row@N@arma@@@arma@@@arma@@AEAAXAEBV12@@Z 000000018000c260 f i GibbsSampler.obj
 0001:0000b380       ?delete_objects@?$field@V?$field@V?$Row@N@arma@@@arma@@@arma@@AEAAXXZ 000000018000c380 f i GibbsSampler.obj
 0001:0000b3f0       ??$randi@V?$Row@N@arma@@@arma@@YA?AV?$Row@N@0@IIAEBVdistr_param@0@PEBV10@@Z 000000018000c3f0 f i GibbsSampler.obj
 0001:0000b480       ??$randi@V?$Col@N@arma@@@arma@@YA?AV?$Col@N@0@IIAEBVdistr_param@0@PEBV10@@Z 000000018000c480 f i GibbsSampler.obj
 0001:0000b510       ??0?$eOp@V?$eOp@V?$Row@N@arma@@Veop_scalar_minus_post@2@@arma@@Veop_exp@2@@arma@@QEAA@AEBV?$eOp@V?$Row@N@arma@@Veop_scalar_minus_post@2@@1@@Z 000000018000c510 f i GibbsSampler.obj
 0001:0000b530       ??0?$mtOp@IV?$Op@V?$Row@N@arma@@Vop_cumsum_default@2@@arma@@Vop_rel_gt_pre@2@@arma@@QEAA@AEBV?$Op@V?$Row@N@arma@@Vop_cumsum_default@2@@1@N@Z 000000018000c530 f i GibbsSampler.obj
 0001:0000b540       ??$acquire@I@memory@arma@@SAPEAII@Z 000000018000c540 f i GibbsSampler.obj
 0001:0000b580       ??$fill@Ufill_eye@0arma@@@?$Mat@N@arma@@QEAAAEBV01@AEBU?$fill_class@Ufill_eye@fill@arma@@@fill@1@@Z 000000018000c580 f i GibbsSampler.obj
 0001:0000b5a0       ??$fill@Ufill_zeros@0arma@@@?$Mat@N@arma@@QEAAAEBV01@AEBU?$fill_class@Ufill_zeros@fill@arma@@@fill@1@@Z 000000018000c5a0 f i GibbsSampler.obj
 0001:0000b5c0       ??$accu@V?$Row@N@arma@@@arma@@YANAEBV?$Row@N@0@@Z 000000018000c5c0 f i GibbsSampler.obj
 0001:0000b5e0       ??$max@V?$Mat@N@arma@@@op_max@arma@@SANAEBU?$Base@NV?$Mat@N@arma@@@1@@Z 000000018000c5e0 f i GibbsSampler.obj
 0001:0000b680       ??$?4V?$eOp@V?$Row@N@arma@@Veop_scalar_minus_post@2@@arma@@Veop_exp@1@@?$Mat@N@arma@@QEAAAEBV01@AEBV?$eOp@V?$eOp@V?$Row@N@arma@@Veop_scalar_minus_post@2@@arma@@Veop_exp@2@@1@@Z 000000018000c680 f i GibbsSampler.obj
 0001:0000b6d0       ??$?4V?$Row@N@arma@@Veop_scalar_div_post@1@@?$Mat@N@arma@@QEAAAEBV01@AEBV?$eOp@V?$Row@N@arma@@Veop_scalar_div_post@2@@1@@Z 000000018000c6d0 f i GibbsSampler.obj
 0001:0000b720       ??$?4V?$Col@N@arma@@Vgen_randu@1@@?$Mat@N@arma@@QEAAAEBV01@AEBV?$Gen@V?$Col@N@arma@@Vgen_randu@2@@1@@Z 000000018000c720 f i GibbsSampler.obj
 0001:0000b750       ??$accu@V?$mtOp@IV?$Op@V?$Row@N@arma@@Vop_cumsum_default@2@@arma@@Vop_rel_gt_pre@2@@arma@@@arma@@YAIAEBV?$mtOp@IV?$Op@V?$Row@N@arma@@Vop_cumsum_default@2@@arma@@Vop_rel_gt_pre@2@@0@@Z 000000018000c750 f i GibbsSampler.obj
 0001:0000b7c0       ??_GGaussian@@QEAAPEAXI@Z  000000018000c7c0 f i GibbsSampler.obj
 0001:0000b7f0       ??_G?$field@VGaussian@@@arma@@QEAAPEAXI@Z 000000018000c7f0 f i GibbsSampler.obj
 0001:0000b820       ??_G?$Row@N@arma@@QEAAPEAXI@Z 000000018000c820 f i GibbsSampler.obj
 0001:0000b850       ??_G?$field@V?$Row@N@arma@@@arma@@QEAAPEAXI@Z 000000018000c850 f i GibbsSampler.obj
 0001:0000b880       ??0?$Proxy@V?$mtOp@IV?$Op@V?$Row@N@arma@@Vop_cumsum_default@2@@arma@@Vop_rel_gt_pre@2@@arma@@@arma@@QEAA@AEBV?$mtOp@IV?$Op@V?$Row@N@arma@@Vop_cumsum_default@2@@arma@@Vop_rel_gt_pre@2@@1@@Z 000000018000c880 f i GibbsSampler.obj
 0001:0000b8b0       ?fill@?$randi@N@arma_rng@arma@@SAXPEANIHH@Z 000000018000c8b0 f i GibbsSampler.obj
 0001:0000b8c0       ?max_val@?$randi@N@arma_rng@arma@@SAHXZ 000000018000c8c0 f i GibbsSampler.obj
 0001:0000b8d0       ??0?$Mat@N@arma@@QEAA@AEBV?$subview@N@1@@Z 000000018000c8d0 f i GibbsSampler.obj
 0001:0000b920       ?randu@?$Mat@N@arma@@QEAAAEBV12@XZ 000000018000c920 f i GibbsSampler.obj
 0001:0000b950       ?eye@?$Mat@N@arma@@QEAAAEBV12@XZ 000000018000c950 f i GibbsSampler.obj
 0001:0000b9a0       ??0?$Col@N@arma@@QEAA@II@Z 000000018000c9a0 f i GibbsSampler.obj
 0001:0000b9f0       ??0?$Row@N@arma@@QEAA@II@Z 000000018000c9f0 f i GibbsSampler.obj
 0001:0000ba30       ??0?$Row@N@arma@@QEAA@AEBV01@@Z 000000018000ca30 f i GibbsSampler.obj
 0001:0000ba90       ??0?$subview@N@arma@@IEAA@AEBV?$Mat@N@1@IIII@Z 000000018000ca90 f i GibbsSampler.obj
 0001:0000bac0       ?extract@?$subview@N@arma@@SAXAEAV?$Mat@N@2@AEBV12@@Z 000000018000cac0 f i GibbsSampler.obj
 0001:0000bbe0       ?colptr@?$subview@N@arma@@QEAAPEANI@Z 000000018000cbe0 f i GibbsSampler.obj
 0001:0000bc00       ?apply@?$Gen@V?$Col@N@arma@@Vgen_randu@2@@arma@@QEBAXAEAV?$Mat@N@2@@Z 000000018000cc00 f i GibbsSampler.obj
 0001:0000bc10       ?at@?$field@V?$field@V?$Row@N@arma@@@arma@@@arma@@QEAAAEAV?$field@V?$Row@N@arma@@@2@III@Z 000000018000cc10 f i GibbsSampler.obj
 0001:0000bc10       ?at@?$field@V?$Mat@N@arma@@@arma@@QEBAAEBV?$Mat@N@2@III@Z 000000018000cc10 f i GibbsSampler.obj
 0001:0000bc10       ?at@?$field@V?$Row@N@arma@@@arma@@QEBAAEBV?$Row@N@2@III@Z 000000018000cc10 f i GibbsSampler.obj
 0001:0000bc10       ?at@?$field@V?$Mat@N@arma@@@arma@@QEAAAEAV?$Mat@N@2@III@Z 000000018000cc10 f i GibbsSampler.obj
 0001:0000bc10       ?at@?$field@VGaussian@@@arma@@QEAAAEAVGaussian@@III@Z 000000018000cc10 f i GibbsSampler.obj
 0001:0000bc10       ?at@?$field@V?$Row@N@arma@@@arma@@QEAAAEAV?$Row@N@2@III@Z 000000018000cc10 f i GibbsSampler.obj
 0001:0000bc10       ?at@?$field@V?$field@VGaussian@@@arma@@@arma@@QEBAAEBV?$field@VGaussian@@@2@III@Z 000000018000cc10 f i GibbsSampler.obj
 0001:0000bc10       ?at@?$field@VGaussian@@@arma@@QEBAAEBVGaussian@@III@Z 000000018000cc10 f i GibbsSampler.obj
 0001:0000bc10       ?at@?$field@V?$field@V?$Row@N@arma@@@arma@@@arma@@QEBAAEBV?$field@V?$Row@N@arma@@@2@III@Z 000000018000cc10 f i GibbsSampler.obj
 0001:0000bc10       ?at@?$field@V?$field@VGaussian@@@arma@@@arma@@QEAAAEAV?$field@VGaussian@@@2@III@Z 000000018000cc10 f i GibbsSampler.obj
 0001:0000bc30       ?at@?$field@V?$field@V?$Row@N@arma@@@arma@@@arma@@QEAAAEAV?$field@V?$Row@N@arma@@@2@II@Z 000000018000cc30 f i GibbsSampler.obj
 0001:0000bc30       ?at@?$field@V?$Row@N@arma@@@arma@@QEAAAEAV?$Row@N@2@II@Z 000000018000cc30 f i GibbsSampler.obj
 0001:0000bc30       ?at@?$field@V?$field@V?$Row@N@arma@@@arma@@@arma@@QEBAAEBV?$field@V?$Row@N@arma@@@2@II@Z 000000018000cc30 f i GibbsSampler.obj
 0001:0000bc30       ?at@?$field@V?$Mat@N@arma@@@arma@@QEAAAEAV?$Mat@N@2@II@Z 000000018000cc30 f i GibbsSampler.obj
 0001:0000bc30       ?at@?$field@VGaussian@@@arma@@QEBAAEBVGaussian@@II@Z 000000018000cc30 f i GibbsSampler.obj
 0001:0000bc30       ?at@?$field@V?$field@VGaussian@@@arma@@@arma@@QEBAAEBV?$field@VGaussian@@@2@II@Z 000000018000cc30 f i GibbsSampler.obj
 0001:0000bc30       ?at@?$field@V?$Mat@N@arma@@@arma@@QEBAAEBV?$Mat@N@2@II@Z 000000018000cc30 f i GibbsSampler.obj
 0001:0000bc30       ?at@?$field@VGaussian@@@arma@@QEAAAEAVGaussian@@II@Z 000000018000cc30 f i GibbsSampler.obj
 0001:0000bc30       ?at@?$field@V?$field@VGaussian@@@arma@@@arma@@QEAAAEAV?$field@VGaussian@@@2@II@Z 000000018000cc30 f i GibbsSampler.obj
 0001:0000bc30       ?at@?$field@V?$Row@N@arma@@@arma@@QEBAAEBV?$Row@N@2@II@Z 000000018000cc30 f i GibbsSampler.obj
 0001:0000bc50       ?init@?$field@VGaussian@@@arma@@AEAAXIII@Z 000000018000cc50 f i GibbsSampler.obj
 0001:0000bd60       ?init@?$field@V?$field@VGaussian@@@arma@@@arma@@AEAAXIII@Z 000000018000cd60 f i GibbsSampler.obj
 0001:0000be70       ?init@?$field@V?$Mat@N@arma@@@arma@@AEAAXIII@Z 000000018000ce70 f i GibbsSampler.obj
 0001:0000bf80       ?init@?$field@V?$Row@N@arma@@@arma@@AEAAXIII@Z 000000018000cf80 f i GibbsSampler.obj
 0001:0000c090       ?init@?$field@V?$field@V?$Row@N@arma@@@arma@@@arma@@AEAAXIII@Z 000000018000d090 f i GibbsSampler.obj
 0001:0000c1a0       ??$accu_proxy_mat@V?$Row@N@arma@@@arma@@YANAEBV?$Proxy@V?$Row@N@arma@@@0@@Z 000000018000d1a0 f i GibbsSampler.obj
 0001:0000c1f0       ??$apply@V?$Mat@N@arma@@V?$eOp@V?$Row@N@arma@@Veop_scalar_minus_post@2@@2@@?$eop_core@Veop_exp@arma@@@arma@@SAXAEAV?$Mat@N@1@AEBV?$eOp@V?$eOp@V?$Row@N@arma@@Veop_scalar_minus_post@2@@arma@@Veop_exp@2@@1@@Z 000000018000d1f0 f i GibbsSampler.obj
 0001:0000c2e0       ??$accu_proxy_mat@V?$mtOp@IV?$Op@V?$Row@N@arma@@Vop_cumsum_default@2@@arma@@Vop_rel_gt_pre@2@@arma@@@arma@@YAIAEBV?$Proxy@V?$mtOp@IV?$Op@V?$Row@N@arma@@Vop_cumsum_default@2@@arma@@Vop_rel_gt_pre@2@@arma@@@0@@Z 000000018000d2e0 f i GibbsSampler.obj
 0001:0000c310       ??$min@H@std@@YAAEBHAEBH0@Z 000000018000d310 f i GibbsSampler.obj
 0001:0000c320       ??$?0V?$Op@V?$Row@N@arma@@Vop_cumsum_default@2@@arma@@Vop_rel_gt_pre@1@@?$Mat@I@arma@@QEAA@AEBV?$mtOp@IV?$Op@V?$Row@N@arma@@Vop_cumsum_default@2@@arma@@Vop_rel_gt_pre@2@@1@@Z 000000018000d320 f i GibbsSampler.obj
 0001:0000c350       ??$randi_fill@N@arma_rng_cxx98@arma@@SAXPEANIHH@Z 000000018000d350 f i GibbsSampler.obj
 0001:0000c440       ?init_warm@?$Mat@I@arma@@IEAAXII@Z 000000018000d440 f i GibbsSampler.obj
 0001:0000c5b0       ?colptr@?$subview@N@arma@@QEBAPEBNI@Z 000000018000d5b0 f i GibbsSampler.obj
 0001:0000c5d0       ?is_vec@?$subview@N@arma@@QEBA_NXZ 000000018000d5d0 f i GibbsSampler.obj
 0001:0000c5f0       ?create_objects@?$field@VGaussian@@@arma@@AEAAXXZ 000000018000d5f0 f i GibbsSampler.obj
 0001:0000c650       ?create_objects@?$field@V?$field@VGaussian@@@arma@@@arma@@AEAAXXZ 000000018000d650 f i GibbsSampler.obj
 0001:0000c650       ?create_objects@?$field@V?$field@V?$Row@N@arma@@@arma@@@arma@@AEAAXXZ 000000018000d650 f i GibbsSampler.obj
 0001:0000c6b0       ?create_objects@?$field@V?$Mat@N@arma@@@arma@@AEAAXXZ 000000018000d6b0 f i GibbsSampler.obj
 0001:0000c710       ?create_objects@?$field@V?$Row@N@arma@@@arma@@AEAAXXZ 000000018000d710 f i GibbsSampler.obj
 0001:0000c770       ??A?$eOp@V?$Row@N@arma@@Veop_scalar_minus_post@2@@arma@@QEBANI@Z 000000018000d770 f i GibbsSampler.obj
 0001:0000c790       ?at_alt@?$eOp@V?$Row@N@arma@@Veop_scalar_minus_post@2@@arma@@QEBANI@Z 000000018000d790 f i GibbsSampler.obj
 0001:0000c7b0       ??$nan@N@Datum_helper@priv@arma@@SANPEAN@Z 000000018000d7b0 f i GibbsSampler.obj
 0001:0000c7c0       ??$arma_check_bad_alloc@$$BY0BN@D@arma@@YAX_NAEAY0BN@$$CBD@Z 000000018000d7c0 f i GibbsSampler.obj
 0001:0000c7e0       ??$process@N@?$eop_core@Veop_exp@arma@@@arma@@SANNN@Z 000000018000d7e0 f i GibbsSampler.obj
 0001:0000c7f0       ??$accumulate@I@arrayops@arma@@SAIPEBII@Z 000000018000d7f0 f i GibbsSampler.obj
 0001:0000c8a0       ??$apply@V?$Op@V?$Row@N@arma@@Vop_cumsum_default@2@@arma@@@op_rel_gt_pre@arma@@SAXAEAV?$Mat@I@1@AEBV?$mtOp@IV?$Op@V?$Row@N@arma@@Vop_cumsum_default@2@@arma@@Vop_rel_gt_pre@2@@1@@Z 000000018000d8a0 f i GibbsSampler.obj
 0001:0000ca00       ??0?$Proxy@V?$Op@V?$Row@N@arma@@Vop_cumsum_default@2@@arma@@@arma@@QEAA@AEBV?$Op@V?$Row@N@arma@@Vop_cumsum_default@2@@1@@Z 000000018000da00 f i GibbsSampler.obj
 0001:0000ca30       ?set_size@?$Mat@I@arma@@QEAAXII@Z 000000018000da30 f i GibbsSampler.obj
 0001:0000ca40       ??$process@N@?$eop_core@Veop_scalar_minus_post@arma@@@arma@@SANNN@Z 000000018000da40 f i GibbsSampler.obj
 0001:0000cab0       ??$exp@N@eop_aux@arma@@SANN@Z 000000018000dab0 f i GibbsSampler.obj
 0001:0000cac0       ??$?0V?$Row@N@arma@@Vop_cumsum_default@1@@?$Mat@N@arma@@QEAA@AEBV?$Op@V?$Row@N@arma@@Vop_cumsum_default@2@@1@@Z 000000018000dac0 f i GibbsSampler.obj
 0001:0000caf0       ??$apply@V?$Row@N@arma@@@op_cumsum_default@arma@@SAXAEAV?$Mat@N@1@AEBV?$Op@V?$Row@N@arma@@Vop_cumsum_default@2@@1@@Z 000000018000daf0 f i GibbsSampler.obj
 0001:0000cb90       ??$apply_noalias@N@op_cumsum@arma@@SAXAEAV?$Mat@N@1@AEBV21@I@Z 000000018000db90 f i GibbsSampler.obj
 0001:0000ce3c       ??_E?$basic_ifstream@DU?$char_traits@D@std@@@std@@$4PPPPPPPM@A@EAAPEAXI@Z 000000018000de3c f i GibbsSampler.obj
 0001:0000ce90       ?armaGetPr@@YA?AV?$Mat@N@arma@@PEBUmxArray_tag@@_N1@Z 000000018000de90 f i nCRP-Gibbs-Sampler.obj
 0001:0000cf50       ?armaSetPr@@YAXPEAUmxArray_tag@@AEBV?$Mat@N@arma@@@Z 000000018000df50 f i nCRP-Gibbs-Sampler.obj
 0001:0000cf90       ?armaSetCubePr@@YAXPEAUmxArray_tag@@AEBV?$Cube@N@arma@@@Z 000000018000df90 f i nCRP-Gibbs-Sampler.obj
 0001:0000cfd0       ?armaCreateMxMatrix@@YAPEAUmxArray_tag@@_K0W4mxClassID@@W4mxComplexity@@@Z 000000018000dfd0 f i nCRP-Gibbs-Sampler.obj
 0001:0000d000       ?armaCreateMxMatrix@@YAPEAUmxArray_tag@@_K00W4mxClassID@@W4mxComplexity@@@Z 000000018000e000 f i nCRP-Gibbs-Sampler.obj
 0001:0000d060       ?createCell@@YAPEAUmxArray_tag@@V?$field@V?$Row@N@arma@@@arma@@@Z 000000018000e060 f   nCRP-Gibbs-Sampler.obj
 0001:0000d140       ?createCell@@YAPEAUmxArray_tag@@V?$field@V?$field@V?$Row@N@arma@@@arma@@@arma@@@Z 000000018000e140 f   nCRP-Gibbs-Sampler.obj
 0001:0000d200       ?createMuCell@@YAPEAUmxArray_tag@@V?$field@V?$field@VGaussian@@@arma@@@arma@@@Z 000000018000e200 f   nCRP-Gibbs-Sampler.obj
 0001:0000d390       ?createSigmaCell@@YAPEAUmxArray_tag@@V?$field@V?$field@VGaussian@@@arma@@@arma@@@Z 000000018000e390 f   nCRP-Gibbs-Sampler.obj
 0001:0000d530       mexFunction                000000018000e530 f   nCRP-Gibbs-Sampler.obj
 0001:0000daa0       ??0?$Mat@N@arma@@QEAA@PEANII_N1@Z 000000018000eaa0 f i nCRP-Gibbs-Sampler.obj
 0001:0000dac0       ??0?$Row@N@arma@@QEAA@I@Z  000000018000eac0 f i nCRP-Gibbs-Sampler.obj
 0001:0000db00       ??1?$Cube@N@arma@@QEAA@XZ  000000018000eb00 f i nCRP-Gibbs-Sampler.obj
 0001:0000db50       ?slice@?$Cube@N@arma@@QEAAAEAV?$Mat@N@2@I@Z 000000018000eb50 f i nCRP-Gibbs-Sampler.obj
 0001:0000dbe0       ??0?$field@VGaussian@@@arma@@QEAA@AEBV01@@Z 000000018000ebe0 f i nCRP-Gibbs-Sampler.obj
 0001:0000dc10       ??0?$field@V?$field@VGaussian@@@arma@@@arma@@QEAA@AEBV01@@Z 000000018000ec10 f i nCRP-Gibbs-Sampler.obj
 0001:0000dc40       ??0?$field@V?$Mat@N@arma@@@arma@@QEAA@II@Z 000000018000ec40 f i nCRP-Gibbs-Sampler.obj
 0001:0000dc70       ??0?$field@V?$Mat@N@arma@@@arma@@QEAA@AEBV01@@Z 000000018000ec70 f i nCRP-Gibbs-Sampler.obj
 0001:0000dca0       ??0?$field@V?$Row@N@arma@@@arma@@QEAA@AEBV01@@Z 000000018000eca0 f i nCRP-Gibbs-Sampler.obj
 0001:0000dcd0       ??0?$field@V?$field@V?$Row@N@arma@@@arma@@@arma@@QEAA@AEBV01@@Z 000000018000ecd0 f i nCRP-Gibbs-Sampler.obj
 0001:0000dd00       ??$?0V?$Mat@N@arma@@@?$Row@N@arma@@QEAA@AEBU?$Base@NV?$Mat@N@arma@@@1@@Z 000000018000ed00 f i nCRP-Gibbs-Sampler.obj
 0001:0000dd50       ??$?0Ufill_zeros@fill@arma@@@?$Mat@N@arma@@QEAA@IIAEBU?$fill_class@Ufill_zeros@fill@arma@@@fill@1@@Z 000000018000ed50 f i nCRP-Gibbs-Sampler.obj
 0001:0000dd90       ??$?4V?$Mat@N@arma@@@?$subview_col@N@arma@@QEAAXAEBU?$Base@NV?$Mat@N@arma@@@1@@Z 000000018000ed90 f i nCRP-Gibbs-Sampler.obj
 0001:0000dda0       ??$?0Ufill_zeros@fill@arma@@@?$Cube@N@arma@@QEAA@IIIAEBU?$fill_class@Ufill_zeros@fill@arma@@@fill@1@@Z 000000018000eda0 f i nCRP-Gibbs-Sampler.obj
 0001:0000ddf0       ??0?$Mat@N@arma@@IEAA@DPEBNII@Z 000000018000edf0 f i nCRP-Gibbs-Sampler.obj
 0001:0000de20       ?slice_memptr@?$Cube@N@arma@@QEAAPEANI@Z 000000018000ee20 f i nCRP-Gibbs-Sampler.obj
 0001:0000de30       ?zeros@?$Cube@N@arma@@QEAAAEBV12@XZ 000000018000ee30 f i nCRP-Gibbs-Sampler.obj
 0001:0000de60       ?init_cold@?$Cube@N@arma@@IEAAXXZ 000000018000ee60 f i nCRP-Gibbs-Sampler.obj
 0001:0000deb0       ?delete_mat@?$Cube@N@arma@@IEAAXXZ 000000018000eeb0 f i nCRP-Gibbs-Sampler.obj
 0001:0000df30       ?create_mat@?$Cube@N@arma@@IEAAXXZ 000000018000ef30 f i nCRP-Gibbs-Sampler.obj
 0001:0000dff0       ?init@?$field@V?$Mat@N@arma@@@arma@@AEAAXII@Z 000000018000eff0 f i nCRP-Gibbs-Sampler.obj
 0001:0000e000       ??$?4V?$Mat@N@arma@@@?$subview@N@arma@@QEAAXAEBU?$Base@NV?$Mat@N@arma@@@1@@Z 000000018000f000 f i nCRP-Gibbs-Sampler.obj
 0001:0000e010       ??$arma_check_bad_alloc@$$BY0CC@D@arma@@YAX_NAEAY0CC@$$CBD@Z 000000018000f010 f i nCRP-Gibbs-Sampler.obj
 0001:0000e030       ??$inplace_op@Vop_internal_equ@arma@@V?$Mat@N@2@@?$subview@N@arma@@QEAAXAEBU?$Base@NV?$Mat@N@arma@@@1@PEBD@Z 000000018000f030 f i nCRP-Gibbs-Sampler.obj
 0001:0000e180       ??0?$unwrap_check@V?$Mat@N@arma@@@arma@@QEAA@AEBV?$Mat@N@1@_N@Z 000000018000f180 f i nCRP-Gibbs-Sampler.obj
 0001:0000e260       __security_check_cookie    000000018000f260 f   MSVCRT:_amdsecgs_.obj
 0001:0000e284       ??_V@YAXPEAX@Z             000000018000f284 f   MSVCRT:delete_array.obj
 0001:0000e284       ??3@YAXPEAX_K@Z            000000018000f284 f   MSVCRT:delete_scalar_size.obj
 0001:0000e28c       ??2@YAPEAX_K@Z             000000018000f28c f   MSVCRT:new_scalar.obj
 0001:0000e2c8       ??3@YAXPEAX@Z              000000018000f2c8 f   MSVCRT:delete_scalar.obj
 0001:0000e2d0       ??_Gtype_info@@UEAAPEAXI@Z 000000018000f2d0 f i MSVCRT:std_type_info_static.obj
 0001:0000e2d0       ??_Etype_info@@UEAAPEAXI@Z 000000018000f2d0 f i MSVCRT:std_type_info_static.obj
 0001:0000e470       _Init_thread_footer        000000018000f470 f   MSVCRT:thread_safe_statics.obj
 0001:0000e4d0       _Init_thread_header        000000018000f4d0 f   MSVCRT:thread_safe_statics.obj
 0001:0000e538       _Init_thread_notify        000000018000f538 f   MSVCRT:thread_safe_statics.obj
 0001:0000e594       _Init_thread_wait          000000018000f594 f   MSVCRT:thread_safe_statics.obj
 0001:0000e62c       ??_U@YAPEAX_KAEBUnothrow_t@std@@@Z 000000018000f62c f   MSVCRT:new_array_nothrow.obj
 0001:0000e970       _DllMainCRTStartup         000000018000f970 f   MSVCRT:dll_dllmain.obj
 0001:0000e9b0       __raise_securityfailure    000000018000f9b0 f   MSVCRT:gs_report.obj
 0001:0000e9e4       __report_gsfailure         000000018000f9e4 f   MSVCRT:gs_report.obj
 0001:0000eb2c       ??0bad_array_new_length@std@@QEAA@AEBV01@@Z 000000018000fb2c f i MSVCRT:throw_bad_alloc.obj
 0001:0000eb6c       ??0bad_array_new_length@std@@QEAA@XZ 000000018000fb6c f i MSVCRT:throw_bad_alloc.obj
 0001:0000eb8c       ??1bad_array_new_length@std@@UEAA@XZ 000000018000fb8c f i MSVCRT:throw_bad_alloc.obj
 0001:0000eba0       ??_Ebad_array_new_length@std@@UEAAPEAXI@Z 000000018000fba0 f i MSVCRT:throw_bad_alloc.obj
 0001:0000eba0       ??_Gbad_array_new_length@std@@UEAAPEAXI@Z 000000018000fba0 f i MSVCRT:throw_bad_alloc.obj
 0001:0000ebe4       ?__scrt_throw_std_bad_alloc@@YAXXZ 000000018000fbe4 f   MSVCRT:throw_bad_alloc.obj
 0001:0000ec04       ?__scrt_throw_std_bad_array_new_length@@YAXXZ 000000018000fc04 f   MSVCRT:throw_bad_alloc.obj
 0001:0000ec24       __scrt_acquire_startup_lock 000000018000fc24 f   MSVCRT:utility.obj
 0001:0000ec60       __scrt_dllmain_after_initialize_c 000000018000fc60 f   MSVCRT:utility.obj
 0001:0000ec94       __scrt_dllmain_before_initialize_c 000000018000fc94 f   MSVCRT:utility.obj
 0001:0000ecac       __scrt_dllmain_crt_thread_attach 000000018000fcac f   MSVCRT:utility.obj
 0001:0000ecd4       __scrt_dllmain_crt_thread_detach 000000018000fcd4 f   MSVCRT:utility.obj
 0001:0000ecec       __scrt_dllmain_exception_filter 000000018000fcec f   MSVCRT:utility.obj
 0001:0000ed50       __scrt_dllmain_uninitialize_c 000000018000fd50 f   MSVCRT:utility.obj
 0001:0000ed80       __scrt_dllmain_uninitialize_critical 000000018000fd80 f   MSVCRT:utility.obj
 0001:0000ed94       __scrt_initialize_crt      000000018000fd94 f   MSVCRT:utility.obj
 0001:0000ede0       __scrt_initialize_onexit_tables 000000018000fde0 f   MSVCRT:utility.obj
 0001:0000eec0       __scrt_is_nonwritable_in_current_image 000000018000fec0 f   MSVCRT:utility.obj
 0001:0000ef5c       __scrt_release_startup_lock 000000018000ff5c f   MSVCRT:utility.obj
 0001:0000ef80       __scrt_uninitialize_crt    000000018000ff80 f   MSVCRT:utility.obj
 0001:0000efac       _onexit                    000000018000ffac f   MSVCRT:utility.obj
 0001:0000effc       atexit                     000000018000fffc f   MSVCRT:utility.obj
 0001:0000f014       __scrt_fastfail            0000000180010014 f   MSVCRT:utility_desktop.obj
 0001:0000f15c       _guard_check_icall         000000018001015c f i MSVCRT:checkcfg.obj
 0001:0000f164       ??2@YAPEAX_KAEBUnothrow_t@std@@@Z 0000000180010164 f   MSVCRT:new_scalar_nothrow.obj
 0001:0000f184       __security_init_cookie     0000000180010184 f   MSVCRT:gs_support.obj
 0001:0000f230       ?__scrt_initialize_type_info@@YAXXZ 0000000180010230 f   MSVCRT:tncleanup.obj
 0001:0000f240       ?__scrt_uninitialize_type_info@@YAXXZ 0000000180010240 f   MSVCRT:tncleanup.obj
 0001:0000f24c       __local_stdio_printf_options 000000018001024c f i MSVCRT:default_local_stdio_options.obj
 0001:0000f254       __local_stdio_scanf_options 0000000180010254 f i MSVCRT:default_local_stdio_options.obj
 0001:0000f25c       __scrt_initialize_default_local_stdio_options 000000018001025c f   MSVCRT:default_local_stdio_options.obj
 0001:0000f278       __scrt_get_dyn_tls_init_callback 0000000180010278 f   MSVCRT:dyn_tls_init.obj
 0001:0000f280       _RTC_Initialize            0000000180010280 f   MSVCRT:_initsect_.obj
 0001:0000f2cc       _RTC_Terminate             00000001800102cc f   MSVCRT:_initsect_.obj
 0001:0000f318       __isa_available_init       0000000180010318 f   MSVCRT:_cpu_disp_.obj
 0001:0000f4d4       __scrt_is_ucrt_dll_in_use  00000001800104d4 f   MSVCRT:ucrt_detection.obj
 0001:0000f4e0       _guard_check_icall_nop     00000001800104e0 f i MSVCRT:guard_support.obj
 0001:0000f4f0       ?_Lock@?$basic_streambuf@DU?$char_traits@D@std@@@std@@UEAAXXZ 00000001800104f0 f   msvcprt:MSVCP140.dll
 0001:0000f4f6       ?_Unlock@?$basic_streambuf@DU?$char_traits@D@std@@@std@@UEAAXXZ 00000001800104f6 f   msvcprt:MSVCP140.dll
 0001:0000f4fc       ?showmanyc@?$basic_streambuf@DU?$char_traits@D@std@@@std@@MEAA_JXZ 00000001800104fc f   msvcprt:MSVCP140.dll
 0001:0000f502       ?uflow@?$basic_streambuf@DU?$char_traits@D@std@@@std@@MEAAHXZ 0000000180010502 f   msvcprt:MSVCP140.dll
 0001:0000f508       ?xsgetn@?$basic_streambuf@DU?$char_traits@D@std@@@std@@MEAA_JPEAD_J@Z 0000000180010508 f   msvcprt:MSVCP140.dll
 0001:0000f50e       ?xsputn@?$basic_streambuf@DU?$char_traits@D@std@@@std@@MEAA_JPEBD_J@Z 000000018001050e f   msvcprt:MSVCP140.dll
 0001:0000f514       ?setbuf@?$basic_streambuf@DU?$char_traits@D@std@@@std@@MEAAPEAV12@PEAD_J@Z 0000000180010514 f   msvcprt:MSVCP140.dll
 0001:0000f51a       ?sync@?$basic_streambuf@DU?$char_traits@D@std@@@std@@MEAAHXZ 000000018001051a f   msvcprt:MSVCP140.dll
 0001:0000f520       ?imbue@?$basic_streambuf@DU?$char_traits@D@std@@@std@@MEAAXAEBVlocale@2@@Z 0000000180010520 f   msvcprt:MSVCP140.dll
 0001:0000f528       ??_G_Fac_node@std@@QEAAPEAXI@Z 0000000180010528 f i msvcprt:locale0_implib.obj
 0001:0000f5b4       ?_Facet_Register@std@@YAXPEAV_Facet_base@1@@Z 00000001800105b4 f   msvcprt:locale0_implib.obj
 0001:0000f5ec       __CxxFrameHandler3         00000001800105ec f   vcruntime:VCRUNTIME140.dll
 0001:0000f5f2       __std_terminate            00000001800105f2 f   vcruntime:VCRUNTIME140.dll
 0001:0000f5f8       __std_exception_copy       00000001800105f8 f   vcruntime:VCRUNTIME140.dll
 0001:0000f5fe       __std_exception_destroy    00000001800105fe f   vcruntime:VCRUNTIME140.dll
 0001:0000f604       __vcrt_InitializeCriticalSectionEx 0000000180010604 f   vcruntime:VCRUNTIME140.dll
 0001:0000f60a       __C_specific_handler       000000018001060a f   vcruntime:VCRUNTIME140.dll
 0001:0000f610       _CxxThrowException         0000000180010610 f   vcruntime:VCRUNTIME140.dll
 0001:0000f616       memset                     0000000180010616 f   vcruntime:VCRUNTIME140.dll
 0001:0000f61c       __std_type_info_destroy_list 000000018001061c f   vcruntime:VCRUNTIME140.dll
 0001:0000f622       free                       0000000180010622 f   ucrt:api-ms-win-crt-heap-l1-1-0.dll
 0001:0000f628       malloc                     0000000180010628 f   ucrt:api-ms-win-crt-heap-l1-1-0.dll
 0001:0000f62e       _callnewh                  000000018001062e f   ucrt:api-ms-win-crt-heap-l1-1-0.dll
 0001:0000f634       _initterm                  0000000180010634 f   ucrt:api-ms-win-crt-runtime-l1-1-0.dll
 0001:0000f63a       _initterm_e                000000018001063a f   ucrt:api-ms-win-crt-runtime-l1-1-0.dll
 0001:0000f640       _seh_filter_dll            0000000180010640 f   ucrt:api-ms-win-crt-runtime-l1-1-0.dll
 0001:0000f646       _configure_narrow_argv     0000000180010646 f   ucrt:api-ms-win-crt-runtime-l1-1-0.dll
 0001:0000f64c       _initialize_narrow_environment 000000018001064c f   ucrt:api-ms-win-crt-runtime-l1-1-0.dll
 0001:0000f652       _initialize_onexit_table   0000000180010652 f   ucrt:api-ms-win-crt-runtime-l1-1-0.dll
 0001:0000f658       _register_onexit_function  0000000180010658 f   ucrt:api-ms-win-crt-runtime-l1-1-0.dll
 0001:0000f65e       _execute_onexit_table      000000018001065e f   ucrt:api-ms-win-crt-runtime-l1-1-0.dll
 0001:0000f664       _crt_atexit                0000000180010664 f   ucrt:api-ms-win-crt-runtime-l1-1-0.dll
 0001:0000f66a       _cexit                     000000018001066a f   ucrt:api-ms-win-crt-runtime-l1-1-0.dll
 0001:0000f670       IsProcessorFeaturePresent  0000000180010670 f   kernel32:KERNEL32.dll
 0001:0000f678       __scrt_stub_for_acrt_uninitialize 0000000180010678 f   MSVCRT:ucrt_stubs.obj
 0001:0000f678       __acrt_uninitialize_critical 0000000180010678 f   MSVCRT:ucrt_stubs.obj
 0001:0000f678       __vcrt_initialize          0000000180010678 f   MSVCRT:ucrt_stubs.obj
 0001:0000f678       __scrt_stub_for_acrt_uninitialize_critical 0000000180010678 f   MSVCRT:ucrt_stubs.obj
 0001:0000f678       __vcrt_uninitialize        0000000180010678 f   MSVCRT:ucrt_stubs.obj
 0001:0000f678       __scrt_stub_for_acrt_initialize 0000000180010678 f   MSVCRT:ucrt_stubs.obj
 0001:0000f678       __vcrt_thread_detach       0000000180010678 f   MSVCRT:ucrt_stubs.obj
 0001:0000f678       __acrt_initialize          0000000180010678 f   MSVCRT:ucrt_stubs.obj
 0001:0000f678       __scrt_stub_for_acrt_thread_detach 0000000180010678 f   MSVCRT:ucrt_stubs.obj
 0001:0000f678       __scrt_stub_for_acrt_thread_attach 0000000180010678 f   MSVCRT:ucrt_stubs.obj
 0001:0000f678       __vcrt_uninitialize_critical 0000000180010678 f   MSVCRT:ucrt_stubs.obj
 0001:0000f678       __acrt_thread_detach       0000000180010678 f   MSVCRT:ucrt_stubs.obj
 0001:0000f678       __acrt_thread_attach       0000000180010678 f   MSVCRT:ucrt_stubs.obj
 0001:0000f678       __vcrt_thread_attach       0000000180010678 f   MSVCRT:ucrt_stubs.obj
 0001:0000f678       __acrt_uninitialize        0000000180010678 f   MSVCRT:ucrt_stubs.obj
 0001:0000f67c       __scrt_stub_for_is_c_termination_complete 000000018001067c f   MSVCRT:ucrt_stubs.obj
 0001:0000f67c       _is_c_termination_complete 000000018001067c f   MSVCRT:ucrt_stubs.obj
 0001:0000f680       __GSHandlerCheck           0000000180010680 f   MSVCRT:_gshandler_.obj
 0001:0000f6a0       __GSHandlerCheckCommon     00000001800106a0 f   MSVCRT:_gshandler_.obj
 0001:0000f6fc       __GSHandlerCheck_EH        00000001800106fc f   MSVCRT:gshandlereh.obj
 0001:0000f77c       memcpy                     000000018001077c f   vcruntime:VCRUNTIME140.dll
 0001:0000f782       exp                        0000000180010782 f   ucrt:api-ms-win-crt-math-l1-1-0.dll
 0001:0000f788       log                        0000000180010788 f   ucrt:api-ms-win-crt-math-l1-1-0.dll
 0001:0000f78e       sqrt                       000000018001078e f   ucrt:api-ms-win-crt-math-l1-1-0.dll
 0001:0000f7b0       _guard_dispatch_icall_nop  00000001800107b0 f   MSVCRT:_guard_dispatch_.obj
 0002:00000000       __imp_SetUnhandledExceptionFilter 0000000180012000     kernel32:KERNEL32.dll
 0002:00000008       __imp_EnterCriticalSection 0000000180012008     kernel32:KERNEL32.dll
 0002:00000010       __imp_LeaveCriticalSection 0000000180012010     kernel32:KERNEL32.dll
 0002:00000018       __imp_DeleteCriticalSection 0000000180012018     kernel32:KERNEL32.dll
 0002:00000020       __imp_InitializeSListHead  0000000180012020     kernel32:KERNEL32.dll
 0002:00000028       __imp_GetSystemTimeAsFileTime 0000000180012028     kernel32:KERNEL32.dll
 0002:00000030       __imp_GetCurrentThreadId   0000000180012030     kernel32:KERNEL32.dll
 0002:00000038       __imp_GetCurrentProcessId  0000000180012038     kernel32:KERNEL32.dll
 0002:00000040       __imp_QueryPerformanceCounter 0000000180012040     kernel32:KERNEL32.dll
 0002:00000048       __imp_IsDebuggerPresent    0000000180012048     kernel32:KERNEL32.dll
 0002:00000050       __imp_IsProcessorFeaturePresent 0000000180012050     kernel32:KERNEL32.dll
 0002:00000058       __imp_TerminateProcess     0000000180012058     kernel32:KERNEL32.dll
 0002:00000060       __imp_GetCurrentProcess    0000000180012060     kernel32:KERNEL32.dll
 0002:00000068       __imp_CloseHandle          0000000180012068     kernel32:KERNEL32.dll
 0002:00000070       __imp_UnhandledExceptionFilter 0000000180012070     kernel32:KERNEL32.dll
 0002:00000078       __imp_RtlVirtualUnwind     0000000180012078     kernel32:KERNEL32.dll
 0002:00000080       __imp_RtlLookupFunctionEntry 0000000180012080     kernel32:KERNEL32.dll
 0002:00000088       __imp_RtlCaptureContext    0000000180012088     kernel32:KERNEL32.dll
 0002:00000090       __imp_GetProcAddress       0000000180012090     kernel32:KERNEL32.dll
 0002:00000098       __imp_GetModuleHandleW     0000000180012098     kernel32:KERNEL32.dll
 0002:000000a0       __imp_CreateEventW         00000001800120a0     kernel32:KERNEL32.dll
 0002:000000a8       __imp_WaitForSingleObjectEx 00000001800120a8     kernel32:KERNEL32.dll
 0002:000000b0       __imp_ResetEvent           00000001800120b0     kernel32:KERNEL32.dll
 0002:000000b8       __imp_SetEvent             00000001800120b8     kernel32:KERNEL32.dll
 0002:000000c0       \177KERNEL32_NULL_THUNK_DATA 00000001800120c0     kernel32:KERNEL32.dll
 0002:000000c8       __imp_??Bid@locale@std@@QEAA_KXZ 00000001800120c8     msvcprt:MSVCP140.dll
 0002:000000d0       __imp_?id@?$codecvt@DDU_Mbstatet@@@std@@2V0locale@2@A 00000001800120d0     msvcprt:MSVCP140.dll
 0002:000000d8       __imp_?always_noconv@codecvt_base@std@@QEBA_NXZ 00000001800120d8     msvcprt:MSVCP140.dll
 0002:000000e0       __imp_?read@?$basic_istream@DU?$char_traits@D@std@@@std@@QEAAAEAV12@PEAD_J@Z 00000001800120e0     msvcprt:MSVCP140.dll
 0002:000000e8       __imp_??1?$basic_istream@DU?$char_traits@D@std@@@std@@UEAA@XZ 00000001800120e8     msvcprt:MSVCP140.dll
 0002:000000f0       __imp_?out@?$codecvt@DDU_Mbstatet@@@std@@QEBAHAEAU_Mbstatet@@PEBD1AEAPEBDPEAD3AEAPEAD@Z 00000001800120f0     msvcprt:MSVCP140.dll
 0002:000000f8       __imp_?in@?$codecvt@DDU_Mbstatet@@@std@@QEBAHAEAU_Mbstatet@@PEBD1AEAPEBDPEAD3AEAPEAD@Z 00000001800120f8     msvcprt:MSVCP140.dll
 0002:00000100       __imp_??0?$basic_istream@DU?$char_traits@D@std@@@std@@QEAA@PEAV?$basic_streambuf@DU?$char_traits@D@std@@@1@_N@Z 0000000180012100     msvcprt:MSVCP140.dll
 0002:00000108       __imp_?_Gninc@?$basic_streambuf@DU?$char_traits@D@std@@@std@@IEAAPEADXZ 0000000180012108     msvcprt:MSVCP140.dll
 0002:00000110       __imp_?_Gndec@?$basic_streambuf@DU?$char_traits@D@std@@@std@@IEAAPEADXZ 0000000180012110     msvcprt:MSVCP140.dll
 0002:00000118       __imp_?unshift@?$codecvt@DDU_Mbstatet@@@std@@QEBAHAEAU_Mbstatet@@PEAD1AEAPEAD@Z 0000000180012118     msvcprt:MSVCP140.dll
 0002:00000120       __imp_?_Init@?$basic_streambuf@DU?$char_traits@D@std@@@std@@IEAAXPEAPEAD0PEAH001@Z 0000000180012120     msvcprt:MSVCP140.dll
 0002:00000128       __imp_?_Init@?$basic_streambuf@DU?$char_traits@D@std@@@std@@IEAAXXZ 0000000180012128     msvcprt:MSVCP140.dll
 0002:00000130       __imp_?getloc@?$basic_streambuf@DU?$char_traits@D@std@@@std@@QEBA?AVlocale@2@XZ 0000000180012130     msvcprt:MSVCP140.dll
 0002:00000138       __imp_?_Xbad_alloc@std@@YAXXZ 0000000180012138     msvcprt:MSVCP140.dll
 0002:00000140       __imp_?_Xout_of_range@std@@YAXPEBD@Z 0000000180012140     msvcprt:MSVCP140.dll
 0002:00000148       __imp_?_BADOFF@std@@3_JB   0000000180012148     msvcprt:MSVCP140.dll
 0002:00000150       __imp_?uncaught_exception@std@@YA_NXZ 0000000180012150     msvcprt:MSVCP140.dll
 0002:00000158       __imp_?_Xlength_error@std@@YAXPEBD@Z 0000000180012158     msvcprt:MSVCP140.dll
 0002:00000160       __imp_?cout@std@@3V?$basic_ostream@DU?$char_traits@D@std@@@1@A 0000000180012160     msvcprt:MSVCP140.dll
 0002:00000168       __imp_?sputn@?$basic_streambuf@DU?$char_traits@D@std@@@std@@QEAA_JPEBD_J@Z 0000000180012168     msvcprt:MSVCP140.dll
 0002:00000170       __imp_?widen@?$basic_ios@DU?$char_traits@D@std@@@std@@QEBADD@Z 0000000180012170     msvcprt:MSVCP140.dll
 0002:00000178       __imp_?tie@?$basic_ios@DU?$char_traits@D@std@@@std@@QEBAPEAV?$basic_ostream@DU?$char_traits@D@std@@@2@XZ 0000000180012178     msvcprt:MSVCP140.dll
 0002:00000180       __imp_??0?$basic_streambuf@DU?$char_traits@D@std@@@std@@IEAA@XZ 0000000180012180     msvcprt:MSVCP140.dll
 0002:00000188       __imp_?_Osfx@?$basic_ostream@DU?$char_traits@D@std@@@std@@QEAAXXZ 0000000180012188     msvcprt:MSVCP140.dll
 0002:00000190       __imp_?setstate@?$basic_ios@DU?$char_traits@D@std@@@std@@QEAAXH_N@Z 0000000180012190     msvcprt:MSVCP140.dll
 0002:00000198       __imp_?rdbuf@?$basic_ios@DU?$char_traits@D@std@@@std@@QEBAPEAV?$basic_streambuf@DU?$char_traits@D@std@@@2@XZ 0000000180012198     msvcprt:MSVCP140.dll
 0002:000001a0       __imp_??0?$basic_ios@DU?$char_traits@D@std@@@std@@IEAA@XZ 00000001800121a0     msvcprt:MSVCP140.dll
 0002:000001a8       __imp_?sputc@?$basic_streambuf@DU?$char_traits@D@std@@@std@@QEAAHD@Z 00000001800121a8     msvcprt:MSVCP140.dll
 0002:000001b0       __imp_?eback@?$basic_streambuf@DU?$char_traits@D@std@@@std@@IEBAPEADXZ 00000001800121b0     msvcprt:MSVCP140.dll
 0002:000001b8       __imp_?gptr@?$basic_streambuf@DU?$char_traits@D@std@@@std@@IEBAPEADXZ 00000001800121b8     msvcprt:MSVCP140.dll
 0002:000001c0       __imp_?pbase@?$basic_streambuf@DU?$char_traits@D@std@@@std@@IEBAPEADXZ 00000001800121c0     msvcprt:MSVCP140.dll
 0002:000001c8       __imp_?pptr@?$basic_streambuf@DU?$char_traits@D@std@@@std@@IEBAPEADXZ 00000001800121c8     msvcprt:MSVCP140.dll
 0002:000001d0       __imp_?egptr@?$basic_streambuf@DU?$char_traits@D@std@@@std@@IEBAPEADXZ 00000001800121d0     msvcprt:MSVCP140.dll
 0002:000001d8       __imp_?gbump@?$basic_streambuf@DU?$char_traits@D@std@@@std@@IEAAXH@Z 00000001800121d8     msvcprt:MSVCP140.dll
 0002:000001e0       __imp_?setg@?$basic_streambuf@DU?$char_traits@D@std@@@std@@IEAAXPEAD00@Z 00000001800121e0     msvcprt:MSVCP140.dll
 0002:000001e8       __imp_?epptr@?$basic_streambuf@DU?$char_traits@D@std@@@std@@IEBAPEADXZ 00000001800121e8     msvcprt:MSVCP140.dll
 0002:000001f0       __imp_?pbump@?$basic_streambuf@DU?$char_traits@D@std@@@std@@IEAAXH@Z 00000001800121f0     msvcprt:MSVCP140.dll
 0002:000001f8       __imp_?setp@?$basic_streambuf@DU?$char_traits@D@std@@@std@@IEAAXPEAD0@Z 00000001800121f8     msvcprt:MSVCP140.dll
 0002:00000200       __imp_?setp@?$basic_streambuf@DU?$char_traits@D@std@@@std@@IEAAXPEAD00@Z 0000000180012200     msvcprt:MSVCP140.dll
 0002:00000208       __imp_?_Pninc@?$basic_streambuf@DU?$char_traits@D@std@@@std@@IEAAPEADXZ 0000000180012208     msvcprt:MSVCP140.dll
 0002:00000210       __imp_??0?$basic_ostream@DU?$char_traits@D@std@@@std@@QEAA@PEAV?$basic_streambuf@DU?$char_traits@D@std@@@1@_N@Z 0000000180012210     msvcprt:MSVCP140.dll
 0002:00000218       __imp_??1?$basic_ios@DU?$char_traits@D@std@@@std@@UEAA@XZ 0000000180012218     msvcprt:MSVCP140.dll
 0002:00000220       __imp_?fill@?$basic_ios@DU?$char_traits@D@std@@@std@@QEBADXZ 0000000180012220     msvcprt:MSVCP140.dll
 0002:00000228       __imp_?fill@?$basic_ios@DU?$char_traits@D@std@@@std@@QEAADD@Z 0000000180012228     msvcprt:MSVCP140.dll
 0002:00000230       __imp_??1?$basic_streambuf@DU?$char_traits@D@std@@@std@@UEAA@XZ 0000000180012230     msvcprt:MSVCP140.dll
 0002:00000238       __imp_?_Lock@?$basic_streambuf@DU?$char_traits@D@std@@@std@@UEAAXXZ 0000000180012238     msvcprt:MSVCP140.dll
 0002:00000240       __imp_?_Unlock@?$basic_streambuf@DU?$char_traits@D@std@@@std@@UEAAXXZ 0000000180012240     msvcprt:MSVCP140.dll
 0002:00000248       __imp_?showmanyc@?$basic_streambuf@DU?$char_traits@D@std@@@std@@MEAA_JXZ 0000000180012248     msvcprt:MSVCP140.dll
 0002:00000250       __imp_?uflow@?$basic_streambuf@DU?$char_traits@D@std@@@std@@MEAAHXZ 0000000180012250     msvcprt:MSVCP140.dll
 0002:00000258       __imp_?xsgetn@?$basic_streambuf@DU?$char_traits@D@std@@@std@@MEAA_JPEAD_J@Z 0000000180012258     msvcprt:MSVCP140.dll
 0002:00000260       __imp_?xsputn@?$basic_streambuf@DU?$char_traits@D@std@@@std@@MEAA_JPEBD_J@Z 0000000180012260     msvcprt:MSVCP140.dll
 0002:00000268       __imp_?setbuf@?$basic_streambuf@DU?$char_traits@D@std@@@std@@MEAAPEAV12@PEAD_J@Z 0000000180012268     msvcprt:MSVCP140.dll
 0002:00000270       __imp_?sync@?$basic_streambuf@DU?$char_traits@D@std@@@std@@MEAAHXZ 0000000180012270     msvcprt:MSVCP140.dll
 0002:00000278       __imp_?imbue@?$basic_streambuf@DU?$char_traits@D@std@@@std@@MEAAXAEBVlocale@2@@Z 0000000180012278     msvcprt:MSVCP140.dll
 0002:00000280       __imp_??1?$basic_ostream@DU?$char_traits@D@std@@@std@@UEAA@XZ 0000000180012280     msvcprt:MSVCP140.dll
 0002:00000288       __imp_??6?$basic_ostream@DU?$char_traits@D@std@@@std@@QEAAAEAV01@P6AAEAV01@AEAV01@@Z@Z 0000000180012288     msvcprt:MSVCP140.dll
 0002:00000290       __imp_??6?$basic_ostream@DU?$char_traits@D@std@@@std@@QEAAAEAV01@I@Z 0000000180012290     msvcprt:MSVCP140.dll
 0002:00000298       __imp_??6?$basic_ostream@DU?$char_traits@D@std@@@std@@QEAAAEAV01@N@Z 0000000180012298     msvcprt:MSVCP140.dll
 0002:000002a0       __imp_?put@?$basic_ostream@DU?$char_traits@D@std@@@std@@QEAAAEAV12@D@Z 00000001800122a0     msvcprt:MSVCP140.dll
 0002:000002a8       __imp_?flush@?$basic_ostream@DU?$char_traits@D@std@@@std@@QEAAAEAV12@XZ 00000001800122a8     msvcprt:MSVCP140.dll
 0002:000002b0       __imp_?width@ios_base@std@@QEAA_J_J@Z 00000001800122b0     msvcprt:MSVCP140.dll
 0002:000002b8       __imp_?width@ios_base@std@@QEBA_JXZ 00000001800122b8     msvcprt:MSVCP140.dll
 0002:000002c0       __imp_?precision@ios_base@std@@QEAA_J_J@Z 00000001800122c0     msvcprt:MSVCP140.dll
 0002:000002c8       __imp_?precision@ios_base@std@@QEBA_JXZ 00000001800122c8     msvcprt:MSVCP140.dll
 0002:000002d0       __imp_?unsetf@ios_base@std@@QEAAXH@Z 00000001800122d0     msvcprt:MSVCP140.dll
 0002:000002d8       __imp_?setf@ios_base@std@@QEAAHH@Z 00000001800122d8     msvcprt:MSVCP140.dll
 0002:000002e0       __imp_?flags@ios_base@std@@QEAAHH@Z 00000001800122e0     msvcprt:MSVCP140.dll
 0002:000002e8       __imp_?flags@ios_base@std@@QEBAHXZ 00000001800122e8     msvcprt:MSVCP140.dll
 0002:000002f0       __imp_?good@ios_base@std@@QEBA_NXZ 00000001800122f0     msvcprt:MSVCP140.dll
 0002:000002f8       __imp_??0_Lockit@std@@QEAA@H@Z 00000001800122f8     msvcprt:MSVCP140.dll
 0002:00000300       __imp_??1_Lockit@std@@QEAA@XZ 0000000180012300     msvcprt:MSVCP140.dll
 0002:00000308       __imp_?_Getgloballocale@locale@std@@CAPEAV_Locimp@12@XZ 0000000180012308     msvcprt:MSVCP140.dll
 0002:00000310       __imp_?_Fiopen@std@@YAPEAU_iobuf@@PEBDHH@Z 0000000180012310     msvcprt:MSVCP140.dll
 0002:00000318       __imp_?_Getcat@?$codecvt@DDU_Mbstatet@@@std@@SA_KPEAPEBVfacet@locale@2@PEBV42@@Z 0000000180012318     msvcprt:MSVCP140.dll
 0002:00000320       \177MSVCP140_NULL_THUNK_DATA 0000000180012320     msvcprt:MSVCP140.dll
 0002:00000328       __imp_memset               0000000180012328     vcruntime:VCRUNTIME140.dll
 0002:00000330       __imp___C_specific_handler 0000000180012330     vcruntime:VCRUNTIME140.dll
 0002:00000338       __imp___vcrt_InitializeCriticalSectionEx 0000000180012338     vcruntime:VCRUNTIME140.dll
 0002:00000340       __imp_memmove              0000000180012340     vcruntime:VCRUNTIME140.dll
 0002:00000348       __imp___std_exception_destroy 0000000180012348     vcruntime:VCRUNTIME140.dll
 0002:00000350       __imp___std_exception_copy 0000000180012350     vcruntime:VCRUNTIME140.dll
 0002:00000358       __imp___std_terminate      0000000180012358     vcruntime:VCRUNTIME140.dll
 0002:00000360       __imp___CxxFrameHandler3   0000000180012360     vcruntime:VCRUNTIME140.dll
 0002:00000368       __imp___std_type_info_destroy_list 0000000180012368     vcruntime:VCRUNTIME140.dll
 0002:00000370       __imp_memcpy               0000000180012370     vcruntime:VCRUNTIME140.dll
 0002:00000378       __imp__CxxThrowException   0000000180012378     vcruntime:VCRUNTIME140.dll
 0002:00000380       \177VCRUNTIME140_NULL_THUNK_DATA 0000000180012380     vcruntime:VCRUNTIME140.dll
 0002:00000388       __imp__unlock_file         0000000180012388     ucrt:api-ms-win-crt-filesystem-l1-1-0.dll
 0002:00000390       __imp__lock_file           0000000180012390     ucrt:api-ms-win-crt-filesystem-l1-1-0.dll
 0002:00000398       \177api-ms-win-crt-filesystem-l1-1-0_NULL_THUNK_DATA 0000000180012398     ucrt:api-ms-win-crt-filesystem-l1-1-0.dll
 0002:000003a0       __imp__aligned_free        00000001800123a0     ucrt:api-ms-win-crt-heap-l1-1-0.dll
 0002:000003a8       __imp__callnewh            00000001800123a8     ucrt:api-ms-win-crt-heap-l1-1-0.dll
 0002:000003b0       __imp__aligned_malloc      00000001800123b0     ucrt:api-ms-win-crt-heap-l1-1-0.dll
 0002:000003b8       __imp_malloc               00000001800123b8     ucrt:api-ms-win-crt-heap-l1-1-0.dll
 0002:000003c0       __imp_free                 00000001800123c0     ucrt:api-ms-win-crt-heap-l1-1-0.dll
 0002:000003c8       \177api-ms-win-crt-heap-l1-1-0_NULL_THUNK_DATA 00000001800123c8     ucrt:api-ms-win-crt-heap-l1-1-0.dll
 0002:000003d0       __imp_lgamma               00000001800123d0     ucrt:api-ms-win-crt-math-l1-1-0.dll
 0002:000003d8       __imp_log                  00000001800123d8     ucrt:api-ms-win-crt-math-l1-1-0.dll
 0002:000003e0       __imp_exp                  00000001800123e0     ucrt:api-ms-win-crt-math-l1-1-0.dll
 0002:000003e8       __imp_sqrt                 00000001800123e8     ucrt:api-ms-win-crt-math-l1-1-0.dll
 0002:000003f0       \177api-ms-win-crt-math-l1-1-0_NULL_THUNK_DATA 00000001800123f0     ucrt:api-ms-win-crt-math-l1-1-0.dll
 0002:000003f8       __imp__cexit               00000001800123f8     ucrt:api-ms-win-crt-runtime-l1-1-0.dll
 0002:00000400       __imp__invalid_parameter_noinfo_noreturn 0000000180012400     ucrt:api-ms-win-crt-runtime-l1-1-0.dll
 0002:00000408       __imp__crt_atexit          0000000180012408     ucrt:api-ms-win-crt-runtime-l1-1-0.dll
 0002:00000410       __imp__execute_onexit_table 0000000180012410     ucrt:api-ms-win-crt-runtime-l1-1-0.dll
 0002:00000418       __imp__invalid_parameter_noinfo 0000000180012418     ucrt:api-ms-win-crt-runtime-l1-1-0.dll
 0002:00000420       __imp__errno               0000000180012420     ucrt:api-ms-win-crt-runtime-l1-1-0.dll
 0002:00000428       __imp__register_onexit_function 0000000180012428     ucrt:api-ms-win-crt-runtime-l1-1-0.dll
 0002:00000430       __imp__initialize_onexit_table 0000000180012430     ucrt:api-ms-win-crt-runtime-l1-1-0.dll
 0002:00000438       __imp__initialize_narrow_environment 0000000180012438     ucrt:api-ms-win-crt-runtime-l1-1-0.dll
 0002:00000440       __imp__configure_narrow_argv 0000000180012440     ucrt:api-ms-win-crt-runtime-l1-1-0.dll
 0002:00000448       __imp__seh_filter_dll      0000000180012448     ucrt:api-ms-win-crt-runtime-l1-1-0.dll
 0002:00000450       __imp__initterm_e          0000000180012450     ucrt:api-ms-win-crt-runtime-l1-1-0.dll
 0002:00000458       __imp__initterm            0000000180012458     ucrt:api-ms-win-crt-runtime-l1-1-0.dll
 0002:00000460       \177api-ms-win-crt-runtime-l1-1-0_NULL_THUNK_DATA 0000000180012460     ucrt:api-ms-win-crt-runtime-l1-1-0.dll
 0002:00000468       __imp_ungetc               0000000180012468     ucrt:api-ms-win-crt-stdio-l1-1-0.dll
 0002:00000470       __imp_fflush               0000000180012470     ucrt:api-ms-win-crt-stdio-l1-1-0.dll
 0002:00000478       __imp_setvbuf              0000000180012478     ucrt:api-ms-win-crt-stdio-l1-1-0.dll
 0002:00000480       __imp_fsetpos              0000000180012480     ucrt:api-ms-win-crt-stdio-l1-1-0.dll
 0002:00000488       __imp__fseeki64            0000000180012488     ucrt:api-ms-win-crt-stdio-l1-1-0.dll
 0002:00000490       __imp_fgetpos              0000000180012490     ucrt:api-ms-win-crt-stdio-l1-1-0.dll
 0002:00000498       __imp_fwrite               0000000180012498     ucrt:api-ms-win-crt-stdio-l1-1-0.dll
 0002:000004a0       __imp_fgetc                00000001800124a0     ucrt:api-ms-win-crt-stdio-l1-1-0.dll
 0002:000004a8       __imp__get_stream_buffer_pointers 00000001800124a8     ucrt:api-ms-win-crt-stdio-l1-1-0.dll
 0002:000004b0       __imp_fclose               00000001800124b0     ucrt:api-ms-win-crt-stdio-l1-1-0.dll
 0002:000004b8       __imp_fputc                00000001800124b8     ucrt:api-ms-win-crt-stdio-l1-1-0.dll
 0002:000004c0       \177api-ms-win-crt-stdio-l1-1-0_NULL_THUNK_DATA 00000001800124c0     ucrt:api-ms-win-crt-stdio-l1-1-0.dll
 0002:000004c8       __imp__time64              00000001800124c8     ucrt:api-ms-win-crt-time-l1-1-0.dll
 0002:000004d0       __imp_clock                00000001800124d0     ucrt:api-ms-win-crt-time-l1-1-0.dll
 0002:000004d8       \177api-ms-win-crt-time-l1-1-0_NULL_THUNK_DATA 00000001800124d8     ucrt:api-ms-win-crt-time-l1-1-0.dll
 0002:000004e0       __imp_srand                00000001800124e0     ucrt:api-ms-win-crt-utility-l1-1-0.dll
 0002:000004e8       __imp_rand                 00000001800124e8     ucrt:api-ms-win-crt-utility-l1-1-0.dll
 0002:000004f0       \177api-ms-win-crt-utility-l1-1-0_NULL_THUNK_DATA 00000001800124f0     ucrt:api-ms-win-crt-utility-l1-1-0.dll
 0002:000004f8       __imp_dgemm_               00000001800124f8     blas_win64_MT:blas_win64_MT.dll
 0002:00000500       __imp_dsyrk_               0000000180012500     blas_win64_MT:blas_win64_MT.dll
 0002:00000508       __imp_dgemv_               0000000180012508     blas_win64_MT:blas_win64_MT.dll
 0002:00000510       __imp_ddot_                0000000180012510     blas_win64_MT:blas_win64_MT.dll
 0002:00000518       \177blas_win64_MT_NULL_THUNK_DATA 0000000180012518     blas_win64_MT:blas_win64_MT.dll
 0002:00000520       __imp_dpotrf_              0000000180012520     lapack_win64_MT:lapack_win64_MT.dll
 0002:00000528       \177lapack_win64_MT_NULL_THUNK_DATA 0000000180012528     lapack_win64_MT:lapack_win64_MT.dll
 0002:00000530       __imp_mexErrMsgTxt         0000000180012530     libmex:libmex.dll
 0002:00000538       __imp_mexErrMsgIdAndTxt    0000000180012538     libmex:libmex.dll
 0002:00000540       __imp_mexPrintf            0000000180012540     libmex:libmex.dll
 0002:00000548       \177libmex_NULL_THUNK_DATA 0000000180012548     libmex:libmex.dll
 0002:00000550       __imp_?ioFlush@@YA_NXZ     0000000180012550     libmwservices:libmwservices.dll
 0002:00000558       \177libmwservices_NULL_THUNK_DATA 0000000180012558     libmwservices:libmwservices.dll
 0002:00000560       __imp_mxIsScalar           0000000180012560     libmx:libmx.dll
 0002:00000568       __imp_mxGetScalar          0000000180012568     libmx:libmx.dll
 0002:00000570       __imp_mxGetCell_730        0000000180012570     libmx:libmx.dll
 0002:00000578       __imp_mxGetNumberOfElements 0000000180012578     libmx:libmx.dll
 0002:00000580       __imp_mxGetClassID         0000000180012580     libmx:libmx.dll
 0002:00000588       __imp_mxSetCell_730        0000000180012588     libmx:libmx.dll
 0002:00000590       __imp_mxCreateCellMatrix_730 0000000180012590     libmx:libmx.dll
 0002:00000598       __imp_mxCreateNumericArray_730 0000000180012598     libmx:libmx.dll
 0002:000005a0       __imp_mxCreateNumericMatrix_730 00000001800125a0     libmx:libmx.dll
 0002:000005a8       __imp_mxGetPr              00000001800125a8     libmx:libmx.dll
 0002:000005b0       __imp_mxGetM               00000001800125b0     libmx:libmx.dll
 0002:000005b8       __imp_mxGetN               00000001800125b8     libmx:libmx.dll
 0002:000005c0       __imp_mxGetNumberOfDimensions_730 00000001800125c0     libmx:libmx.dll
 0002:000005c8       __imp_mxGetData            00000001800125c8     libmx:libmx.dll
 0002:000005d0       \177libmx_NULL_THUNK_DATA  00000001800125d0     libmx:libmx.dll
 0002:000005d8       __guard_check_icall_fptr   00000001800125d8     MSVCRT:guard_support.obj
 0002:000005e0       __guard_dispatch_icall_fptr 00000001800125e0     MSVCRT:guard_support.obj
 0002:000005e8       __xc_a                     00000001800125e8     MSVCRT:initializers.obj
 0002:000007e0       __xc_z                     00000001800127e0     MSVCRT:initializers.obj
 0002:000007e8       __xi_a                     00000001800127e8     MSVCRT:initializers.obj
 0002:000007f8       __xi_z                     00000001800127f8     MSVCRT:initializers.obj
 0002:00000800       __xl_a                     0000000180012800     MSVCRT:tlssup.obj
 0002:00000808       __xl_z                     0000000180012808     MSVCRT:tlssup.obj
 0002:00000810       __xp_a                     0000000180012810     MSVCRT:initializers.obj
 0002:00000818       __xp_z                     0000000180012818     MSVCRT:initializers.obj
 0002:00000820       __xt_a                     0000000180012820     MSVCRT:initializers.obj
 0002:00000828       __xt_z                     0000000180012828     MSVCRT:initializers.obj
 0002:00000838       ??_7type_info@@6B@         0000000180012838     MSVCRT:std_type_info_static.obj
 0002:00000840       ??_C@_1EC@JIJBPKFM@?$AAa?$AAp?$AAi?$AA?9?$AAm?$AAs?$AA?9?$AAw?$AAi?$AAn?$AA?9?$AAc?$AAo?$AAr?$AAe?$AA?9?$AAs?$AAy?$AAn?$AAc?$AAh?$AA?9?$AAl?$AA1?$AA?9?$AA2?$AA?9?$AA0?$AA?4?$AAd?$AAl?$AAl@ 0000000180012840     MSVCRT:thread_safe_statics.obj
 0002:00000888       ??_C@_1BK@MGMFAEKH@?$AAk?$AAe?$AAr?$AAn?$AAe?$AAl?$AA3?$AA2?$AA?4?$AAd?$AAl?$AAl?$AA?$AA@ 0000000180012888     MSVCRT:thread_safe_statics.obj
 0002:000008a8       ??_C@_0BM@HLJJNPAH@InitializeConditionVariable?$AA@ 00000001800128a8     MSVCRT:thread_safe_statics.obj
 0002:000008c8       ??_C@_0BJ@JEBJOJFJ@SleepConditionVariableCS?$AA@ 00000001800128c8     MSVCRT:thread_safe_statics.obj
 0002:000008e8       ??_C@_0BJ@PGPPEPCC@WakeAllConditionVariable?$AA@ 00000001800128e8     MSVCRT:thread_safe_statics.obj
 0002:00000901       ?nothrow@std@@3Unothrow_t@1@B 0000000180012901     MSVCRT:std_nothrow.obj
 0002:00000908       _pRawDllMain               0000000180012908     MSVCRT:dll_dllmain.obj
 0002:00000908       _pDefaultRawDllMain        0000000180012908     MSVCRT:dll_dllmain.obj
 0002:00000928       ??_7exception@std@@6B@     0000000180012928     MSVCRT:throw_bad_alloc.obj
 0002:00000940       ??_7bad_alloc@std@@6B@     0000000180012940     MSVCRT:throw_bad_alloc.obj
 0002:00000958       ??_7bad_array_new_length@std@@6B@ 0000000180012958     MSVCRT:throw_bad_alloc.obj
 0002:00000968       ??_C@_0BF@KINCDENJ@bad?5array?5new?5length?$AA@ 0000000180012968     MSVCRT:throw_bad_alloc.obj
 0002:000009d0       ??_C@_0BC@EOODALEL@Unknown?5exception?$AA@ 00000001800129d0     Gaussian.obj
 0002:000009e8       ??_C@_0P@GHFPNOJB@bad?5allocation?$AA@ 00000001800129e8     Gaussian.obj
 0002:000009f8       ??_C@_0BA@JFNIOLAK@string?5too?5long?$AA@ 00000001800129f8     Gaussian.obj
 0002:00000a08       ??_C@_0BI@CFPLBAOH@invalid?5string?5position?$AA@ 0000000180012a08     Gaussian.obj
 0002:00000a20       ??_C@_08EPOCGOLH@?6error?3?5?$AA@ 0000000180012a20     Gaussian.obj
 0002:00000a30       ??_C@_0CH@KGHOBGAB@arma?3?3memory?3?3acquire?$CI?$CJ?3?5out?5of?5@ 0000000180012a30     Gaussian.obj
 0002:00000a58       ??_C@_0BN@BBGCBNDI@chol?$CI?$CJ?3?5decomposition?5failed?$AA@ 0000000180012a58     Gaussian.obj
 0002:00000a78       ??_C@_02JODFHDIE@?$FN?6?$AA@ 0000000180012a78     Gaussian.obj
 0002:00000a80       ??_C@_0P@HPGHBAHK@?$FLmatrix?5size?3?5?$AA@ 0000000180012a80     Gaussian.obj
 0002:00000a90       ??_C@_04DHEMHBNF@?9inf?$AA@ 0000000180012a90     Gaussian.obj
 0002:00000a98       ??_C@_03OJHLLCGB@inf?$AA@  0000000180012a98     Gaussian.obj
 0002:00000a9c       ??_C@_03LHCJEHON@nan?$AA@  0000000180012a9c     Gaussian.obj
 0002:00000aa8       ??_7?$basic_stringbuf@DU?$char_traits@D@std@@V?$allocator@D@2@@std@@6B@ 0000000180012aa8     Gaussian.obj
 0002:00000b20       ??_8?$basic_ostringstream@DU?$char_traits@D@std@@V?$allocator@D@2@@std@@7B@ 0000000180012b20     Gaussian.obj
 0002:00000b30       ??_7?$basic_ostringstream@DU?$char_traits@D@std@@V?$allocator@D@2@@std@@6B@ 0000000180012b30     Gaussian.obj
 0002:00000b40       ??_7runtime_error@std@@6B@ 0000000180012b40     Gaussian.obj
 0002:00000b58       ??_7?$basic_filebuf@DU?$char_traits@D@std@@@std@@6B@ 0000000180012b58     GibbsSampler.obj
 0002:00000bd0       ??_8?$basic_ifstream@DU?$char_traits@D@std@@@std@@7B@ 0000000180012bd0     GibbsSampler.obj
 0002:00000be0       ??_7?$basic_ifstream@DU?$char_traits@D@std@@@std@@6B@ 0000000180012be0     GibbsSampler.obj
 0002:00000bf0       ??_7bad_cast@std@@6B@      0000000180012bf0     GibbsSampler.obj
 0002:00000c00       ??_C@_08EPJLHIJG@bad?5cast?$AA@ 0000000180012c00     GibbsSampler.obj
 0002:00000c10       ??_C@_0N@JFDMEAJL@?1dev?1urandom?$AA@ 0000000180012c10     GibbsSampler.obj
 0002:00000c20       ??_C@_0BG@LGLHMCPF@gibbs?5iter?5?$CFd?5of?5?$CFd?3?5?$AA@ 0000000180012c20     GibbsSampler.obj
 0002:00000c38       ??_C@_0L@IKFHCMKB@?$CF3?45f?5sec?6?$AA@ 0000000180012c38     GibbsSampler.obj
 0002:00000c48       ??_C@_0BN@ICEBPGOO@field?3?3init?$CI?$CJ?3?5out?5of?5memory?$AA@ 0000000180012c48     GibbsSampler.obj
 0002:00000c68       ??_C@_0CA@BIOCBFAC@Number?5of?5dimensions?5must?5be?52?4?$AA@ 0000000180012c68     nCRP-Gibbs-Sampler.obj
 0002:00000c88       ??_C@_0BD@FLKBCNNF@No?5data?5available?4?$AA@ 0000000180012c88     nCRP-Gibbs-Sampler.obj
 0002:00000ca0       ??_C@_0BI@IDLPDHC@Could?5not?5create?5array?4?$AA@ 0000000180012ca0     nCRP-Gibbs-Sampler.obj
 0002:00000cb8       ??_C@_0DD@EINJLCPI@Five?5inputs?5required?5?$CIdata?0?5KK?0?5@ 0000000180012cb8     nCRP-Gibbs-Sampler.obj
 0002:00000cf0       ??_C@_0CC@EIOPCPBB@MyToolbox?3nCRP_Gibbs_Sampler?3nrh@ 0000000180012cf0     nCRP-Gibbs-Sampler.obj
 0002:00000d18       ??_C@_0CA@DOKCBOHA@Five?5output?5arguments?5required?4?$AA@ 0000000180012d18     nCRP-Gibbs-Sampler.obj
 0002:00000d38       ??_C@_0CC@PICJAPLN@MyToolbox?3nCRP_Gibbs_Sampler?3nlh@ 0000000180012d38     nCRP-Gibbs-Sampler.obj
 0002:00000d60       ??_C@_0FP@IJADPIHK@First?5input?5argument?5must?5be?5a?5c@ 0000000180012d60     nCRP-Gibbs-Sampler.obj
 0002:00000dc0       ??_C@_0CF@GIAMJIDN@MyToolbox?3nCRP_Gibbs_Sampler?3not@ 0000000180012dc0     nCRP-Gibbs-Sampler.obj
 0002:00000de8       ??_C@_0BK@JFHKENAK@Got?5?$CFd?5docs?0?5with?5sizes?3?6?$AA@ 0000000180012de8     nCRP-Gibbs-Sampler.obj
 0002:00000e08       ??_C@_0BC@BOAMHOFL@?7doc?5?$CFd?3?5?$CFd?5x?5?$CFd?6?$AA@ 0000000180012e08     nCRP-Gibbs-Sampler.obj
 0002:00000e20       ??_C@_0DA@HKNDEBJM@second?5and?5third?5input?5arguments@ 0000000180012e20     nCRP-Gibbs-Sampler.obj
 0002:00000e50       ??_C@_0CH@CEGIAJEK@MyToolbox?3nCRP_Gibbs_Sampler?3not@ 0000000180012e50     nCRP-Gibbs-Sampler.obj
 0002:00000e78       ??_C@_0CP@KHELLFME@number?5of?5elements?5in?5MM?5should?5@ 0000000180012e78     nCRP-Gibbs-Sampler.obj
 0002:00000ea8       ??_C@_0CJ@KFLJOLON@MyToolbox?3nCRP_Gibbs_Sampler?3dim@ 0000000180012ea8     nCRP-Gibbs-Sampler.obj
 0002:00000ed8       ??_C@_0CG@GEGLEDED@aa?5should?5be?5a?5row?9vector?5of?5len@ 0000000180012ed8     nCRP-Gibbs-Sampler.obj
 0002:00000f00       ??_C@_0CJ@GDJAPNPF@MyToolbox?3nCRP_Gibbs_Sampler?3inc@ 0000000180012f00     nCRP-Gibbs-Sampler.obj
 0002:00000f30       ??_C@_07PBBJBGAG@?0?5MM?5?$DN?5?$AA@ 0000000180012f30     nCRP-Gibbs-Sampler.obj
 0002:00000f38       ??_C@_04PPLJMOF@K?5?$DN?5?$AA@ 0000000180012f38     nCRP-Gibbs-Sampler.obj
 0002:00000f40       ??_C@_0N@EILFPHFJ@prior?0?5aa?5?$DN?5?$AA@ 0000000180012f40     nCRP-Gibbs-Sampler.obj
 0002:00000f50       ??_C@_0CN@DJLCAMOE@?$CFs?6Initialised?5in?5?$CF3?42f?5sec?6?9?9?9?9@ 0000000180012f50     nCRP-Gibbs-Sampler.obj
 0002:00000f80       ??_C@_0CE@JEHEDFDL@fifth?5input?5argument?5must?5be?5sca@ 0000000180012f80     nCRP-Gibbs-Sampler.obj
 0002:00000fa8       ??_C@_0CH@IJDHDKMF@MyToolbox?3nCRP_Gibbs_Sampler?3not@ 0000000180012fa8     nCRP-Gibbs-Sampler.obj
 0002:00000fd0       ??_C@_0CC@MBDJDNBG@Cube?3?3create_mat?$CI?$CJ?3?5out?5of?5memor@ 0000000180012fd0     nCRP-Gibbs-Sampler.obj
 0002:00000ff8       __real@3f1a36e2eb1c432d    0000000180012ff8     Gaussian.obj
 0002:00001000       __real@3fe0000000000000    0000000180013000     Gaussian.obj
 0002:00001008       __real@3ff0000000000000    0000000180013008     Gaussian.obj
 0002:00001010       __real@4000000000000000    0000000180013010     Gaussian.obj
 0002:00001018       __real@4008000000000000    0000000180013018     GibbsSampler.obj
 0002:00001020       __real@400921fb54442d18    0000000180013020     Gaussian.obj
 0002:00001028       __real@4024000000000000    0000000180013028     Gaussian.obj
 0002:00001030       __real@4059000000000000    0000000180013030     Gaussian.obj
 0002:00001038       __real@408f400000000000    0000000180013038     GibbsSampler.obj
 0002:00001040       __real@43f0000000000000    0000000180013040     GibbsSampler.obj
 0002:00001048       __real@7fefffffffffffff    0000000180013048     Gaussian.obj
 0002:00001050       __real@7ff0000000000000    0000000180013050     GibbsSampler.obj
 0002:00001058       __real@7ff8000000000000    0000000180013058     GibbsSampler.obj
 0002:00001060       __real@bf1a36e2eb1c432d    0000000180013060     Gaussian.obj
 0002:00001068       __real@c024000000000000    0000000180013068     Gaussian.obj
 0002:00001070       __real@c059000000000000    0000000180013070     Gaussian.obj
 0002:00001078       __real@ffefffffffffffff    0000000180013078     Gaussian.obj
 0002:00001080       __xmm@3ff00000000000003ff0000000000000 0000000180013080     Gaussian.obj
 0002:00001090       __xmm@80000000000000008000000000000000 0000000180013090     GibbsSampler.obj
 0002:00001f40       _load_config_used          0000000180013f40     MSVCRT:loadcfg.obj
 0002:00001fe0       _tls_used                  0000000180013fe0     MSVCRT:tlssup.obj
 0002:00002010       ??_R4type_info@@6B@        0000000180014010     MSVCRT:std_type_info_static.obj
 0002:00002038       ??_R3type_info@@8          0000000180014038     MSVCRT:std_type_info_static.obj
 0002:00002050       ??_R2type_info@@8          0000000180014050     MSVCRT:std_type_info_static.obj
 0002:00002060       ??_R1A@?0A@EA@type_info@@8 0000000180014060     MSVCRT:std_type_info_static.obj
 0002:00002088       ??_R4bad_array_new_length@std@@6B@ 0000000180014088     MSVCRT:throw_bad_alloc.obj
 0002:000020b0       ??_R3bad_array_new_length@std@@8 00000001800140b0     MSVCRT:throw_bad_alloc.obj
 0002:000020c8       ??_R2bad_array_new_length@std@@8 00000001800140c8     MSVCRT:throw_bad_alloc.obj
 0002:000020e8       ??_R1A@?0A@EA@bad_array_new_length@std@@8 00000001800140e8     MSVCRT:throw_bad_alloc.obj
 0002:00002110       ??_R2runtime_error@std@@8  0000000180014110     Gaussian.obj
 0002:00002128       ??_R2?$basic_istream@DU?$char_traits@D@std@@@std@@8 0000000180014128     Gaussian.obj
 0002:00002150       ??_R2?$basic_ostringstream@DU?$char_traits@D@std@@V?$allocator@D@2@@std@@8 0000000180014150     Gaussian.obj
 0002:00002180       ??_R2?$basic_ostream@DU?$char_traits@D@std@@@std@@8 0000000180014180     Gaussian.obj
 0002:000021a8       ??_R2?$basic_ios@DU?$char_traits@D@std@@@std@@8 00000001800141a8     Gaussian.obj
 0002:000021c8       ??_R2ios_base@std@@8       00000001800141c8     Gaussian.obj
 0002:000021e0       ??_R2?$_Iosb@H@std@@8      00000001800141e0     Gaussian.obj
 0002:000021f0       ??_R2?$basic_stringbuf@DU?$char_traits@D@std@@V?$allocator@D@2@@std@@8 00000001800141f0     Gaussian.obj
 0002:00002208       ??_R2?$basic_streambuf@DU?$char_traits@D@std@@@std@@8 0000000180014208     Gaussian.obj
 0002:00002218       ??_R2bad_alloc@std@@8      0000000180014218     Gaussian.obj
 0002:00002230       ??_R2exception@std@@8      0000000180014230     Gaussian.obj
 0002:00002240       ??_R1A@?0A@EA@runtime_error@std@@8 0000000180014240     Gaussian.obj
 0002:00002268       ??_R1A@?0A@EA@?$basic_istream@DU?$char_traits@D@std@@@std@@8 0000000180014268     Gaussian.obj
 0002:00002290       ??_R1A@?0A@EA@?$basic_ostringstream@DU?$char_traits@D@std@@V?$allocator@D@2@@std@@8 0000000180014290     Gaussian.obj
 0002:000022b8       ??_R17A@3EA@?$_Iosb@H@std@@8 00000001800142b8     Gaussian.obj
 0002:000022e0       ??_R1A@A@3EA@ios_base@std@@8 00000001800142e0     Gaussian.obj
 0002:00002308       ??_R1A@A@3FA@?$basic_ios@DU?$char_traits@D@std@@@std@@8 0000000180014308     Gaussian.obj
 0002:00002330       ??_R1A@?0A@EA@?$basic_ostream@DU?$char_traits@D@std@@@std@@8 0000000180014330     Gaussian.obj
 0002:00002358       ??_R1A@?0A@EA@?$basic_ios@DU?$char_traits@D@std@@@std@@8 0000000180014358     Gaussian.obj
 0002:00002380       ??_R17?0A@EA@?$_Iosb@H@std@@8 0000000180014380     Gaussian.obj
 0002:000023a8       ??_R1A@?0A@EA@ios_base@std@@8 00000001800143a8     Gaussian.obj
 0002:000023d0       ??_R1A@?0A@EA@?$_Iosb@H@std@@8 00000001800143d0     Gaussian.obj
 0002:000023f8       ??_R1A@?0A@EA@?$basic_stringbuf@DU?$char_traits@D@std@@V?$allocator@D@2@@std@@8 00000001800143f8     Gaussian.obj
 0002:00002420       ??_R1A@?0A@EA@?$basic_streambuf@DU?$char_traits@D@std@@@std@@8 0000000180014420     Gaussian.obj
 0002:00002448       ??_R1A@?0A@EA@bad_alloc@std@@8 0000000180014448     Gaussian.obj
 0002:00002470       ??_R1A@?0A@EA@exception@std@@8 0000000180014470     Gaussian.obj
 0002:00002498       ??_R3runtime_error@std@@8  0000000180014498     Gaussian.obj
 0002:000024b0       ??_R3?$basic_istream@DU?$char_traits@D@std@@@std@@8 00000001800144b0     Gaussian.obj
 0002:000024c8       ??_R3?$basic_ostream@DU?$char_traits@D@std@@@std@@8 00000001800144c8     Gaussian.obj
 0002:000024e0       ??_R3ios_base@std@@8       00000001800144e0     Gaussian.obj
 0002:000024f8       ??_R3?$_Iosb@H@std@@8      00000001800144f8     Gaussian.obj
 0002:00002510       ??_R3?$basic_ios@DU?$char_traits@D@std@@@std@@8 0000000180014510     Gaussian.obj
 0002:00002528       ??_R3?$basic_ostringstream@DU?$char_traits@D@std@@V?$allocator@D@2@@std@@8 0000000180014528     Gaussian.obj
 0002:00002540       ??_R3?$basic_streambuf@DU?$char_traits@D@std@@@std@@8 0000000180014540     Gaussian.obj
 0002:00002558       ??_R3?$basic_stringbuf@DU?$char_traits@D@std@@V?$allocator@D@2@@std@@8 0000000180014558     Gaussian.obj
 0002:00002570       ??_R3bad_alloc@std@@8      0000000180014570     Gaussian.obj
 0002:00002588       ??_R3exception@std@@8      0000000180014588     Gaussian.obj
 0002:000025a0       ??_R4runtime_error@std@@6B@ 00000001800145a0     Gaussian.obj
 0002:000025c8       ??_R4?$basic_ostringstream@DU?$char_traits@D@std@@V?$allocator@D@2@@std@@6B@ 00000001800145c8     Gaussian.obj
 0002:000025f0       ??_R4?$basic_stringbuf@DU?$char_traits@D@std@@V?$allocator@D@2@@std@@6B@ 00000001800145f0     Gaussian.obj
 0002:00002618       ??_R4bad_alloc@std@@6B@    0000000180014618     Gaussian.obj
 0002:00002640       ??_R4exception@std@@6B@    0000000180014640     Gaussian.obj
 0002:00002668       ??_R2bad_cast@std@@8       0000000180014668     GibbsSampler.obj
 0002:00002680       ??_R2?$basic_ifstream@DU?$char_traits@D@std@@@std@@8 0000000180014680     GibbsSampler.obj
 0002:000026b0       ??_R2?$basic_filebuf@DU?$char_traits@D@std@@@std@@8 00000001800146b0     GibbsSampler.obj
 0002:000026c8       ??_R1A@?0A@EA@bad_cast@std@@8 00000001800146c8     GibbsSampler.obj
 0002:000026f0       ??_R1A@?0A@EA@?$basic_ifstream@DU?$char_traits@D@std@@@std@@8 00000001800146f0     GibbsSampler.obj
 0002:00002718       ??_R1A@?0A@EA@?$basic_filebuf@DU?$char_traits@D@std@@@std@@8 0000000180014718     GibbsSampler.obj
 0002:00002740       ??_R3bad_cast@std@@8       0000000180014740     GibbsSampler.obj
 0002:00002758       ??_R3?$basic_ifstream@DU?$char_traits@D@std@@@std@@8 0000000180014758     GibbsSampler.obj
 0002:00002770       ??_R3?$basic_filebuf@DU?$char_traits@D@std@@@std@@8 0000000180014770     GibbsSampler.obj
 0002:00002788       ??_R4bad_cast@std@@6B@     0000000180014788     GibbsSampler.obj
 0002:000027b0       ??_R4?$basic_ifstream@DU?$char_traits@D@std@@@std@@6B@ 00000001800147b0     GibbsSampler.obj
 0002:000027d8       ??_R4?$basic_filebuf@DU?$char_traits@D@std@@@std@@6B@ 00000001800147d8     GibbsSampler.obj
 0002:00002ba8       __rtc_iaa                  0000000180014ba8     MSVCRT:_initsect_.obj
 0002:00002bb0       __rtc_izz                  0000000180014bb0     MSVCRT:_initsect_.obj
 0002:00002bb8       __rtc_taa                  0000000180014bb8     MSVCRT:_initsect_.obj
 0002:00002bc0       __rtc_tzz                  0000000180014bc0     MSVCRT:_initsect_.obj
 0002:000053f0       _TI3?AVbad_array_new_length@std@@ 00000001800173f0     MSVCRT:throw_bad_alloc.obj
 0002:00005410       _CTA3?AVbad_array_new_length@std@@ 0000000180017410     MSVCRT:throw_bad_alloc.obj
 0002:00005430       _CT??_R0?AVbad_array_new_length@std@@@8??0bad_array_new_length@std@@QEAA@AEBV01@@Z24 0000000180017430     MSVCRT:throw_bad_alloc.obj
 0002:00005458       _CTA2?AVbad_alloc@std@@    0000000180017458     Gaussian.obj
 0002:00005470       _CT??_R0?AVbad_alloc@std@@@8??0bad_alloc@std@@QEAA@AEBV01@@Z24 0000000180017470     Gaussian.obj
 0002:00005498       _TI2?AVbad_alloc@std@@     0000000180017498     Gaussian.obj
 0002:000054b8       _CTA2?AVruntime_error@std@@ 00000001800174b8     Gaussian.obj
 0002:000054d0       _CT??_R0?AVexception@std@@@8??0exception@std@@QEAA@AEBV01@@Z24 00000001800174d0     Gaussian.obj
 0002:000054f8       _CT??_R0?AVruntime_error@std@@@8??0runtime_error@std@@QEAA@AEBV01@@Z24 00000001800174f8     Gaussian.obj
 0002:00005520       _TI2?AVruntime_error@std@@ 0000000180017520     Gaussian.obj
 0002:00005540       _CTA2?AVbad_cast@std@@     0000000180017540     GibbsSampler.obj
 0002:00005558       _CT??_R0?AVbad_cast@std@@@8??0bad_cast@std@@QEAA@AEBV01@@Z24 0000000180017558     GibbsSampler.obj
 0002:00005580       _TI2?AVbad_cast@std@@      0000000180017580     GibbsSampler.obj
 0002:000055f8       __IMPORT_DESCRIPTOR_libmx  00000001800175f8     libmx:libmx.dll
 0002:0000560c       __IMPORT_DESCRIPTOR_libmex 000000018001760c     libmex:libmex.dll
 0002:00005620       __IMPORT_DESCRIPTOR_blas_win64_MT 0000000180017620     blas_win64_MT:blas_win64_MT.dll
 0002:00005634       __IMPORT_DESCRIPTOR_lapack_win64_MT 0000000180017634     lapack_win64_MT:lapack_win64_MT.dll
 0002:00005648       __IMPORT_DESCRIPTOR_MSVCP140 0000000180017648     msvcprt:MSVCP140.dll
 0002:0000565c       __IMPORT_DESCRIPTOR_libmwservices 000000018001765c     libmwservices:libmwservices.dll
 0002:00005670       __IMPORT_DESCRIPTOR_VCRUNTIME140 0000000180017670     vcruntime:VCRUNTIME140.dll
 0002:00005684       __IMPORT_DESCRIPTOR_api-ms-win-crt-runtime-l1-1-0 0000000180017684     ucrt:api-ms-win-crt-runtime-l1-1-0.dll
 0002:00005698       __IMPORT_DESCRIPTOR_api-ms-win-crt-math-l1-1-0 0000000180017698     ucrt:api-ms-win-crt-math-l1-1-0.dll
 0002:000056ac       __IMPORT_DESCRIPTOR_api-ms-win-crt-heap-l1-1-0 00000001800176ac     ucrt:api-ms-win-crt-heap-l1-1-0.dll
 0002:000056c0       __IMPORT_DESCRIPTOR_api-ms-win-crt-time-l1-1-0 00000001800176c0     ucrt:api-ms-win-crt-time-l1-1-0.dll
 0002:000056d4       __IMPORT_DESCRIPTOR_api-ms-win-crt-stdio-l1-1-0 00000001800176d4     ucrt:api-ms-win-crt-stdio-l1-1-0.dll
 0002:000056e8       __IMPORT_DESCRIPTOR_api-ms-win-crt-utility-l1-1-0 00000001800176e8     ucrt:api-ms-win-crt-utility-l1-1-0.dll
 0002:000056fc       __IMPORT_DESCRIPTOR_api-ms-win-crt-filesystem-l1-1-0 00000001800176fc     ucrt:api-ms-win-crt-filesystem-l1-1-0.dll
 0002:00005710       __IMPORT_DESCRIPTOR_KERNEL32 0000000180017710     kernel32:KERNEL32.dll
 0002:00005724       __NULL_IMPORT_DESCRIPTOR   0000000180017724     libmx:libmx.dll
 0003:00000000       _Init_global_epoch         000000018001a000     MSVCRT:thread_safe_statics.obj
 0003:00000008       __security_cookie_complement 000000018001a008     MSVCRT:gs_cookie.obj
 0003:00000010       __security_cookie          000000018001a010     MSVCRT:gs_cookie.obj
 0003:00000018       __scrt_native_dllmain_reason 000000018001a018     MSVCRT:utility.obj
 0003:00000020       __memcpy_nt_iters          000000018001a020     MSVCRT:_cpu_disp_.obj
 0003:00000028       __isa_available            000000018001a028     MSVCRT:_cpu_disp_.obj
 0003:0000002c       __isa_enabled              000000018001a02c     MSVCRT:_cpu_disp_.obj
 0003:00000030       __scrt_ucrt_dll_is_in_use  000000018001a030     MSVCRT:ucrt_stubs.obj
 0003:00000034       _fltused                   000000018001a034     MSVCRT:fltused.obj
 0003:00000040       ??_R0?AVtype_info@@@8      000000018001a040     MSVCRT:std_type_info_static.obj
 0003:00000060       ??_R0?AVbad_array_new_length@std@@@8 000000018001a060     MSVCRT:throw_bad_alloc.obj
 0003:00000090       ??_R0?AV?$basic_istream@DU?$char_traits@D@std@@@std@@@8 000000018001a090     Gaussian.obj
 0003:000000e0       ??_R0?AV?$basic_ostream@DU?$char_traits@D@std@@@std@@@8 000000018001a0e0     Gaussian.obj
 0003:00000128       ??_R0?AVios_base@std@@@8   000000018001a128     Gaussian.obj
 0003:00000150       ??_R0?AV?$_Iosb@H@std@@@8  000000018001a150     Gaussian.obj
 0003:00000178       ??_R0?AV?$basic_ios@DU?$char_traits@D@std@@@std@@@8 000000018001a178     Gaussian.obj
 0003:000001c0       ??_R0?AV?$basic_ostringstream@DU?$char_traits@D@std@@V?$allocator@D@2@@std@@@8 000000018001a1c0     Gaussian.obj
 0003:00000220       ??_R0?AV?$basic_streambuf@DU?$char_traits@D@std@@@std@@@8 000000018001a220     Gaussian.obj
 0003:00000270       ??_R0?AV?$basic_stringbuf@DU?$char_traits@D@std@@V?$allocator@D@2@@std@@@8 000000018001a270     Gaussian.obj
 0003:000002c8       ??_R0?AVbad_alloc@std@@@8  000000018001a2c8     Gaussian.obj
 0003:000002f0       ??_R0?AVexception@std@@@8  000000018001a2f0     Gaussian.obj
 0003:00000318       ??_R0?AVruntime_error@std@@@8 000000018001a318     Gaussian.obj
 0003:00000340       ??_R0?AV?$basic_ifstream@DU?$char_traits@D@std@@@std@@@8 000000018001a340     GibbsSampler.obj
 0003:00000390       ??_R0?AV?$basic_filebuf@DU?$char_traits@D@std@@@std@@@8 000000018001a390     GibbsSampler.obj
 0003:000003d8       ??_R0?AVbad_cast@std@@@8   000000018001a3d8     GibbsSampler.obj
 0003:000009c0       __scrt_current_native_startup_state 000000018001a9c0     MSVCRT:utility.obj
 0003:000009c8       __scrt_native_startup_lock 000000018001a9c8     MSVCRT:utility.obj
 0003:00000a04       __scrt_debugger_hook_flag  000000018001aa04     MSVCRT:utility_desktop.obj
 0003:00000a08       _tls_index                 000000018001aa08     MSVCRT:tlssup.obj
 0003:00000a10       ?__type_info_root_node@@3U__type_info_node@@A 000000018001aa10     MSVCRT:tncleanup.obj
 0003:00000a20       ?_OptionsStorage@?1??__local_stdio_printf_options@@9@4_KA 000000018001aa20     MSVCRT:default_local_stdio_options.obj
 0003:00000a28       ?_OptionsStorage@?1??__local_stdio_scanf_options@@9@4_KA 000000018001aa28     MSVCRT:default_local_stdio_options.obj
 0003:00000a30       __favor                    000000018001aa30     MSVCRT:_cpu_disp_.obj
 0003:00000a48       ?stream_err2@?1???$arma_stream_err2@D@arma@@YAAEAV?$basic_ostream@DU?$char_traits@D@std@@@std@@PEAV23@@Z@4PEAV23@EA 000000018001aa48     Gaussian.obj
 0003:00000a50       ?$TSS0@?1???$arma_stream_err2@D@arma@@YAAEAV?$basic_ostream@DU?$char_traits@D@std@@@std@@PEAV23@@Z@4HA 000000018001aa50     Gaussian.obj
 0003:00000a58       ?_Psave@?$_Facetptr@V?$codecvt@DDU_Mbstatet@@@std@@@std@@2PEBVfacet@locale@2@EB 000000018001aa58     GibbsSampler.obj
 0003:00000a60       ?_Stinit@?1??_Init@?$basic_filebuf@DU?$char_traits@D@std@@@std@@IEAAXPEAU_iobuf@@W4_Initfl@23@@Z@4U_Mbstatet@@A 000000018001aa60     GibbsSampler.obj
 0003:00000a68       __@@_PchSym_@00@UfhvihUphkGUwlxfnvmghUerhfzoLhgfwrlLCABHUkilqvxghUmxikRtryyhRhznkoviUmxikRtryyhRhznkoviUcGEUivovzhvUhgwzucOlyq@4B2008FD98C1DD4 000000018001aa68     stdafx.obj
 0003:00000b30       ?nan@?$Datum@N@arma@@2NB   000000018001ab30     GibbsSampler.obj
 0003:00000b38       __dyn_tls_init_callback    000000018001ab38     <common>
 0005:00000000       _tls_start                 000000018001d000     MSVCRT:tlssup.obj
 0005:00000004       _Init_thread_epoch         000000018001d004     MSVCRT:thread_safe_statics.obj
 0005:00000008       _tls_end                   000000018001d008     MSVCRT:tlssup.obj

 entry point at        0001:0000e970

 Static symbols

 0000:fffe1000       .debug$S                   0000000180000000     kernel32:KERNEL32.dll
 0000:fffe1000       .debug$S                   0000000180000000     kernel32:KERNEL32.dll
 0000:fffe1000       .debug$S                   0000000180000000     kernel32:KERNEL32.dll
 0000:fffe1000       .debug$S                   0000000180000000     kernel32:KERNEL32.dll
 0000:fffe1000       .debug$S                   0000000180000000     kernel32:KERNEL32.dll
 0000:fffe1000       .debug$S                   0000000180000000     kernel32:KERNEL32.dll
 0000:fffe1000       .debug$S                   0000000180000000     kernel32:KERNEL32.dll
 0000:fffe1000       .debug$S                   0000000180000000     kernel32:KERNEL32.dll
 0000:fffe1000       .debug$S                   0000000180000000     kernel32:KERNEL32.dll
 0000:fffe1000       .debug$S                   0000000180000000     kernel32:KERNEL32.dll
 0000:fffe1000       .debug$S                   0000000180000000     kernel32:KERNEL32.dll
 0000:fffe1000       .debug$S                   0000000180000000     kernel32:KERNEL32.dll
 0000:fffe1000       .debug$S                   0000000180000000     kernel32:KERNEL32.dll
 0000:fffe1000       .debug$S                   0000000180000000     kernel32:KERNEL32.dll
 0000:fffe1000       .debug$S                   0000000180000000     kernel32:KERNEL32.dll
 0000:fffe1000       .debug$S                   0000000180000000     kernel32:KERNEL32.dll
 0000:fffe1000       .debug$S                   0000000180000000     kernel32:KERNEL32.dll
 0000:fffe1000       .debug$S                   0000000180000000     kernel32:KERNEL32.dll
 0000:fffe1000       .debug$S                   0000000180000000     kernel32:KERNEL32.dll
 0000:fffe1000       .debug$S                   0000000180000000     kernel32:KERNEL32.dll
 0000:fffe1000       .debug$S                   0000000180000000     kernel32:KERNEL32.dll
 0000:fffe1000       .debug$S                   0000000180000000     kernel32:KERNEL32.dll
 0000:fffe1000       .debug$S                   0000000180000000     msvcprt:MSVCP140.dll
 0000:fffe1000       .debug$S                   0000000180000000     msvcprt:MSVCP140.dll
 0000:fffe1000       .debug$S                   0000000180000000     msvcprt:MSVCP140.dll
 0000:fffe1000       .debug$S                   0000000180000000     msvcprt:MSVCP140.dll
 0000:fffe1000       .debug$S                   0000000180000000     msvcprt:MSVCP140.dll
 0000:fffe1000       .debug$S                   0000000180000000     msvcprt:MSVCP140.dll
 0000:fffe1000       .debug$S                   0000000180000000     msvcprt:MSVCP140.dll
 0000:fffe1000       .debug$S                   0000000180000000     msvcprt:MSVCP140.dll
 0000:fffe1000       .debug$S                   0000000180000000     msvcprt:MSVCP140.dll
 0000:fffe1000       .debug$S                   0000000180000000     msvcprt:MSVCP140.dll
 0000:fffe1000       .debug$S                   0000000180000000     msvcprt:MSVCP140.dll
 0000:fffe1000       .debug$S                   0000000180000000     msvcprt:MSVCP140.dll
 0000:fffe1000       .debug$S                   0000000180000000     msvcprt:MSVCP140.dll
 0000:fffe1000       .debug$S                   0000000180000000     msvcprt:MSVCP140.dll
 0000:fffe1000       .debug$S                   0000000180000000     msvcprt:MSVCP140.dll
 0000:fffe1000       .debug$S                   0000000180000000     msvcprt:MSVCP140.dll
 0000:fffe1000       .debug$S                   0000000180000000     msvcprt:MSVCP140.dll
 0000:fffe1000       .debug$S                   0000000180000000     msvcprt:MSVCP140.dll
 0000:fffe1000       .debug$S                   0000000180000000     msvcprt:MSVCP140.dll
 0000:fffe1000       .debug$S                   0000000180000000     msvcprt:MSVCP140.dll
 0000:fffe1000       .debug$S                   0000000180000000     msvcprt:MSVCP140.dll
 0000:fffe1000       .debug$S                   0000000180000000     msvcprt:MSVCP140.dll
 0000:fffe1000       .debug$S                   0000000180000000     msvcprt:MSVCP140.dll
 0000:fffe1000       .debug$S                   0000000180000000     kernel32:KERNEL32.dll
 0000:fffe1000       .debug$S                   0000000180000000     msvcprt:MSVCP140.dll
 0000:fffe1000       .debug$S                   0000000180000000     msvcprt:MSVCP140.dll
 0000:fffe1000       .debug$S                   0000000180000000     msvcprt:MSVCP140.dll
 0000:fffe1000       .debug$S                   0000000180000000     msvcprt:MSVCP140.dll
 0000:fffe1000       .debug$S                   0000000180000000     msvcprt:MSVCP140.dll
 0000:fffe1000       .debug$S                   0000000180000000     msvcprt:MSVCP140.dll
 0000:fffe1000       .debug$S                   0000000180000000     msvcprt:MSVCP140.dll
 0000:fffe1000       .debug$S                   0000000180000000     msvcprt:MSVCP140.dll
 0000:fffe1000       .debug$S                   0000000180000000     kernel32:KERNEL32.dll
 0000:fffe1000       .debug$S                   0000000180000000     msvcprt:MSVCP140.dll
 0000:fffe1000       .debug$S                   0000000180000000     msvcprt:MSVCP140.dll
 0000:fffe1000       .debug$S                   0000000180000000     msvcprt:MSVCP140.dll
 0000:fffe1000       .debug$S                   0000000180000000     msvcprt:MSVCP140.dll
 0000:fffe1000       .debug$S                   0000000180000000     lapack_win64_MT:lapack_win64_MT.dll
 0000:fffe1000       .debug$S                   0000000180000000     msvcprt:MSVCP140.dll
 0000:fffe1000       .debug$S                   0000000180000000     msvcprt:MSVCP140.dll
 0000:fffe1000       .debug$S                   0000000180000000     msvcprt:MSVCP140.dll
 0000:fffe1000       .debug$S                   0000000180000000     nCRP-Gibbs-Sampler.exp
 0000:fffe1000       .debug$S                   0000000180000000     libmx:libmx.dll
 0000:fffe1000       .debug$S                   0000000180000000     libmx:libmx.dll
 0000:fffe1000       .debug$S                   0000000180000000     libmx:libmx.dll
 0000:fffe1000       .debug$S                   0000000180000000     libmx:libmx.dll
 0000:fffe1000       .debug$S                   0000000180000000     libmx:libmx.dll
 0000:fffe1000       .debug$S                   0000000180000000     libmx:libmx.dll
 0000:fffe1000       .debug$S                   0000000180000000     libmx:libmx.dll
 0000:fffe1000       .debug$S                   0000000180000000     libmx:libmx.dll
 0000:fffe1000       .debug$S                   0000000180000000     libmx:libmx.dll
 0000:fffe1000       .debug$S                   0000000180000000     libmx:libmx.dll
 0000:fffe1000       .debug$S                   0000000180000000     libmx:libmx.dll
 0000:fffe1000       .debug$S                   0000000180000000     libmx:libmx.dll
 0000:fffe1000       .debug$S                   0000000180000000     libmx:libmx.dll
 0000:fffe1000       .debug$S                   0000000180000000     libmx:libmx.dll
 0000:fffe1000       .debug$S                   0000000180000000     libmex:libmex.dll
 0000:fffe1000       .debug$S                   0000000180000000     libmex:libmex.dll
 0000:fffe1000       .debug$S                   0000000180000000     libmex:libmex.dll
 0000:fffe1000       .debug$S                   0000000180000000     blas_win64_MT:blas_win64_MT.dll
 0000:fffe1000       .debug$S                   0000000180000000     blas_win64_MT:blas_win64_MT.dll
 0000:fffe1000       .debug$S                   0000000180000000     blas_win64_MT:blas_win64_MT.dll
 0000:fffe1000       .debug$S                   0000000180000000     blas_win64_MT:blas_win64_MT.dll
 0000:fffe1000       .debug$S                   0000000180000000     blas_win64_MT:blas_win64_MT.dll
 0000:fffe1000       .debug$S                   0000000180000000     blas_win64_MT:blas_win64_MT.dll
 0000:fffe1000       .debug$S                   0000000180000000     blas_win64_MT:blas_win64_MT.dll
 0000:fffe1000       .debug$S                   0000000180000000     blas_win64_MT:blas_win64_MT.dll
 0000:fffe1000       .debug$S                   0000000180000000     blas_win64_MT:blas_win64_MT.dll
 0000:fffe1000       .debug$S                   0000000180000000     blas_win64_MT:blas_win64_MT.dll
 0000:fffe1000       .debug$S                   0000000180000000     blas_win64_MT:blas_win64_MT.dll
 0000:fffe1000       .debug$S                   0000000180000000     blas_win64_MT:blas_win64_MT.dll
 0000:fffe1000       .debug$S                   0000000180000000     lapack_win64_MT:lapack_win64_MT.dll
 0000:fffe1000       .debug$S                   0000000180000000     lapack_win64_MT:lapack_win64_MT.dll
 0000:fffe1000       .debug$S                   0000000180000000     msvcprt:MSVCP140.dll
 0000:fffe1000       .debug$S                   0000000180000000     msvcprt:MSVCP140.dll
 0000:fffe1000       .debug$S                   0000000180000000     lapack_win64_MT:lapack_win64_MT.dll
 0000:fffe1000       .debug$S                   0000000180000000     lapack_win64_MT:lapack_win64_MT.dll
 0000:fffe1000       .debug$S                   0000000180000000     lapack_win64_MT:lapack_win64_MT.dll
 0000:fffe1000       .debug$S                   0000000180000000     ucrt:api-ms-win-crt-filesystem-l1-1-0.dll
 0000:fffe1000       .debug$S                   0000000180000000     ucrt:api-ms-win-crt-filesystem-l1-1-0.dll
 0000:fffe1000       .debug$S                   0000000180000000     ucrt:api-ms-win-crt-heap-l1-1-0.dll
 0000:fffe1000       .debug$S                   0000000180000000     ucrt:api-ms-win-crt-heap-l1-1-0.dll
 0000:fffe1000       .debug$S                   0000000180000000     ucrt:api-ms-win-crt-heap-l1-1-0.dll
 0000:fffe1000       .debug$S                   0000000180000000     ucrt:api-ms-win-crt-heap-l1-1-0.dll
 0000:fffe1000       .debug$S                   0000000180000000     lapack_win64_MT:lapack_win64_MT.dll
 0000:fffe1000       .debug$S                   0000000180000000     ucrt:api-ms-win-crt-heap-l1-1-0.dll
 0000:fffe1000       .debug$S                   0000000180000000     ucrt:api-ms-win-crt-math-l1-1-0.dll
 0000:fffe1000       .debug$S                   0000000180000000     ucrt:api-ms-win-crt-math-l1-1-0.dll
 0000:fffe1000       .debug$S                   0000000180000000     ucrt:api-ms-win-crt-math-l1-1-0.dll
 0000:fffe1000       .debug$S                   0000000180000000     ucrt:api-ms-win-crt-math-l1-1-0.dll
 0000:fffe1000       .debug$S                   0000000180000000     ucrt:api-ms-win-crt-runtime-l1-1-0.dll
 0000:fffe1000       .debug$S                   0000000180000000     ucrt:api-ms-win-crt-runtime-l1-1-0.dll
 0000:fffe1000       .debug$S                   0000000180000000     ucrt:api-ms-win-crt-runtime-l1-1-0.dll
 0000:fffe1000       .debug$S                   0000000180000000     ucrt:api-ms-win-crt-runtime-l1-1-0.dll
 0000:fffe1000       .debug$S                   0000000180000000     ucrt:api-ms-win-crt-runtime-l1-1-0.dll
 0000:fffe1000       .debug$S                   0000000180000000     ucrt:api-ms-win-crt-runtime-l1-1-0.dll
 0000:fffe1000       .debug$S                   0000000180000000     ucrt:api-ms-win-crt-runtime-l1-1-0.dll
 0000:fffe1000       .debug$S                   0000000180000000     ucrt:api-ms-win-crt-runtime-l1-1-0.dll
 0000:fffe1000       .debug$S                   0000000180000000     ucrt:api-ms-win-crt-runtime-l1-1-0.dll
 0000:fffe1000       .debug$S                   0000000180000000     ucrt:api-ms-win-crt-runtime-l1-1-0.dll
 0000:fffe1000       .debug$S                   0000000180000000     ucrt:api-ms-win-crt-runtime-l1-1-0.dll
 0000:fffe1000       .debug$S                   0000000180000000     ucrt:api-ms-win-crt-runtime-l1-1-0.dll
 0000:fffe1000       .debug$S                   0000000180000000     ucrt:api-ms-win-crt-runtime-l1-1-0.dll
 0000:fffe1000       .debug$S                   0000000180000000     ucrt:api-ms-win-crt-runtime-l1-1-0.dll
 0000:fffe1000       .debug$S                   0000000180000000     ucrt:api-ms-win-crt-runtime-l1-1-0.dll
 0000:fffe1000       .debug$S                   0000000180000000     ucrt:api-ms-win-crt-stdio-l1-1-0.dll
 0000:fffe1000       .debug$S                   0000000180000000     ucrt:api-ms-win-crt-stdio-l1-1-0.dll
 0000:fffe1000       .debug$S                   0000000180000000     ucrt:api-ms-win-crt-stdio-l1-1-0.dll
 0000:fffe1000       .debug$S                   0000000180000000     ucrt:api-ms-win-crt-stdio-l1-1-0.dll
 0000:fffe1000       .debug$S                   0000000180000000     ucrt:api-ms-win-crt-stdio-l1-1-0.dll
 0000:fffe1000       .debug$S                   0000000180000000     ucrt:api-ms-win-crt-stdio-l1-1-0.dll
 0000:fffe1000       .debug$S                   0000000180000000     ucrt:api-ms-win-crt-stdio-l1-1-0.dll
 0000:fffe1000       .debug$S                   0000000180000000     ucrt:api-ms-win-crt-stdio-l1-1-0.dll
 0000:fffe1000       .debug$S                   0000000180000000     ucrt:api-ms-win-crt-stdio-l1-1-0.dll
 0000:fffe1000       .debug$S                   0000000180000000     ucrt:api-ms-win-crt-stdio-l1-1-0.dll
 0000:fffe1000       .debug$S                   0000000180000000     ucrt:api-ms-win-crt-stdio-l1-1-0.dll
 0000:fffe1000       .debug$S                   0000000180000000     ucrt:api-ms-win-crt-time-l1-1-0.dll
 0000:fffe1000       .debug$S                   0000000180000000     ucrt:api-ms-win-crt-time-l1-1-0.dll
 0000:fffe1000       .debug$S                   0000000180000000     ucrt:api-ms-win-crt-utility-l1-1-0.dll
 0000:fffe1000       .debug$S                   0000000180000000     ucrt:api-ms-win-crt-utility-l1-1-0.dll
 0000:fffe1000       .debug$S                   0000000180000000     vcruntime:VCRUNTIME140.dll
 0000:fffe1000       .debug$S                   0000000180000000     vcruntime:VCRUNTIME140.dll
 0000:fffe1000       .debug$S                   0000000180000000     vcruntime:VCRUNTIME140.dll
 0000:fffe1000       .debug$S                   0000000180000000     vcruntime:VCRUNTIME140.dll
 0000:fffe1000       .debug$S                   0000000180000000     vcruntime:VCRUNTIME140.dll
 0000:fffe1000       .debug$S                   0000000180000000     vcruntime:VCRUNTIME140.dll
 0000:fffe1000       .debug$S                   0000000180000000     vcruntime:VCRUNTIME140.dll
 0000:fffe1000       .debug$S                   0000000180000000     vcruntime:VCRUNTIME140.dll
 0000:fffe1000       .debug$S                   0000000180000000     vcruntime:VCRUNTIME140.dll
 0000:fffe1000       .debug$S                   0000000180000000     vcruntime:VCRUNTIME140.dll
 0000:fffe1000       .debug$S                   0000000180000000     vcruntime:VCRUNTIME140.dll
 0000:fffe1000       .debug$S                   0000000180000000     libmwservices:libmwservices.dll
 0000:fffe1000       .debug$S                   0000000180000000     msvcprt:MSVCP140.dll
 0000:fffe1000       .debug$S                   0000000180000000     msvcprt:MSVCP140.dll
 0000:fffe1000       .debug$S                   0000000180000000     msvcprt:MSVCP140.dll
 0000:fffe1000       .debug$S                   0000000180000000     msvcprt:MSVCP140.dll
 0000:fffe1000       .debug$S                   0000000180000000     msvcprt:MSVCP140.dll
 0000:fffe1000       .debug$S                   0000000180000000     msvcprt:MSVCP140.dll
 0000:fffe1000       .debug$S                   0000000180000000     msvcprt:MSVCP140.dll
 0000:fffe1000       .debug$S                   0000000180000000     msvcprt:MSVCP140.dll
 0000:fffe1000       .debug$S                   0000000180000000     msvcprt:MSVCP140.dll
 0000:fffe1000       .debug$S                   0000000180000000     msvcprt:MSVCP140.dll
 0000:fffe1000       .debug$S                   0000000180000000     msvcprt:MSVCP140.dll
 0000:fffe1000       .debug$S                   0000000180000000     msvcprt:MSVCP140.dll
 0000:fffe1000       .debug$S                   0000000180000000     msvcprt:MSVCP140.dll
 0000:fffe1000       .debug$S                   0000000180000000     msvcprt:MSVCP140.dll
 0000:fffe1000       .debug$S                   0000000180000000     msvcprt:MSVCP140.dll
 0000:fffe1000       .debug$S                   0000000180000000     msvcprt:MSVCP140.dll
 0000:fffe1000       .debug$S                   0000000180000000     msvcprt:MSVCP140.dll
 0000:fffe1000       .debug$S                   0000000180000000     msvcprt:MSVCP140.dll
 0000:fffe1000       .debug$S                   0000000180000000     msvcprt:MSVCP140.dll
 0000:fffe1000       .debug$S                   0000000180000000     msvcprt:MSVCP140.dll
 0000:fffe1000       .debug$S                   0000000180000000     msvcprt:MSVCP140.dll
 0000:fffe1000       .debug$S                   0000000180000000     lapack_win64_MT:lapack_win64_MT.dll
 0000:fffe1000       .debug$S                   0000000180000000     msvcprt:MSVCP140.dll
 0000:fffe1000       .debug$S                   0000000180000000     msvcprt:MSVCP140.dll
 0000:fffe1000       .debug$S                   0000000180000000     msvcprt:MSVCP140.dll
 0000:fffe1000       .debug$S                   0000000180000000     msvcprt:MSVCP140.dll
 0000:fffe1000       .debug$S                   0000000180000000     msvcprt:MSVCP140.dll
 0000:fffe1000       .debug$S                   0000000180000000     msvcprt:MSVCP140.dll
 0000:fffe1000       .debug$S                   0000000180000000     msvcprt:MSVCP140.dll
 0000:fffe1000       .debug$S                   0000000180000000     msvcprt:MSVCP140.dll
 0000:fffe1000       .debug$S                   0000000180000000     msvcprt:MSVCP140.dll
 0000:fffe1000       .debug$S                   0000000180000000     msvcprt:MSVCP140.dll
 0000:fffe1000       .debug$S                   0000000180000000     msvcprt:MSVCP140.dll
 0000:fffe1000       .debug$S                   0000000180000000     msvcprt:MSVCP140.dll
 0000:fffe1000       .debug$S                   0000000180000000     msvcprt:MSVCP140.dll
 0000:fffe1000       .debug$S                   0000000180000000     msvcprt:MSVCP140.dll
 0000:fffe1000       .debug$S                   0000000180000000     msvcprt:MSVCP140.dll
 0000:fffe1000       .debug$S                   0000000180000000     msvcprt:MSVCP140.dll
 0000:fffe1000       .debug$S                   0000000180000000     msvcprt:MSVCP140.dll
 0000:fffe1000       .debug$S                   0000000180000000     kernel32:KERNEL32.dll
 0001:00000000       ??__Enone@fill@arma@@YAXXZ 0000000180001000 f   Gaussian.obj
 0001:00000010       ??__Ezeros@fill@arma@@YAXXZ 0000000180001010 f   Gaussian.obj
 0001:00000020       ??__Eones@fill@arma@@YAXXZ 0000000180001020 f   Gaussian.obj
 0001:00000030       ??__Eeye@fill@arma@@YAXXZ  0000000180001030 f   Gaussian.obj
 0001:00000040       ??__Erandu@fill@arma@@YAXXZ 0000000180001040 f   Gaussian.obj
 0001:00000050       ??__Erandn@fill@arma@@YAXXZ 0000000180001050 f   Gaussian.obj
 0001:00000060       ??__Enone@solve_opts@arma@@YAXXZ 0000000180001060 f   Gaussian.obj
 0001:00000070       ??__Efast@solve_opts@arma@@YAXXZ 0000000180001070 f   Gaussian.obj
 0001:00000080       ??__Eequilibrate@solve_opts@arma@@YAXXZ 0000000180001080 f   Gaussian.obj
 0001:00000090       ??__Eno_approx@solve_opts@arma@@YAXXZ 0000000180001090 f   Gaussian.obj
 0001:000000a0       ??__Etriu@solve_opts@arma@@YAXXZ 00000001800010a0 f   Gaussian.obj
 0001:000000b0       ??__Etril@solve_opts@arma@@YAXXZ 00000001800010b0 f   Gaussian.obj
 0001:000000c0       ??__Eeucl_dist@arma@@YAXXZ 00000001800010c0 f   Gaussian.obj
 0001:000000d0       ??__Emaha_dist@arma@@YAXXZ 00000001800010d0 f   Gaussian.obj
 0001:000000e0       ??__Eprob_dist@arma@@YAXXZ 00000001800010e0 f   Gaussian.obj
 0001:000000f0       ??__Ekeep_existing@arma@@YAXXZ 00000001800010f0 f   Gaussian.obj
 0001:00000100       ??__Estatic_subset@arma@@YAXXZ 0000000180001100 f   Gaussian.obj
 0001:00000110       ??__Estatic_spread@arma@@YAXXZ 0000000180001110 f   Gaussian.obj
 0001:00000120       ??__Erandom_subset@arma@@YAXXZ 0000000180001120 f   Gaussian.obj
 0001:00000130       ??__Erandom_spread@arma@@YAXXZ 0000000180001130 f   Gaussian.obj
 0001:00000140       ??__Enone@fill@arma@@YAXXZ 0000000180001140 f   GibbsSampler.obj
 0001:00000150       ??__Ezeros@fill@arma@@YAXXZ 0000000180001150 f   GibbsSampler.obj
 0001:00000160       ??__Eones@fill@arma@@YAXXZ 0000000180001160 f   GibbsSampler.obj
 0001:00000170       ??__Eeye@fill@arma@@YAXXZ  0000000180001170 f   GibbsSampler.obj
 0001:00000180       ??__Erandu@fill@arma@@YAXXZ 0000000180001180 f   GibbsSampler.obj
 0001:00000190       ??__Erandn@fill@arma@@YAXXZ 0000000180001190 f   GibbsSampler.obj
 0001:000001a0       ??__Enone@solve_opts@arma@@YAXXZ 00000001800011a0 f   GibbsSampler.obj
 0001:000001b0       ??__Efast@solve_opts@arma@@YAXXZ 00000001800011b0 f   GibbsSampler.obj
 0001:000001c0       ??__Eequilibrate@solve_opts@arma@@YAXXZ 00000001800011c0 f   GibbsSampler.obj
 0001:000001d0       ??__Eno_approx@solve_opts@arma@@YAXXZ 00000001800011d0 f   GibbsSampler.obj
 0001:000001e0       ??__Etriu@solve_opts@arma@@YAXXZ 00000001800011e0 f   GibbsSampler.obj
 0001:000001f0       ??__Etril@solve_opts@arma@@YAXXZ 00000001800011f0 f   GibbsSampler.obj
 0001:00000200       ??__Eeucl_dist@arma@@YAXXZ 0000000180001200 f   GibbsSampler.obj
 0001:00000210       ??__Emaha_dist@arma@@YAXXZ 0000000180001210 f   GibbsSampler.obj
 0001:00000220       ??__Eprob_dist@arma@@YAXXZ 0000000180001220 f   GibbsSampler.obj
 0001:00000230       ??__Ekeep_existing@arma@@YAXXZ 0000000180001230 f   GibbsSampler.obj
 0001:00000240       ??__Estatic_subset@arma@@YAXXZ 0000000180001240 f   GibbsSampler.obj
 0001:00000250       ??__Estatic_spread@arma@@YAXXZ 0000000180001250 f   GibbsSampler.obj
 0001:00000260       ??__Erandom_subset@arma@@YAXXZ 0000000180001260 f   GibbsSampler.obj
 0001:00000270       ??__Erandom_spread@arma@@YAXXZ 0000000180001270 f   GibbsSampler.obj
 0001:00000280       ??__E?nan@?$Datum@N@arma@@2NB@@YAXXZ 0000000180001280 f   GibbsSampler.obj
 0001:000002a0       ??__Enone@fill@arma@@YAXXZ 00000001800012a0 f   nCRP-Gibbs-Sampler.obj
 0001:000002b0       ??__Ezeros@fill@arma@@YAXXZ 00000001800012b0 f   nCRP-Gibbs-Sampler.obj
 0001:000002c0       ??__Eones@fill@arma@@YAXXZ 00000001800012c0 f   nCRP-Gibbs-Sampler.obj
 0001:000002d0       ??__Eeye@fill@arma@@YAXXZ  00000001800012d0 f   nCRP-Gibbs-Sampler.obj
 0001:000002e0       ??__Erandu@fill@arma@@YAXXZ 00000001800012e0 f   nCRP-Gibbs-Sampler.obj
 0001:000002f0       ??__Erandn@fill@arma@@YAXXZ 00000001800012f0 f   nCRP-Gibbs-Sampler.obj
 0001:00000300       ??__Enone@solve_opts@arma@@YAXXZ 0000000180001300 f   nCRP-Gibbs-Sampler.obj
 0001:00000310       ??__Efast@solve_opts@arma@@YAXXZ 0000000180001310 f   nCRP-Gibbs-Sampler.obj
 0001:00000320       ??__Eequilibrate@solve_opts@arma@@YAXXZ 0000000180001320 f   nCRP-Gibbs-Sampler.obj
 0001:00000330       ??__Eno_approx@solve_opts@arma@@YAXXZ 0000000180001330 f   nCRP-Gibbs-Sampler.obj
 0001:00000340       ??__Etriu@solve_opts@arma@@YAXXZ 0000000180001340 f   nCRP-Gibbs-Sampler.obj
 0001:00000350       ??__Etril@solve_opts@arma@@YAXXZ 0000000180001350 f   nCRP-Gibbs-Sampler.obj
 0001:00000360       ??__Eeucl_dist@arma@@YAXXZ 0000000180001360 f   nCRP-Gibbs-Sampler.obj
 0001:00000370       ??__Emaha_dist@arma@@YAXXZ 0000000180001370 f   nCRP-Gibbs-Sampler.obj
 0001:00000380       ??__Eprob_dist@arma@@YAXXZ 0000000180001380 f   nCRP-Gibbs-Sampler.obj
 0001:00000390       ??__Ekeep_existing@arma@@YAXXZ 0000000180001390 f   nCRP-Gibbs-Sampler.obj
 0001:000003a0       ??__Estatic_subset@arma@@YAXXZ 00000001800013a0 f   nCRP-Gibbs-Sampler.obj
 0001:000003b0       ??__Estatic_spread@arma@@YAXXZ 00000001800013b0 f   nCRP-Gibbs-Sampler.obj
 0001:000003c0       ??__Erandom_subset@arma@@YAXXZ 00000001800013c0 f   nCRP-Gibbs-Sampler.obj
 0001:000003d0       ??__Erandom_spread@arma@@YAXXZ 00000001800013d0 f   nCRP-Gibbs-Sampler.obj
 0001:000003dc       ??__E_Fac_tidy_reg@std@@YAXXZ 00000001800013dc f   msvcprt:locale0_implib.obj
 0001:00004908       $LN15                      0000000180005908     Gaussian.obj
 0001:000049a0       $LN15                      00000001800059a0     Gaussian.obj
 0001:00004df0       ??$arma_stop_runtime_error@$$BY0BN@D@arma@@YAXAEAY0BN@$$CBD@Z 0000000180005df0 f   Gaussian.obj
 0001:00005b20       ??$arma_stop_bad_alloc@$$BY0CH@D@arma@@YAXAEAY0CH@$$CBD@Z 0000000180006b20 f   Gaussian.obj
 0001:00007bf0       time                       0000000180008bf0 f   GibbsSampler.obj
 0001:0000c1d0       ??$most_neg@N@priv@arma@@YANPEAN@Z 000000018000d1d0 f   GibbsSampler.obj
 0001:0000ca50       ??$arma_stop_bad_alloc@$$BY0BN@D@arma@@YAXAEAY0BN@$$CBD@Z 000000018000da50 f   GibbsSampler.obj
 0001:0000ce50       memcpy_s                   000000018000de50 f   GibbsSampler.obj
 0001:0000e1f0       ??$arma_stop_bad_alloc@$$BY0CC@D@arma@@YAXAEAY0CC@$$CBD@Z 000000018000f1f0 f   nCRP-Gibbs-Sampler.obj
 0001:0000e250       $$000000                   000000018000f250     MSVCRT:_amdsecgs_.obj
 0001:0000e2fc       ?__scrt_initialize_thread_safe_statics@@YAHXZ 000000018000f2fc f   MSVCRT:thread_safe_statics.obj
 0001:0000e448       ?__scrt_uninitialize_thread_safe_statics@@YAXXZ 000000018000f448 f   MSVCRT:thread_safe_statics.obj
 0001:0000e634       ?dllmain_crt_dispatch@@YAHQEAUHINSTANCE__@@KQEAX@Z 000000018000f634 f   MSVCRT:dll_dllmain.obj
 0001:0000e684       ?dllmain_crt_process_attach@@YAHQEAUHINSTANCE__@@QEAX@Z 000000018000f684 f   MSVCRT:dll_dllmain.obj
 0001:0000e798       ?dllmain_crt_process_detach@@YAH_N@Z 000000018000f798 f   MSVCRT:dll_dllmain.obj
 0001:0000e824       ?dllmain_dispatch@@YAHQEAUHINSTANCE__@@KQEAX@Z 000000018000f824 f   MSVCRT:dll_dllmain.obj
 0001:0000e91c       ?dllmain_raw@@YAHQEAUHINSTANCE__@@KQEAX@Z 000000018000f91c f   MSVCRT:dll_dllmain.obj
 0001:0000eab8       capture_previous_context   000000018000fab8 f   MSVCRT:gs_report.obj
 0001:0000f7a0       $$000000                   00000001800107a0     MSVCRT:_guard_dispatch_.obj
 0001:0000f7c0       ?dtor$0@?0??choldowndate@@YA?AV?$Mat@N@arma@@V12@V?$Col@N@2@@Z@4HA 00000001800107c0 f   Gaussian.obj
 0001:0000f7c0       ?dtor$0@?0??cholupdate@@YA?AV?$Mat@N@arma@@V12@V?$Col@N@2@@Z@4HA 00000001800107c0 f   Gaussian.obj
 0001:0000f7cc       ?dtor$1@?0??choldowndate@@YA?AV?$Mat@N@arma@@V12@V?$Col@N@2@@Z@4HA 00000001800107cc f   Gaussian.obj
 0001:0000f7cc       ?dtor$1@?0??cholupdate@@YA?AV?$Mat@N@arma@@V12@V?$Col@N@2@@Z@4HA 00000001800107cc f   Gaussian.obj
 0001:0000f7e0       ?dtor$0@?0??ZZ@@YANNNNNV?$Mat@N@arma@@V?$Col@N@2@@Z@4HA 00000001800107e0 f   Gaussian.obj
 0001:0000f7ec       ?dtor$1@?0??ZZ@@YANNNNNV?$Mat@N@arma@@V?$Col@N@2@@Z@4HA 00000001800107ec f   Gaussian.obj
 0001:0000f7f8       ?dtor$2@?0??ZZ@@YANNNNNV?$Mat@N@arma@@V?$Col@N@2@@Z@4HA 00000001800107f8 f   Gaussian.obj
 0001:0000f804       ?dtor$3@?0??ZZ@@YANNNNNV?$Mat@N@arma@@V?$Col@N@2@@Z@4HA 0000000180010804 f   Gaussian.obj
 0001:0000f810       ?dtor$4@?0??ZZ@@YANNNNNV?$Mat@N@arma@@V?$Col@N@2@@Z@4HA 0000000180010810 f   Gaussian.obj
 0001:0000f81c       ?dtor$5@?0??ZZ@@YANNNNNV?$Mat@N@arma@@V?$Col@N@2@@Z@4HA 000000018001081c f   Gaussian.obj
 0001:0000f828       ?dtor$6@?0??ZZ@@YANNNNNV?$Mat@N@arma@@V?$Col@N@2@@Z@4HA 0000000180010828 f   Gaussian.obj
 0001:0000f834       ?dtor$7@?0??ZZ@@YANNNNNV?$Mat@N@arma@@V?$Col@N@2@@Z@4HA 0000000180010834 f   Gaussian.obj
 0001:0000f840       ?dtor$9@?0??ZZ@@YANNNNNV?$Mat@N@arma@@V?$Col@N@2@@Z@4HA 0000000180010840 f   Gaussian.obj
 0001:0000f84c       ?dtor$10@?0??ZZ@@YANNNNNV?$Mat@N@arma@@V?$Col@N@2@@Z@4HA 000000018001084c f   Gaussian.obj
 0001:0000f858       ?dtor$11@?0??ZZ@@YANNNNNV?$Mat@N@arma@@V?$Col@N@2@@Z@4HA 0000000180010858 f   Gaussian.obj
 0001:0000f870       ?dtor$0@?0???0Gaussian@@QEAA@XZ@4HA 0000000180010870 f   Gaussian.obj
 0001:0000f880       ?dtor$0@?0??init@Gaussian@@QEAAXNNV?$Mat@N@arma@@NV?$Col@N@3@@Z@4HA 0000000180010880 f   Gaussian.obj
 0001:0000f88c       ?dtor$1@?0??init@Gaussian@@QEAAXNNV?$Mat@N@arma@@NV?$Col@N@3@@Z@4HA 000000018001088c f   Gaussian.obj
 0001:0000f898       ?dtor$2@?0??init@Gaussian@@QEAAXNNV?$Mat@N@arma@@NV?$Col@N@3@@Z@4HA 0000000180010898 f   Gaussian.obj
 0001:0000f8a4       ?dtor$3@?0??init@Gaussian@@QEAAXNNV?$Mat@N@arma@@NV?$Col@N@3@@Z@4HA 00000001800108a4 f   Gaussian.obj
 0001:0000f8b0       ?dtor$4@?0??init@Gaussian@@QEAAXNNV?$Mat@N@arma@@NV?$Col@N@3@@Z@4HA 00000001800108b0 f   Gaussian.obj
 0001:0000f8bc       ?dtor$5@?0??init@Gaussian@@QEAAXNNV?$Mat@N@arma@@NV?$Col@N@3@@Z@4HA 00000001800108bc f   Gaussian.obj
 0001:0000f8c8       ?dtor$6@?0??init@Gaussian@@QEAAXNNV?$Mat@N@arma@@NV?$Col@N@3@@Z@4HA 00000001800108c8 f   Gaussian.obj
 0001:0000f8d4       ?dtor$7@?0??init@Gaussian@@QEAAXNNV?$Mat@N@arma@@NV?$Col@N@3@@Z@4HA 00000001800108d4 f   Gaussian.obj
 0001:0000f8e0       ?dtor$8@?0??init@Gaussian@@QEAAXNNV?$Mat@N@arma@@NV?$Col@N@3@@Z@4HA 00000001800108e0 f   Gaussian.obj
 0001:0000f8ec       ?dtor$9@?0??init@Gaussian@@QEAAXNNV?$Mat@N@arma@@NV?$Col@N@3@@Z@4HA 00000001800108ec f   Gaussian.obj
 0001:0000f900       ?dtor$0@?0??getMu@Gaussian@@QEAA?AV?$Col@N@arma@@XZ@4HA 0000000180010900 f   Gaussian.obj
 0001:0000f910       ?dtor$0@?0??getSigma@Gaussian@@QEAA?AV?$Mat@N@arma@@XZ@4HA 0000000180010910 f   Gaussian.obj
 0001:0000f91c       ?dtor$1@?0??getSigma@Gaussian@@QEAA?AV?$Mat@N@arma@@XZ@4HA 000000018001091c f   Gaussian.obj
 0001:0000f928       ?dtor$3@?0??getSigma@Gaussian@@QEAA?AV?$Mat@N@arma@@XZ@4HA 0000000180010928 f   Gaussian.obj
 0001:0000f934       ?dtor$4@?0??getSigma@Gaussian@@QEAA?AV?$Mat@N@arma@@XZ@4HA 0000000180010934 f   Gaussian.obj
 0001:0000f940       ?dtor$5@?0??getSigma@Gaussian@@QEAA?AV?$Mat@N@arma@@XZ@4HA 0000000180010940 f   Gaussian.obj
 0001:0000f94c       ?dtor$6@?0??getSigma@Gaussian@@QEAA?AV?$Mat@N@arma@@XZ@4HA 000000018001094c f   Gaussian.obj
 0001:0000f960       ?dtor$0@?0??additem@Gaussian@@QEAAXV?$Col@N@arma@@@Z@4HA 0000000180010960 f   Gaussian.obj
 0001:0000f960       ?dtor$0@?0??delitem@Gaussian@@QEAAXV?$Col@N@arma@@@Z@4HA 0000000180010960 f   Gaussian.obj
 0001:0000f96c       ?dtor$1@?0??delitem@Gaussian@@QEAAXV?$Col@N@arma@@@Z@4HA 000000018001096c f   Gaussian.obj
 0001:0000f96c       ?dtor$1@?0??additem@Gaussian@@QEAAXV?$Col@N@arma@@@Z@4HA 000000018001096c f   Gaussian.obj
 0001:0000f978       ?dtor$3@?0??additem@Gaussian@@QEAAXV?$Col@N@arma@@@Z@4HA 0000000180010978 f   Gaussian.obj
 0001:0000f978       ?dtor$3@?0??delitem@Gaussian@@QEAAXV?$Col@N@arma@@@Z@4HA 0000000180010978 f   Gaussian.obj
 0001:0000f984       ?dtor$4@?0??delitem@Gaussian@@QEAAXV?$Col@N@arma@@@Z@4HA 0000000180010984 f   Gaussian.obj
 0001:0000f984       ?dtor$4@?0??additem@Gaussian@@QEAAXV?$Col@N@arma@@@Z@4HA 0000000180010984 f   Gaussian.obj
 0001:0000f990       ?dtor$0@?0??logpredictive@Gaussian@@QEAANV?$Col@N@arma@@@Z@4HA 0000000180010990 f   Gaussian.obj
 0001:0000f99c       ?dtor$1@?0??logpredictive@Gaussian@@QEAANV?$Col@N@arma@@@Z@4HA 000000018001099c f   Gaussian.obj
 0001:0000f9a8       ?dtor$2@?0??logpredictive@Gaussian@@QEAANV?$Col@N@arma@@@Z@4HA 00000001800109a8 f   Gaussian.obj
 0001:0000f9b4       ?dtor$3@?0??logpredictive@Gaussian@@QEAANV?$Col@N@arma@@@Z@4HA 00000001800109b4 f   Gaussian.obj
 0001:0000f9c0       ?dtor$6@?0??logpredictive@Gaussian@@QEAANV?$Col@N@arma@@@Z@4HA 00000001800109c0 f   Gaussian.obj
 0001:0000f9d0       ?dtor$0@?0???0?$basic_ostringstream@DU?$char_traits@D@std@@V?$allocator@D@2@@std@@QEAA@H@Z@4HA 00000001800109d0 f   Gaussian.obj
 0001:0000f9fe       ?dtor$1@?0???0?$basic_ostringstream@DU?$char_traits@D@std@@V?$allocator@D@2@@std@@QEAA@H@Z@4HA 00000001800109fe f   Gaussian.obj
 0001:0000fa10       ?dtor$0@?0???0sentry@?$basic_ostream@DU?$char_traits@D@std@@@std@@QEAA@AEAV12@@Z@4HA 0000000180010a10 f   Gaussian.obj
 0001:0000fa20       ?dtor$0@?0???0?$basic_filebuf@DU?$char_traits@D@std@@@std@@QEAA@PEAU_iobuf@@@Z@4HA 0000000180010a20 f   GibbsSampler.obj
 0001:0000fa20       ?dtor$0@?0???0?$basic_stringbuf@DU?$char_traits@D@std@@V?$allocator@D@2@@std@@QEAA@H@Z@4HA 0000000180010a20 f   Gaussian.obj
 0001:0000fa30       ?catch$0@?0??_Copy@?$basic_string@DU?$char_traits@D@std@@V?$allocator@D@2@@std@@QEAAX_K@Z@4HA 0000000180010a30 f   Gaussian.obj
 0001:0000fa3d       __catch$?_Copy@?$basic_string@DU?$char_traits@D@std@@V?$allocator@D@2@@std@@QEAAX_K@Z$0 0000000180010a3d f   Gaussian.obj
 0001:0000fa60       ?dtor$0@?0???$?0Ufill_zeros@fill@arma@@@?$Col@N@arma@@QEAA@IAEBU?$fill_class@Ufill_zeros@fill@arma@@@fill@1@@Z@4HA 0000000180010a60 f   GibbsSampler.obj
 0001:0000fa60       ?dtor$0@?0???$?0Ufill_zeros@fill@arma@@@?$Row@N@arma@@QEAA@IAEBU?$fill_class@Ufill_zeros@fill@arma@@@fill@1@@Z@4HA 0000000180010a60 f   GibbsSampler.obj
 0001:0000fa60       ?dtor$0@?0???0?$Row@N@arma@@QEAA@AEBV01@@Z@4HA 0000000180010a60 f   GibbsSampler.obj
 0001:0000fa60       ?dtor$0@?0???0?$Col@N@arma@@QEAA@AEBV01@@Z@4HA 0000000180010a60 f   Gaussian.obj
 0001:0000fa60       ?dtor$0@?0???0?$Row@N@arma@@QEAA@I@Z@4HA 0000000180010a60 f   nCRP-Gibbs-Sampler.obj
 0001:0000fa60       ?dtor$0@?0???0?$Col@N@arma@@QEAA@II@Z@4HA 0000000180010a60 f   GibbsSampler.obj
 0001:0000fa70       ?dtor$0@?0???0?$Proxy@V?$Op@V?$Row@N@arma@@Vop_cumsum_default@2@@arma@@@arma@@QEAA@AEBV?$Op@V?$Row@N@arma@@Vop_cumsum_default@2@@1@@Z@4HA 0000000180010a70 f   GibbsSampler.obj
 0001:0000fa70       ?dtor$0@?0???0?$Col@N@arma@@QEAA@XZ@4HA 0000000180010a70 f   Gaussian.obj
 0001:0000fa70       ?dtor$0@?0???0?$Proxy@V?$mtOp@IV?$Op@V?$Row@N@arma@@Vop_cumsum_default@2@@arma@@Vop_rel_gt_pre@2@@arma@@@arma@@QEAA@AEBV?$mtOp@IV?$Op@V?$Row@N@arma@@Vop_cumsum_default@2@@arma@@Vop_rel_gt_pre@2@@1@@Z@4HA 0000000180010a70 f   GibbsSampler.obj
 0001:0000fa70       ?dtor$0@?0???$?0V?$eOp@V?$eOp@V?$Col@N@arma@@Veop_scalar_minus_pre@2@@arma@@Veop_scalar_div_post@2@@arma@@@?$Col@N@arma@@QEAA@AEBU?$Base@NV?$eOp@V?$eOp@V?$Col@N@arma@@Veop_scalar_minus_pre@2@@arma@@Veop_scalar_div_post@2@@arma@@@1@@Z@4HA 0000000180010a70 f   Gaussian.obj
 0001:0000fa70       ?dtor$0@?0???$?0V?$subview@N@arma@@@?$Col@N@arma@@QEAA@AEBU?$Base@NV?$subview@N@arma@@@1@@Z@4HA 0000000180010a70 f   GibbsSampler.obj
 0001:0000fa70       ?dtor$0@?0???$?0V?$eOp@V?$eOp@V?$Row@N@arma@@Veop_scalar_minus_post@2@@arma@@Veop_exp@2@@arma@@@?$Row@N@arma@@QEAA@AEBU?$Base@NV?$eOp@V?$eOp@V?$Row@N@arma@@Veop_scalar_minus_post@2@@arma@@Veop_exp@2@@arma@@@1@@Z@4HA 0000000180010a70 f   GibbsSampler.obj
 0001:0000fa70       ?dtor$0@?0???0?$Row@N@arma@@QEAA@II@Z@4HA 0000000180010a70 f   GibbsSampler.obj
 0001:0000fa70       ?dtor$0@?0???0?$Row@N@arma@@QEAA@XZ@4HA 0000000180010a70 f   GibbsSampler.obj
 0001:0000fa70       ?dtor$0@?0???$?0V?$eOp@V?$Col@N@arma@@Veop_scalar_div_post@2@@arma@@@?$Col@N@arma@@QEAA@AEBU?$Base@NV?$eOp@V?$Col@N@arma@@Veop_scalar_div_post@2@@arma@@@1@@Z@4HA 0000000180010a70 f   Gaussian.obj
 0001:0000fa70       ?dtor$0@?0???$?0V?$Mat@N@arma@@@?$Row@N@arma@@QEAA@AEBU?$Base@NV?$Mat@N@arma@@@1@@Z@4HA 0000000180010a70 f   nCRP-Gibbs-Sampler.obj
 0001:0000fa70       ?dtor$0@?0???0?$Proxy@V?$Glue@V?$eOp@V?$Col@N@arma@@Veop_scalar_times@2@@arma@@V?$Op@V?$Col@N@arma@@Vop_htrans@2@@2@Vglue_times@2@@arma@@@arma@@QEAA@AEBV?$Glue@V?$eOp@V?$Col@N@arma@@Veop_scalar_times@2@@arma@@V?$Op@V?$Col@N@arma@@Vop_htrans@2@@2@Vglue_times@2@@1@@Z@4HA 0000000180010a70 f   Gaussian.obj
 0001:0000fa70       ?dtor$0@?0???0?$Proxy@V?$Glue@V?$Op@V?$Mat@N@arma@@Vop_htrans@2@@arma@@V?$Mat@N@2@Vglue_times@2@@arma@@@arma@@QEAA@AEBV?$Glue@V?$Op@V?$Mat@N@arma@@Vop_htrans@2@@arma@@V?$Mat@N@2@Vglue_times@2@@1@@Z@4HA 0000000180010a70 f   Gaussian.obj
 0001:0000fa70       ?dtor$0@?0???$?0V?$eGlue@V?$Col@N@arma@@V12@Veglue_plus@2@@arma@@@?$Col@N@arma@@QEAA@AEBU?$Base@NV?$eGlue@V?$Col@N@arma@@V12@Veglue_plus@2@@arma@@@1@@Z@4HA 0000000180010a70 f   Gaussian.obj
 0001:0000fa80       ?dtor$0@?0???$?6U?$char_traits@D@std@@@std@@YAAEAV?$basic_ostream@DU?$char_traits@D@std@@@0@AEAV10@PEBD@Z@4HA 0000000180010a80 f   Gaussian.obj
 0001:0000fa8c       ?catch$1@?0???$?6U?$char_traits@D@std@@@std@@YAAEAV?$basic_ostream@DU?$char_traits@D@std@@@0@AEAV10@PEBD@Z@4HA 0000000180010a8c f   Gaussian.obj
 0001:0000fa99       __catch$??$?6U?$char_traits@D@std@@@std@@YAAEAV?$basic_ostream@DU?$char_traits@D@std@@@0@AEAV10@PEBD@Z$0 0000000180010a99 f   Gaussian.obj
 0001:0000fad0       ?dtor$0@?0???$?6U?$char_traits@D@std@@@std@@YAAEAV?$basic_ostream@DU?$char_traits@D@std@@@0@AEAV10@D@Z@4HA 0000000180010ad0 f   Gaussian.obj
 0001:0000fadc       ?catch$1@?0???$?6U?$char_traits@D@std@@@std@@YAAEAV?$basic_ostream@DU?$char_traits@D@std@@@0@AEAV10@D@Z@4HA 0000000180010adc f   Gaussian.obj
 0001:0000fae9       __catch$??$?6U?$char_traits@D@std@@@std@@YAAEAV?$basic_ostream@DU?$char_traits@D@std@@@0@AEAV10@D@Z$0 0000000180010ae9 f   Gaussian.obj
 0001:0000fb20       ?dtor$0@?0???$randi@V?$Row@N@arma@@@arma@@YA?AV?$Row@N@0@IIAEBVdistr_param@0@PEBV10@@Z@4HA 0000000180010b20 f   GibbsSampler.obj
 0001:0000fb20       ?dtor$0@?0???$randi@V?$Col@N@arma@@@arma@@YA?AV?$Col@N@0@IIAEBVdistr_param@0@PEBV10@@Z@4HA 0000000180010b20 f   GibbsSampler.obj
 0001:0000fb20       ?dtor$0@?0???$regspace@V?$Col@N@arma@@@arma@@YA?AV?$Col@N@0@NN@Z@4HA 0000000180010b20 f   Gaussian.obj
 0001:0000fb50       ?dtor$0@?0???0?$eOp@V?$Op@V?$Mat@N@arma@@Vop_diagvec@2@@arma@@Veop_log@2@@arma@@QEAA@AEBV?$Op@V?$Mat@N@arma@@Vop_diagvec@2@@1@@Z@4HA 0000000180010b50 f   Gaussian.obj
 0001:0000fb60       ?dtor$0@?0???0?$eGlue@V?$eOp@V?$Mat@N@arma@@Veop_scalar_times@2@@arma@@V?$Glue@V?$eOp@V?$Col@N@arma@@Veop_scalar_times@2@@arma@@V?$Op@V?$Col@N@arma@@Vop_htrans@2@@2@Vglue_times@2@@2@Veglue_plus@2@@arma@@QEAA@AEBV?$eOp@V?$Mat@N@arma@@Veop_scalar_times@2@@1@AEBV?$Glue@V?$eOp@V?$Col@N@arma@@Veop_scalar_times@2@@arma@@V?$Op@V?$Col@N@arma@@Vop_htrans@2@@2@Vglue_times@2@@1@@Z@4HA 0000000180010b60 f   Gaussian.obj
 0001:0000fb70       ?dtor$0@?0???0?$eOp@V?$Glue@V?$Op@V?$Mat@N@arma@@Vop_htrans@2@@arma@@V?$Mat@N@2@Vglue_times@2@@arma@@Veop_scalar_div_post@2@@arma@@QEAA@AEBV?$Glue@V?$Op@V?$Mat@N@arma@@Vop_htrans@2@@arma@@V?$Mat@N@2@Vglue_times@2@@1@N@Z@4HA 0000000180010b70 f   Gaussian.obj
 0001:0000fb80       ?dtor$0@?0???0?$Proxy@V?$Op@V?$Mat@N@arma@@Vop_diagvec@2@@arma@@@arma@@QEAA@AEBV?$Op@V?$Mat@N@arma@@Vop_diagvec@2@@1@@Z@4HA 0000000180010b80 f   Gaussian.obj
 0001:0000fb90       ?dtor$0@?0???0?$Proxy_diagvec_mat@V?$Op@V?$Mat@N@arma@@Vop_diagvec@2@@arma@@@arma@@QEAA@AEBV?$Op@V?$Mat@N@arma@@Vop_diagvec@2@@1@@Z@4HA 0000000180010b90 f   Gaussian.obj
 0001:0000fba0       ?dtor$0@?0???$arma_stop_runtime_error@$$BY0BN@D@arma@@YAXAEAY0BN@$$CBD@Z@4HA 0000000180010ba0 f   Gaussian.obj
 0001:0000fba0       ?dtor$0@?0??_Endwrite@?$basic_filebuf@DU?$char_traits@D@std@@@std@@IEAA_NXZ@4HA 0000000180010ba0 f   GibbsSampler.obj
 0001:0000fbb0       ?dtor$0@?0???$apply@V?$Op@V?$Mat@N@arma@@Vop_htrans@2@@arma@@V?$Mat@N@2@@?$glue_times_redirect2_helper@$0A@@arma@@SAXAEAV?$Mat@N@1@AEBV?$Glue@V?$Op@V?$Mat@N@arma@@Vop_htrans@2@@arma@@V?$Mat@N@2@Vglue_times@2@@1@@Z@4HA 0000000180010bb0 f   Gaussian.obj
 0001:0000fbb0       ?dtor$0@?0???$apply@V?$eOp@V?$Col@N@arma@@Veop_scalar_times@2@@arma@@V?$Op@V?$Col@N@arma@@Vop_htrans@2@@2@@?$glue_times_redirect2_helper@$0A@@arma@@SAXAEAV?$Mat@N@1@AEBV?$Glue@V?$eOp@V?$Col@N@arma@@Veop_scalar_times@2@@arma@@V?$Op@V?$Col@N@arma@@Vop_htrans@2@@2@Vglue_times@2@@1@@Z@4HA 0000000180010bb0 f   Gaussian.obj
 0001:0000fbc0       ?dtor$0@?0???$apply_blas_type@NV?$Col@N@arma@@V12@@?$gemm@$0A@$00$00$0A@@arma@@SAXAEAV?$Mat@N@1@AEBV?$Col@N@1@1NN@Z@4HA 0000000180010bc0 f   Gaussian.obj
 0001:0000fbd0       ?dtor$0@?0???$apply@V?$Row@N@arma@@@op_cumsum_default@arma@@SAXAEAV?$Mat@N@1@AEBV?$Op@V?$Row@N@arma@@Vop_cumsum_default@2@@1@@Z@4HA 0000000180010bd0 f   GibbsSampler.obj
 0001:0000fbd0       ?dtor$0@?0???4?$Mat@N@arma@@QEAAAEBV01@AEBV?$subview@N@1@@Z@4HA 0000000180010bd0 f   GibbsSampler.obj
 0001:0000fbd0       ?dtor$0@?0???$apply@NV?$Col@N@arma@@@?$syrk_emul@$0A@$00$0A@@arma@@SAXAEAV?$Mat@N@1@AEBV?$Col@N@1@NN@Z@4HA 0000000180010bd0 f   Gaussian.obj
 0001:0000fbe0       ?dtor$0@?0??set_seed_random@arma_rng@arma@@SAXXZ@4HA 0000000180010be0 f   GibbsSampler.obj
 0001:0000fbec       ?catch$1@?0??set_seed_random@arma_rng@arma@@SAXXZ@4HA 0000000180010bec f   GibbsSampler.obj
 0001:0000fbf9       __catch$?set_seed_random@arma_rng@arma@@SAXXZ$0 0000000180010bf9 f   GibbsSampler.obj
 0001:0000fc10       ?dtor$0@?0???0GibbsSampler@@QEAA@XZ@4HA 0000000180010c10 f   GibbsSampler.obj
 0001:0000fc20       ?dtor$1@?0???0GibbsSampler@@QEAA@XZ@4HA 0000000180010c20 f   GibbsSampler.obj
 0001:0000fc33       ?dtor$2@?0???0GibbsSampler@@QEAA@XZ@4HA 0000000180010c33 f   GibbsSampler.obj
 0001:0000fc46       ?dtor$3@?0???0GibbsSampler@@QEAA@XZ@4HA 0000000180010c46 f   GibbsSampler.obj
 0001:0000fc59       ?dtor$4@?0???0GibbsSampler@@QEAA@XZ@4HA 0000000180010c59 f   GibbsSampler.obj
 0001:0000fc6c       ?dtor$5@?0???0GibbsSampler@@QEAA@XZ@4HA 0000000180010c6c f   GibbsSampler.obj
 0001:0000fc7f       ?dtor$6@?0???0GibbsSampler@@QEAA@XZ@4HA 0000000180010c7f f   GibbsSampler.obj
 0001:0000fca0       ?dtor$0@?0??init@GibbsSampler@@QEAAXNNV?$Row@N@arma@@N0V?$field@V?$Mat@N@arma@@@3@0@Z@4HA 0000000180010ca0 f   GibbsSampler.obj
 0001:0000fcac       ?dtor$1@?0??init@GibbsSampler@@QEAAXNNV?$Row@N@arma@@N0V?$field@V?$Mat@N@arma@@@3@0@Z@4HA 0000000180010cac f   GibbsSampler.obj
 0001:0000fcb8       ?dtor$2@?0??init@GibbsSampler@@QEAAXNNV?$Row@N@arma@@N0V?$field@V?$Mat@N@arma@@@3@0@Z@4HA 0000000180010cb8 f   GibbsSampler.obj
 0001:0000fcc4       ?dtor$3@?0??init@GibbsSampler@@QEAAXNNV?$Row@N@arma@@N0V?$field@V?$Mat@N@arma@@@3@0@Z@4HA 0000000180010cc4 f   GibbsSampler.obj
 0001:0000fcd0       ?dtor$4@?0??init@GibbsSampler@@QEAAXNNV?$Row@N@arma@@N0V?$field@V?$Mat@N@arma@@@3@0@Z@4HA 0000000180010cd0 f   GibbsSampler.obj
 0001:0000fcdc       ?dtor$5@?0??init@GibbsSampler@@QEAAXNNV?$Row@N@arma@@N0V?$field@V?$Mat@N@arma@@@3@0@Z@4HA 0000000180010cdc f   GibbsSampler.obj
 0001:0000fce8       ?dtor$6@?0??init@GibbsSampler@@QEAAXNNV?$Row@N@arma@@N0V?$field@V?$Mat@N@arma@@@3@0@Z@4HA 0000000180010ce8 f   GibbsSampler.obj
 0001:0000fcf4       ?dtor$7@?0??init@GibbsSampler@@QEAAXNNV?$Row@N@arma@@N0V?$field@V?$Mat@N@arma@@@3@0@Z@4HA 0000000180010cf4 f   GibbsSampler.obj
 0001:0000fd00       ?dtor$8@?0??init@GibbsSampler@@QEAAXNNV?$Row@N@arma@@N0V?$field@V?$Mat@N@arma@@@3@0@Z@4HA 0000000180010d00 f   GibbsSampler.obj
 0001:0000fd0c       ?dtor$9@?0??init@GibbsSampler@@QEAAXNNV?$Row@N@arma@@N0V?$field@V?$Mat@N@arma@@@3@0@Z@4HA 0000000180010d0c f   GibbsSampler.obj
 0001:0000fd18       ?dtor$10@?0??init@GibbsSampler@@QEAAXNNV?$Row@N@arma@@N0V?$field@V?$Mat@N@arma@@@3@0@Z@4HA 0000000180010d18 f   GibbsSampler.obj
 0001:0000fd24       ?dtor$11@?0??init@GibbsSampler@@QEAAXNNV?$Row@N@arma@@N0V?$field@V?$Mat@N@arma@@@3@0@Z@4HA 0000000180010d24 f   GibbsSampler.obj
 0001:0000fd30       ?dtor$12@?0??init@GibbsSampler@@QEAAXNNV?$Row@N@arma@@N0V?$field@V?$Mat@N@arma@@@3@0@Z@4HA 0000000180010d30 f   GibbsSampler.obj
 0001:0000fd3c       ?dtor$13@?0??init@GibbsSampler@@QEAAXNNV?$Row@N@arma@@N0V?$field@V?$Mat@N@arma@@@3@0@Z@4HA 0000000180010d3c f   GibbsSampler.obj
 0001:0000fd48       ?dtor$14@?0??init@GibbsSampler@@QEAAXNNV?$Row@N@arma@@N0V?$field@V?$Mat@N@arma@@@3@0@Z@4HA 0000000180010d48 f   GibbsSampler.obj
 0001:0000fd54       ?dtor$15@?0??init@GibbsSampler@@QEAAXNNV?$Row@N@arma@@N0V?$field@V?$Mat@N@arma@@@3@0@Z@4HA 0000000180010d54 f   GibbsSampler.obj
 0001:0000fd60       ?dtor$16@?0??init@GibbsSampler@@QEAAXNNV?$Row@N@arma@@N0V?$field@V?$Mat@N@arma@@@3@0@Z@4HA 0000000180010d60 f   GibbsSampler.obj
 0001:0000fd6c       ?dtor$17@?0??init@GibbsSampler@@QEAAXNNV?$Row@N@arma@@N0V?$field@V?$Mat@N@arma@@@3@0@Z@4HA 0000000180010d6c f   GibbsSampler.obj
 0001:0000fd78       ?dtor$18@?0??init@GibbsSampler@@QEAAXNNV?$Row@N@arma@@N0V?$field@V?$Mat@N@arma@@@3@0@Z@4HA 0000000180010d78 f   GibbsSampler.obj
 0001:0000fd84       ?dtor$19@?0??init@GibbsSampler@@QEAAXNNV?$Row@N@arma@@N0V?$field@V?$Mat@N@arma@@@3@0@Z@4HA 0000000180010d84 f   GibbsSampler.obj
 0001:0000fd90       ?dtor$20@?0??init@GibbsSampler@@QEAAXNNV?$Row@N@arma@@N0V?$field@V?$Mat@N@arma@@@3@0@Z@4HA 0000000180010d90 f   GibbsSampler.obj
 0001:0000fda0       ?dtor$0@?0??run@GibbsSampler@@QEAAXN@Z@4HA 0000000180010da0 f   GibbsSampler.obj
 0001:0000fdac       ?dtor$1@?0??run@GibbsSampler@@QEAAXN@Z@4HA 0000000180010dac f   GibbsSampler.obj
 0001:0000fdb8       ?dtor$2@?0??run@GibbsSampler@@QEAAXN@Z@4HA 0000000180010db8 f   GibbsSampler.obj
 0001:0000fdc4       ?dtor$3@?0??run@GibbsSampler@@QEAAXN@Z@4HA 0000000180010dc4 f   GibbsSampler.obj
 0001:0000fdd0       ?dtor$4@?0??run@GibbsSampler@@QEAAXN@Z@4HA 0000000180010dd0 f   GibbsSampler.obj
 0001:0000fddc       ?dtor$5@?0??run@GibbsSampler@@QEAAXN@Z@4HA 0000000180010ddc f   GibbsSampler.obj
 0001:0000fde8       ?dtor$6@?0??run@GibbsSampler@@QEAAXN@Z@4HA 0000000180010de8 f   GibbsSampler.obj
 0001:0000fdf4       ?dtor$7@?0??run@GibbsSampler@@QEAAXN@Z@4HA 0000000180010df4 f   GibbsSampler.obj
 0001:0000fe00       ?dtor$8@?0??run@GibbsSampler@@QEAAXN@Z@4HA 0000000180010e00 f   GibbsSampler.obj
 0001:0000fe0c       ?dtor$9@?0??run@GibbsSampler@@QEAAXN@Z@4HA 0000000180010e0c f   GibbsSampler.obj
 0001:0000fe18       ?dtor$10@?0??run@GibbsSampler@@QEAAXN@Z@4HA 0000000180010e18 f   GibbsSampler.obj
 0001:0000fe24       ?dtor$11@?0??run@GibbsSampler@@QEAAXN@Z@4HA 0000000180010e24 f   GibbsSampler.obj
 0001:0000fe30       ?dtor$12@?0??run@GibbsSampler@@QEAAXN@Z@4HA 0000000180010e30 f   GibbsSampler.obj
 0001:0000fe3c       ?dtor$13@?0??run@GibbsSampler@@QEAAXN@Z@4HA 0000000180010e3c f   GibbsSampler.obj
 0001:0000fe48       ?dtor$14@?0??run@GibbsSampler@@QEAAXN@Z@4HA 0000000180010e48 f   GibbsSampler.obj
 0001:0000fe54       ?dtor$15@?0??run@GibbsSampler@@QEAAXN@Z@4HA 0000000180010e54 f   GibbsSampler.obj
 0001:0000fe60       ?dtor$16@?0??run@GibbsSampler@@QEAAXN@Z@4HA 0000000180010e60 f   GibbsSampler.obj
 0001:0000fe6c       ?dtor$17@?0??run@GibbsSampler@@QEAAXN@Z@4HA 0000000180010e6c f   GibbsSampler.obj
 0001:0000fe78       ?dtor$18@?0??run@GibbsSampler@@QEAAXN@Z@4HA 0000000180010e78 f   GibbsSampler.obj
 0001:0000fe84       ?dtor$19@?0??run@GibbsSampler@@QEAAXN@Z@4HA 0000000180010e84 f   GibbsSampler.obj
 0001:0000fe90       ?dtor$20@?0??run@GibbsSampler@@QEAAXN@Z@4HA 0000000180010e90 f   GibbsSampler.obj
 0001:0000fe9c       ?dtor$21@?0??run@GibbsSampler@@QEAAXN@Z@4HA 0000000180010e9c f   GibbsSampler.obj
 0001:0000fea8       ?dtor$22@?0??run@GibbsSampler@@QEAAXN@Z@4HA 0000000180010ea8 f   GibbsSampler.obj
 0001:0000feb4       ?dtor$23@?0??run@GibbsSampler@@QEAAXN@Z@4HA 0000000180010eb4 f   GibbsSampler.obj
 0001:0000fec0       ?dtor$24@?0??run@GibbsSampler@@QEAAXN@Z@4HA 0000000180010ec0 f   GibbsSampler.obj
 0001:0000fecc       ?dtor$25@?0??run@GibbsSampler@@QEAAXN@Z@4HA 0000000180010ecc f   GibbsSampler.obj
 0001:0000fee0       ?dtor$0@?0???0?$basic_ifstream@DU?$char_traits@D@std@@@std@@QEAA@PEBDHH@Z@4HA 0000000180010ee0 f   GibbsSampler.obj
 0001:0000ff0e       ?dtor$1@?0???0?$basic_ifstream@DU?$char_traits@D@std@@@std@@QEAA@PEBDHH@Z@4HA 0000000180010f0e f   GibbsSampler.obj
 0001:0000ff20       ?dtor$2@?0???0?$basic_ifstream@DU?$char_traits@D@std@@@std@@QEAA@PEBDHH@Z@4HA 0000000180010f20 f   GibbsSampler.obj
 0001:0000ff30       ?dtor$0@?0??uflow@?$basic_filebuf@DU?$char_traits@D@std@@@std@@MEAAHXZ@4HA 0000000180010f30 f   GibbsSampler.obj
 0001:0000ff40       ?dtor$0@?0??overflow@?$basic_filebuf@DU?$char_traits@D@std@@@std@@MEAAHH@Z@4HA 0000000180010f40 f   GibbsSampler.obj
 0001:0000ff50       ?dtor$0@?0??open@?$basic_filebuf@DU?$char_traits@D@std@@@std@@QEAAPEAV12@PEBDHH@Z@4HA 0000000180010f50 f   GibbsSampler.obj
 0001:0000ff60       ?dtor$0@?0???$use_facet@V?$codecvt@DDU_Mbstatet@@@std@@@std@@YAAEBV?$codecvt@DDU_Mbstatet@@@0@AEBVlocale@0@@Z@4HA 0000000180010f60 f   GibbsSampler.obj
 0001:0000ff70       ?dtor$0@?0???0?$subview_col@N@arma@@IEAA@AEBV?$Mat@N@1@I@Z@4HA 0000000180010f70 f   GibbsSampler.obj
 0001:0000ff80       ?dtor$0@?0???$apply@V?$Op@V?$Row@N@arma@@Vop_cumsum_default@2@@arma@@@op_rel_gt_pre@arma@@SAXAEAV?$Mat@I@1@AEBV?$mtOp@IV?$Op@V?$Row@N@arma@@Vop_cumsum_default@2@@arma@@Vop_rel_gt_pre@2@@1@@Z@4HA 0000000180010f80 f   GibbsSampler.obj
 0001:0000ff80       ?dtor$0@?0???$accu@V?$mtOp@IV?$Op@V?$Row@N@arma@@Vop_cumsum_default@2@@arma@@Vop_rel_gt_pre@2@@arma@@@arma@@YAIAEBV?$mtOp@IV?$Op@V?$Row@N@arma@@Vop_cumsum_default@2@@arma@@Vop_rel_gt_pre@2@@0@@Z@4HA 0000000180010f80 f   GibbsSampler.obj
 0001:0000ff90       ?dtor$1@?0??create_objects@?$field@VGaussian@@@arma@@AEAAXXZ@4HA 0000000180010f90 f   GibbsSampler.obj
 0001:0000ffb0       ?dtor$1@?0??create_objects@?$field@V?$field@V?$Row@N@arma@@@arma@@@arma@@AEAAXXZ@4HA 0000000180010fb0 f   GibbsSampler.obj
 0001:0000ffb0       ?dtor$1@?0??create_objects@?$field@V?$field@VGaussian@@@arma@@@arma@@AEAAXXZ@4HA 0000000180010fb0 f   GibbsSampler.obj
 0001:0000ffd0       ?dtor$1@?0??create_objects@?$field@V?$Mat@N@arma@@@arma@@AEAAXXZ@4HA 0000000180010fd0 f   GibbsSampler.obj
 0001:0000ffd0       ?dtor$1@?0??create_objects@?$field@V?$Row@N@arma@@@arma@@AEAAXXZ@4HA 0000000180010fd0 f   GibbsSampler.obj
 0001:0000fff0       ?dtor$0@?0??createCell@@YAPEAUmxArray_tag@@V?$field@V?$Row@N@arma@@@arma@@@Z@4HA 0000000180010ff0 f   nCRP-Gibbs-Sampler.obj
 0001:00010000       ?dtor$0@?0??createCell@@YAPEAUmxArray_tag@@V?$field@V?$field@V?$Row@N@arma@@@arma@@@arma@@@Z@4HA 0000000180011000 f   nCRP-Gibbs-Sampler.obj
 0001:0001000c       ?dtor$1@?0??createCell@@YAPEAUmxArray_tag@@V?$field@V?$field@V?$Row@N@arma@@@arma@@@arma@@@Z@4HA 000000018001100c f   nCRP-Gibbs-Sampler.obj
 0001:00010020       ?dtor$0@?0??createMuCell@@YAPEAUmxArray_tag@@V?$field@V?$field@VGaussian@@@arma@@@arma@@@Z@4HA 0000000180011020 f   nCRP-Gibbs-Sampler.obj
 0001:0001002c       ?dtor$1@?0??createMuCell@@YAPEAUmxArray_tag@@V?$field@V?$field@VGaussian@@@arma@@@arma@@@Z@4HA 000000018001102c f   nCRP-Gibbs-Sampler.obj
 0001:00010038       ?dtor$2@?0??createMuCell@@YAPEAUmxArray_tag@@V?$field@V?$field@VGaussian@@@arma@@@arma@@@Z@4HA 0000000180011038 f   nCRP-Gibbs-Sampler.obj
 0001:00010044       ?dtor$3@?0??createMuCell@@YAPEAUmxArray_tag@@V?$field@V?$field@VGaussian@@@arma@@@arma@@@Z@4HA 0000000180011044 f   nCRP-Gibbs-Sampler.obj
 0001:00010050       ?dtor$4@?0??createMuCell@@YAPEAUmxArray_tag@@V?$field@V?$field@VGaussian@@@arma@@@arma@@@Z@4HA 0000000180011050 f   nCRP-Gibbs-Sampler.obj
 0001:00010060       ?dtor$0@?0??createSigmaCell@@YAPEAUmxArray_tag@@V?$field@V?$field@VGaussian@@@arma@@@arma@@@Z@4HA 0000000180011060 f   nCRP-Gibbs-Sampler.obj
 0001:0001006c       ?dtor$1@?0??createSigmaCell@@YAPEAUmxArray_tag@@V?$field@V?$field@VGaussian@@@arma@@@arma@@@Z@4HA 000000018001106c f   nCRP-Gibbs-Sampler.obj
 0001:00010078       ?dtor$2@?0??createSigmaCell@@YAPEAUmxArray_tag@@V?$field@V?$field@VGaussian@@@arma@@@arma@@@Z@4HA 0000000180011078 f   nCRP-Gibbs-Sampler.obj
 0001:00010084       ?dtor$3@?0??createSigmaCell@@YAPEAUmxArray_tag@@V?$field@V?$field@VGaussian@@@arma@@@arma@@@Z@4HA 0000000180011084 f   nCRP-Gibbs-Sampler.obj
 0001:00010090       ?dtor$0@?0??slice@?$Cube@N@arma@@QEAAAEAV?$Mat@N@2@I@Z@4HA 0000000180011090 f   nCRP-Gibbs-Sampler.obj
 0001:000100b0       ?dtor$0@?0???0?$unwrap_check@V?$Mat@N@arma@@@arma@@QEAA@AEBV?$Mat@N@1@_N@Z@4HA 00000001800110b0 f   nCRP-Gibbs-Sampler.obj
 0001:000100cd       ?fin$0@?0??dllmain_crt_process_attach@@YAHQEAUHINSTANCE__@@QEAX@Z@4HA 00000001800110cd f   MSVCRT:dll_dllmain.obj
 0001:000100e4       ?fin$0@?0??dllmain_crt_process_detach@@YAH_N@Z@4HA 00000001800110e4 f   MSVCRT:dll_dllmain.obj
 0001:00010100       ?filt$0@?0??dllmain_dispatch@@YAHQEAUHINSTANCE__@@KQEAX@Z@4HA 0000000180011100 f   MSVCRT:dll_dllmain.obj
 0001:00010136       __scrt_is_nonwritable_in_current_image$filt$0 0000000180011136 f   MSVCRT:utility.obj
 0001:0001014e       ?catch$0@?0???2@YAPEAX_KAEBUnothrow_t@std@@@Z@4HA 000000018001114e f   MSVCRT:new_scalar_nothrow.obj
 0001:0001015b       __catch$??2@YAPEAX_KAEBUnothrow_t@std@@@Z$0 000000018001115b f   MSVCRT:new_scalar_nothrow.obj
 0001:0001016c       ??__F_Fac_tidy_reg@std@@YAXXZ 000000018001116c f   msvcprt:locale0_implib.obj
 0002:000005f0       ?_Fac_tidy_reg$initializer$@std@@3P6AXXZEA 00000001800125f0     msvcprt:locale0_implib.obj
 0002:000005f8       ?none$initializer$@fill@arma@@3P6AXXZEA 00000001800125f8     Gaussian.obj
 0002:00000600       ?zeros$initializer$@fill@arma@@3P6AXXZEA 0000000180012600     Gaussian.obj
 0002:00000608       ?ones$initializer$@fill@arma@@3P6AXXZEA 0000000180012608     Gaussian.obj
 0002:00000610       ?eye$initializer$@fill@arma@@3P6AXXZEA 0000000180012610     Gaussian.obj
 0002:00000618       ?randu$initializer$@fill@arma@@3P6AXXZEA 0000000180012618     Gaussian.obj
 0002:00000620       ?randn$initializer$@fill@arma@@3P6AXXZEA 0000000180012620     Gaussian.obj
 0002:00000628       ?none$initializer$@solve_opts@arma@@3P6AXXZEA 0000000180012628     Gaussian.obj
 0002:00000630       ?fast$initializer$@solve_opts@arma@@3P6AXXZEA 0000000180012630     Gaussian.obj
 0002:00000638       ?equilibrate$initializer$@solve_opts@arma@@3P6AXXZEA 0000000180012638     Gaussian.obj
 0002:00000640       ?no_approx$initializer$@solve_opts@arma@@3P6AXXZEA 0000000180012640     Gaussian.obj
 0002:00000648       ?triu$initializer$@solve_opts@arma@@3P6AXXZEA 0000000180012648     Gaussian.obj
 0002:00000650       ?tril$initializer$@solve_opts@arma@@3P6AXXZEA 0000000180012650     Gaussian.obj
 0002:00000658       ?eucl_dist$initializer$@arma@@3P6AXXZEA 0000000180012658     Gaussian.obj
 0002:00000660       ?maha_dist$initializer$@arma@@3P6AXXZEA 0000000180012660     Gaussian.obj
 0002:00000668       ?prob_dist$initializer$@arma@@3P6AXXZEA 0000000180012668     Gaussian.obj
 0002:00000670       ?keep_existing$initializer$@arma@@3P6AXXZEA 0000000180012670     Gaussian.obj
 0002:00000678       ?static_subset$initializer$@arma@@3P6AXXZEA 0000000180012678     Gaussian.obj
 0002:00000680       ?static_spread$initializer$@arma@@3P6AXXZEA 0000000180012680     Gaussian.obj
 0002:00000688       ?random_subset$initializer$@arma@@3P6AXXZEA 0000000180012688     Gaussian.obj
 0002:00000690       ?random_spread$initializer$@arma@@3P6AXXZEA 0000000180012690     Gaussian.obj
 0002:00000698       ?none$initializer$@fill@arma@@3P6AXXZEA 0000000180012698     GibbsSampler.obj
 0002:000006a0       ?zeros$initializer$@fill@arma@@3P6AXXZEA 00000001800126a0     GibbsSampler.obj
 0002:000006a8       ?ones$initializer$@fill@arma@@3P6AXXZEA 00000001800126a8     GibbsSampler.obj
 0002:000006b0       ?eye$initializer$@fill@arma@@3P6AXXZEA 00000001800126b0     GibbsSampler.obj
 0002:000006b8       ?randu$initializer$@fill@arma@@3P6AXXZEA 00000001800126b8     GibbsSampler.obj
 0002:000006c0       ?randn$initializer$@fill@arma@@3P6AXXZEA 00000001800126c0     GibbsSampler.obj
 0002:000006c8       ?none$initializer$@solve_opts@arma@@3P6AXXZEA 00000001800126c8     GibbsSampler.obj
 0002:000006d0       ?fast$initializer$@solve_opts@arma@@3P6AXXZEA 00000001800126d0     GibbsSampler.obj
 0002:000006d8       ?equilibrate$initializer$@solve_opts@arma@@3P6AXXZEA 00000001800126d8     GibbsSampler.obj
 0002:000006e0       ?no_approx$initializer$@solve_opts@arma@@3P6AXXZEA 00000001800126e0     GibbsSampler.obj
 0002:000006e8       ?triu$initializer$@solve_opts@arma@@3P6AXXZEA 00000001800126e8     GibbsSampler.obj
 0002:000006f0       ?tril$initializer$@solve_opts@arma@@3P6AXXZEA 00000001800126f0     GibbsSampler.obj
 0002:000006f8       ?eucl_dist$initializer$@arma@@3P6AXXZEA 00000001800126f8     GibbsSampler.obj
 0002:00000700       ?maha_dist$initializer$@arma@@3P6AXXZEA 0000000180012700     GibbsSampler.obj
 0002:00000708       ?prob_dist$initializer$@arma@@3P6AXXZEA 0000000180012708     GibbsSampler.obj
 0002:00000710       ?keep_existing$initializer$@arma@@3P6AXXZEA 0000000180012710     GibbsSampler.obj
 0002:00000718       ?static_subset$initializer$@arma@@3P6AXXZEA 0000000180012718     GibbsSampler.obj
 0002:00000720       ?static_spread$initializer$@arma@@3P6AXXZEA 0000000180012720     GibbsSampler.obj
 0002:00000728       ?random_subset$initializer$@arma@@3P6AXXZEA 0000000180012728     GibbsSampler.obj
 0002:00000730       ?random_spread$initializer$@arma@@3P6AXXZEA 0000000180012730     GibbsSampler.obj
 0002:00000738       ??nan$initializer$@?$Datum@N@arma@@2P6AXXZEA@@3P6AXXZEA 0000000180012738     GibbsSampler.obj
 0002:00000740       ?none$initializer$@fill@arma@@3P6AXXZEA 0000000180012740     nCRP-Gibbs-Sampler.obj
 0002:00000748       ?zeros$initializer$@fill@arma@@3P6AXXZEA 0000000180012748     nCRP-Gibbs-Sampler.obj
 0002:00000750       ?ones$initializer$@fill@arma@@3P6AXXZEA 0000000180012750     nCRP-Gibbs-Sampler.obj
 0002:00000758       ?eye$initializer$@fill@arma@@3P6AXXZEA 0000000180012758     nCRP-Gibbs-Sampler.obj
 0002:00000760       ?randu$initializer$@fill@arma@@3P6AXXZEA 0000000180012760     nCRP-Gibbs-Sampler.obj
 0002:00000768       ?randn$initializer$@fill@arma@@3P6AXXZEA 0000000180012768     nCRP-Gibbs-Sampler.obj
 0002:00000770       ?none$initializer$@solve_opts@arma@@3P6AXXZEA 0000000180012770     nCRP-Gibbs-Sampler.obj
 0002:00000778       ?fast$initializer$@solve_opts@arma@@3P6AXXZEA 0000000180012778     nCRP-Gibbs-Sampler.obj
 0002:00000780       ?equilibrate$initializer$@solve_opts@arma@@3P6AXXZEA 0000000180012780     nCRP-Gibbs-Sampler.obj
 0002:00000788       ?no_approx$initializer$@solve_opts@arma@@3P6AXXZEA 0000000180012788     nCRP-Gibbs-Sampler.obj
 0002:00000790       ?triu$initializer$@solve_opts@arma@@3P6AXXZEA 0000000180012790     nCRP-Gibbs-Sampler.obj
 0002:00000798       ?tril$initializer$@solve_opts@arma@@3P6AXXZEA 0000000180012798     nCRP-Gibbs-Sampler.obj
 0002:000007a0       ?eucl_dist$initializer$@arma@@3P6AXXZEA 00000001800127a0     nCRP-Gibbs-Sampler.obj
 0002:000007a8       ?maha_dist$initializer$@arma@@3P6AXXZEA 00000001800127a8     nCRP-Gibbs-Sampler.obj
 0002:000007b0       ?prob_dist$initializer$@arma@@3P6AXXZEA 00000001800127b0     nCRP-Gibbs-Sampler.obj
 0002:000007b8       ?keep_existing$initializer$@arma@@3P6AXXZEA 00000001800127b8     nCRP-Gibbs-Sampler.obj
 0002:000007c0       ?static_subset$initializer$@arma@@3P6AXXZEA 00000001800127c0     nCRP-Gibbs-Sampler.obj
 0002:000007c8       ?static_spread$initializer$@arma@@3P6AXXZEA 00000001800127c8     nCRP-Gibbs-Sampler.obj
 0002:000007d0       ?random_subset$initializer$@arma@@3P6AXXZEA 00000001800127d0     nCRP-Gibbs-Sampler.obj
 0002:000007d8       ?random_spread$initializer$@arma@@3P6AXXZEA 00000001800127d8     nCRP-Gibbs-Sampler.obj
 0002:000007f0       ?__scrt_initialize_tss_var@@3P6AHXZEA 00000001800127f0     MSVCRT:thread_safe_statics.obj
 0002:00000910       GS_ExceptionPointers       0000000180012910     MSVCRT:gs_report.obj
 0002:00000980       $cppxdata$??2@YAPEAX_KAEBUnothrow_t@std@@@Z 0000000180012980     MSVCRT:new_scalar_nothrow.obj
 0002:000009a8       $cppxdata$??_G_Fac_node@std@@QEAAPEAXI@Z 00000001800129a8     msvcprt:locale0_implib.obj
 0002:000010a0       $cppxdata$??$apply@NV?$Col@N@arma@@@?$syrk_emul@$0A@$00$0A@@arma@@SAXAEAV?$Mat@N@1@AEBV?$Col@N@1@NN@Z 00000001800130a0     Gaussian.obj
 0002:000010c8       $cppxdata$??$apply_blas_type@NV?$Col@N@arma@@V12@@?$gemm@$0A@$00$00$0A@@arma@@SAXAEAV?$Mat@N@1@AEBV?$Col@N@1@1NN@Z 00000001800130c8     Gaussian.obj
 0002:000010f0       $cppxdata$??$apply@V?$eOp@V?$Col@N@arma@@Veop_scalar_times@2@@arma@@V?$Op@V?$Col@N@arma@@Vop_htrans@2@@2@@?$glue_times_redirect2_helper@$0A@@arma@@SAXAEAV?$Mat@N@1@AEBV?$Glue@V?$eOp@V?$Col@N@arma@@Veop_scalar_times@2@@arma@@V?$Op@V?$Col@N@arma@@Vop_htrans@2@@2@Vglue_times@2@@1@@Z 00000001800130f0     Gaussian.obj
 0002:00001118       $cppxdata$??$apply@V?$Op@V?$Mat@N@arma@@Vop_htrans@2@@arma@@V?$Mat@N@2@@?$glue_times_redirect2_helper@$0A@@arma@@SAXAEAV?$Mat@N@1@AEBV?$Glue@V?$Op@V?$Mat@N@arma@@Vop_htrans@2@@arma@@V?$Mat@N@2@Vglue_times@2@@1@@Z 0000000180013118     Gaussian.obj
 0002:00001140       $cppxdata$??1?$unwrap_check@V?$Mat@N@arma@@@arma@@QEAA@XZ 0000000180013140     Gaussian.obj
 0002:00001168       $cppxdata$??$arma_stop_runtime_error@$$BY0BN@D@arma@@YAXAEAY0BN@$$CBD@Z 0000000180013168     Gaussian.obj
 0002:00001190       $cppxdata$??0?$Proxy_diagvec_mat@V?$Op@V?$Mat@N@arma@@Vop_diagvec@2@@arma@@@arma@@QEAA@AEBV?$Op@V?$Mat@N@arma@@Vop_diagvec@2@@1@@Z 0000000180013190     Gaussian.obj
 0002:000011b8       $cppxdata$??0?$Proxy@V?$Op@V?$Mat@N@arma@@Vop_diagvec@2@@arma@@@arma@@QEAA@AEBV?$Op@V?$Mat@N@arma@@Vop_diagvec@2@@1@@Z 00000001800131b8     Gaussian.obj
 0002:000011e0       $cppxdata$??0?$Proxy@V?$Glue@V?$eOp@V?$Col@N@arma@@Veop_scalar_times@2@@arma@@V?$Op@V?$Col@N@arma@@Vop_htrans@2@@2@Vglue_times@2@@arma@@@arma@@QEAA@AEBV?$Glue@V?$eOp@V?$Col@N@arma@@Veop_scalar_times@2@@arma@@V?$Op@V?$Col@N@arma@@Vop_htrans@2@@2@Vglue_times@2@@1@@Z 00000001800131e0     Gaussian.obj
 0002:00001208       $cppxdata$??0?$Proxy@V?$Glue@V?$Op@V?$Mat@N@arma@@Vop_htrans@2@@arma@@V?$Mat@N@2@Vglue_times@2@@arma@@@arma@@QEAA@AEBV?$Glue@V?$Op@V?$Mat@N@arma@@Vop_htrans@2@@arma@@V?$Mat@N@2@Vglue_times@2@@1@@Z 0000000180013208     Gaussian.obj
 0002:00001230       $cppxdata$??0?$eOp@V?$Glue@V?$Op@V?$Mat@N@arma@@Vop_htrans@2@@arma@@V?$Mat@N@2@Vglue_times@2@@arma@@Veop_scalar_div_post@2@@arma@@QEAA@AEBV?$Glue@V?$Op@V?$Mat@N@arma@@Vop_htrans@2@@arma@@V?$Mat@N@2@Vglue_times@2@@1@N@Z 0000000180013230     Gaussian.obj
 0002:00001258       $cppxdata$??0?$eGlue@V?$eOp@V?$Mat@N@arma@@Veop_scalar_times@2@@arma@@V?$Glue@V?$eOp@V?$Col@N@arma@@Veop_scalar_times@2@@arma@@V?$Op@V?$Col@N@arma@@Vop_htrans@2@@2@Vglue_times@2@@2@Veglue_plus@2@@arma@@QEAA@AEBV?$eOp@V?$Mat@N@arma@@Veop_scalar_times@2@@1@AEBV?$Glue@V?$eOp@V?$Col@N@arma@@Veop_scalar_times@2@@arma@@V?$Op@V?$Col@N@arma@@Vop_htrans@2@@2@Vglue_times@2@@1@@Z 0000000180013258     Gaussian.obj
 0002:00001280       $cppxdata$??0?$eOp@V?$Op@V?$Mat@N@arma@@Vop_diagvec@2@@arma@@Veop_log@2@@arma@@QEAA@AEBV?$Op@V?$Mat@N@arma@@Vop_diagvec@2@@1@@Z 0000000180013280     Gaussian.obj
 0002:000012a8       $cppxdata$??$?0V?$eGlue@V?$Col@N@arma@@V12@Veglue_plus@2@@arma@@@?$Col@N@arma@@QEAA@AEBU?$Base@NV?$eGlue@V?$Col@N@arma@@V12@Veglue_plus@2@@arma@@@1@@Z 00000001800132a8     Gaussian.obj
 0002:000012d0       $cppxdata$??1?$eOp@V?$Glue@V?$Op@V?$Mat@N@arma@@Vop_htrans@2@@arma@@V?$Mat@N@2@Vglue_times@2@@arma@@Veop_scalar_div_post@2@@arma@@QEAA@XZ 00000001800132d0     Gaussian.obj
 0002:000012f8       $cppxdata$??1?$eGlue@V?$eOp@V?$Mat@N@arma@@Veop_scalar_times@2@@arma@@V?$Glue@V?$eOp@V?$Col@N@arma@@Veop_scalar_times@2@@arma@@V?$Op@V?$Col@N@arma@@Vop_htrans@2@@2@Vglue_times@2@@2@Veglue_plus@2@@arma@@QEAA@XZ 00000001800132f8     Gaussian.obj
 0002:00001320       $cppxdata$??1?$eOp@V?$Op@V?$Mat@N@arma@@Vop_diagvec@2@@arma@@Veop_log@2@@arma@@QEAA@XZ 0000000180013320     Gaussian.obj
 0002:00001348       $cppxdata$??$?0V?$eOp@V?$Col@N@arma@@Veop_scalar_div_post@2@@arma@@@?$Col@N@arma@@QEAA@AEBU?$Base@NV?$eOp@V?$Col@N@arma@@Veop_scalar_div_post@2@@arma@@@1@@Z 0000000180013348     Gaussian.obj
 0002:00001370       $cppxdata$??$?0V?$eOp@V?$eOp@V?$Col@N@arma@@Veop_scalar_minus_pre@2@@arma@@Veop_scalar_div_post@2@@arma@@@?$Col@N@arma@@QEAA@AEBU?$Base@NV?$eOp@V?$eOp@V?$Col@N@arma@@Veop_scalar_minus_pre@2@@arma@@Veop_scalar_div_post@2@@arma@@@1@@Z 0000000180013370     Gaussian.obj
 0002:00001398       $cppxdata$??$regspace@V?$Col@N@arma@@@arma@@YA?AV?$Col@N@0@NN@Z 0000000180013398     Gaussian.obj
 0002:000013c0       $cppxdata$??1?$Op@V?$Mat@N@arma@@Vop_diagvec@2@@arma@@QEAA@XZ 00000001800133c0     Gaussian.obj
 0002:000013c0       $cppxdata$??1?$eOp@V?$Col@N@arma@@Veop_scalar_div_post@2@@arma@@QEAA@XZ 00000001800133c0     Gaussian.obj
 0002:000013c0       $cppxdata$??1?$eOp@V?$Col@N@arma@@Veop_scalar_minus_pre@2@@arma@@QEAA@XZ 00000001800133c0     Gaussian.obj
 0002:000013c0       $cppxdata$??1?$eOp@V?$eOp@V?$Col@N@arma@@Veop_scalar_minus_pre@2@@arma@@Veop_scalar_div_post@2@@arma@@QEAA@XZ 00000001800133c0     Gaussian.obj
 0002:000013c0       $cppxdata$??1?$eOp@V?$Mat@N@arma@@Veop_scalar_times@2@@arma@@QEAA@XZ 00000001800133c0     Gaussian.obj
 0002:000013c0       $cppxdata$??1?$Op@V?$Col@N@arma@@Vop_htrans@2@@arma@@QEAA@XZ 00000001800133c0     Gaussian.obj
 0002:000013c0       $cppxdata$??1?$diagview@N@arma@@QEAA@XZ 00000001800133c0     Gaussian.obj
 0002:000013c0       $cppxdata$??1?$eGlue@V?$Col@N@arma@@V12@Veglue_minus@2@@arma@@QEAA@XZ 00000001800133c0     Gaussian.obj
 0002:000013c0       $cppxdata$??1?$Op@V?$Mat@N@arma@@Vop_htrans@2@@arma@@QEAA@XZ 00000001800133c0     Gaussian.obj
 0002:000013c0       $cppxdata$??1?$eGlue@V?$Col@N@arma@@V12@Veglue_plus@2@@arma@@QEAA@XZ 00000001800133c0     Gaussian.obj
 0002:000013c0       $cppxdata$??1?$eOp@V?$eOp@V?$Row@N@arma@@Veop_scalar_minus_post@2@@arma@@Veop_exp@2@@arma@@QEAA@XZ 00000001800133c0     GibbsSampler.obj
 0002:000013c0       $cppxdata$??1?$eOp@V?$Col@N@arma@@Veop_scalar_times@2@@arma@@QEAA@XZ 00000001800133c0     Gaussian.obj
 0002:000013c0       $cppxdata$??1?$Glue@V?$Op@V?$Mat@N@arma@@Vop_htrans@2@@arma@@V?$Mat@N@2@Vglue_times@2@@arma@@QEAA@XZ 00000001800133c0     Gaussian.obj
 0002:000013c0       $cppxdata$??1?$Op@V?$eGlue@V?$eOp@V?$Mat@N@arma@@Veop_scalar_times@2@@arma@@V?$Glue@V?$eOp@V?$Col@N@arma@@Veop_scalar_times@2@@arma@@V?$Op@V?$Col@N@arma@@Vop_htrans@2@@2@Vglue_times@2@@2@Veglue_plus@2@@arma@@Vop_chol@2@@arma@@QEAA@XZ 00000001800133c0     Gaussian.obj
 0002:000013c0       $cppxdata$??1wall_clock@arma@@QEAA@XZ 00000001800133c0     GibbsSampler.obj
 0002:000013c0       $cppxdata$??1?$subview@N@arma@@QEAA@XZ 00000001800133c0     GibbsSampler.obj
 0002:000013c0       $cppxdata$??1?$eOp@V?$Row@N@arma@@Veop_scalar_minus_post@2@@arma@@QEAA@XZ 00000001800133c0     GibbsSampler.obj
 0002:000013c0       $cppxdata$??1?$mtOp@IV?$Op@V?$Row@N@arma@@Vop_cumsum_default@2@@arma@@Vop_rel_gt_pre@2@@arma@@QEAA@XZ 00000001800133c0     GibbsSampler.obj
 0002:000013c0       $cppxdata$??1?$Glue@V?$eOp@V?$Col@N@arma@@Veop_scalar_times@2@@arma@@V?$Op@V?$Col@N@arma@@Vop_htrans@2@@2@Vglue_times@2@@arma@@QEAA@XZ 00000001800133c0     Gaussian.obj
 0002:000013c0       $cppxdata$??1?$Op@V?$Row@N@arma@@Vop_cumsum_default@2@@arma@@QEAA@XZ 00000001800133c0     GibbsSampler.obj
 0002:000013c0       $cppxdata$??1?$eOp@V?$Row@N@arma@@Veop_scalar_div_post@2@@arma@@QEAA@XZ 00000001800133c0     GibbsSampler.obj
 0002:000013c0       $cppxdata$??1?$Gen@V?$Col@N@arma@@Vgen_randu@2@@arma@@QEAA@XZ 00000001800133c0     GibbsSampler.obj
 0002:000013e8       $cppxdata$??$?6U?$char_traits@D@std@@@std@@YAAEAV?$basic_ostream@DU?$char_traits@D@std@@@0@AEAV10@D@Z 00000001800133e8     Gaussian.obj
 0002:00001410       $cppxdata$??$?6U?$char_traits@D@std@@@std@@YAAEAV?$basic_ostream@DU?$char_traits@D@std@@@0@AEAV10@PEBD@Z 0000000180013410     Gaussian.obj
 0002:00001438       $cppxdata$??0?$Col@N@arma@@QEAA@XZ 0000000180013438     Gaussian.obj
 0002:00001460       $cppxdata$??0?$Col@N@arma@@QEAA@AEBV01@@Z 0000000180013460     Gaussian.obj
 0002:00001488       $cppxdata$??1?$Mat@I@arma@@QEAA@XZ 0000000180013488     GibbsSampler.obj
 0002:00001488       $cppxdata$??1?$Mat@N@arma@@QEAA@XZ 0000000180013488     Gaussian.obj
 0002:000014b0       $cppxdata$?_Copy@?$basic_string@DU?$char_traits@D@std@@V?$allocator@D@2@@std@@QEAAX_K@Z 00000001800134b0     Gaussian.obj
 0002:000014d8       $cppxdata$??1_Sentry_base@?$basic_ostream@DU?$char_traits@D@std@@@std@@QEAA@XZ 00000001800134d8     Gaussian.obj
 0002:00001500       $cppxdata$??0?$basic_stringbuf@DU?$char_traits@D@std@@V?$allocator@D@2@@std@@QEAA@H@Z 0000000180013500     Gaussian.obj
 0002:00001528       $cppxdata$??0sentry@?$basic_ostream@DU?$char_traits@D@std@@@std@@QEAA@AEAV12@@Z 0000000180013528     Gaussian.obj
 0002:00001550       $cppxdata$??1sentry@?$basic_ostream@DU?$char_traits@D@std@@@std@@QEAA@XZ 0000000180013550     Gaussian.obj
 0002:00001578       $cppxdata$??1?$basic_stringbuf@DU?$char_traits@D@std@@V?$allocator@D@2@@std@@UEAA@XZ 0000000180013578     Gaussian.obj
 0002:000015a0       $cppxdata$??0?$basic_ostringstream@DU?$char_traits@D@std@@V?$allocator@D@2@@std@@QEAA@H@Z 00000001800135a0     Gaussian.obj
 0002:000015c8       $cppxdata$?logpredictive@Gaussian@@QEAANV?$Col@N@arma@@@Z 00000001800135c8     Gaussian.obj
 0002:000015f0       $cppxdata$?delitem@Gaussian@@QEAAXV?$Col@N@arma@@@Z 00000001800135f0     Gaussian.obj
 0002:00001618       $cppxdata$?additem@Gaussian@@QEAAXV?$Col@N@arma@@@Z 0000000180013618     Gaussian.obj
 0002:00001640       $cppxdata$?getSigma@Gaussian@@QEAA?AV?$Mat@N@arma@@XZ 0000000180013640     Gaussian.obj
 0002:00001668       $cppxdata$?getMu@Gaussian@@QEAA?AV?$Col@N@arma@@XZ 0000000180013668     Gaussian.obj
 0002:00001690       $cppxdata$?init@Gaussian@@QEAAXNNV?$Mat@N@arma@@NV?$Col@N@3@@Z 0000000180013690     Gaussian.obj
 0002:000016b8       $cppxdata$??0Gaussian@@QEAA@XZ 00000001800136b8     Gaussian.obj
 0002:000016e0       $cppxdata$?ZZ@@YANNNNNV?$Mat@N@arma@@V?$Col@N@2@@Z 00000001800136e0     Gaussian.obj
 0002:00001708       $cppxdata$?choldowndate@@YA?AV?$Mat@N@arma@@V12@V?$Col@N@2@@Z 0000000180013708     Gaussian.obj
 0002:00001730       $cppxdata$?cholupdate@@YA?AV?$Mat@N@arma@@V12@V?$Col@N@2@@Z 0000000180013730     Gaussian.obj
 0002:00001758       $cppxdata$??$apply@V?$Row@N@arma@@@op_cumsum_default@arma@@SAXAEAV?$Mat@N@1@AEBV?$Op@V?$Row@N@arma@@Vop_cumsum_default@2@@1@@Z 0000000180013758     GibbsSampler.obj
 0002:00001780       $cppxdata$??0?$Proxy@V?$Op@V?$Row@N@arma@@Vop_cumsum_default@2@@arma@@@arma@@QEAA@AEBV?$Op@V?$Row@N@arma@@Vop_cumsum_default@2@@1@@Z 0000000180013780     GibbsSampler.obj
 0002:000017a8       $cppxdata$??$apply@V?$Op@V?$Row@N@arma@@Vop_cumsum_default@2@@arma@@@op_rel_gt_pre@arma@@SAXAEAV?$Mat@I@1@AEBV?$mtOp@IV?$Op@V?$Row@N@arma@@Vop_cumsum_default@2@@arma@@Vop_rel_gt_pre@2@@1@@Z 00000001800137a8     GibbsSampler.obj
 0002:000017d0       $cppxdata$?create_objects@?$field@V?$Row@N@arma@@@arma@@AEAAXXZ 00000001800137d0     GibbsSampler.obj
 0002:000017f8       $cppxdata$?create_objects@?$field@V?$Mat@N@arma@@@arma@@AEAAXXZ 00000001800137f8     GibbsSampler.obj
 0002:00001820       $cppxdata$?create_objects@?$field@V?$field@VGaussian@@@arma@@@arma@@AEAAXXZ 0000000180013820     GibbsSampler.obj
 0002:00001820       $cppxdata$?create_objects@?$field@V?$field@V?$Row@N@arma@@@arma@@@arma@@AEAAXXZ 0000000180013820     GibbsSampler.obj
 0002:00001848       $cppxdata$?create_objects@?$field@VGaussian@@@arma@@AEAAXXZ 0000000180013848     GibbsSampler.obj
 0002:00001870       $cppxdata$??0?$Row@N@arma@@QEAA@AEBV01@@Z 0000000180013870     GibbsSampler.obj
 0002:00001898       $cppxdata$??0?$Row@N@arma@@QEAA@II@Z 0000000180013898     GibbsSampler.obj
 0002:000018c0       $cppxdata$??0?$Col@N@arma@@QEAA@II@Z 00000001800138c0     GibbsSampler.obj
 0002:000018e8       $cppxdata$??0?$Proxy@V?$mtOp@IV?$Op@V?$Row@N@arma@@Vop_cumsum_default@2@@arma@@Vop_rel_gt_pre@2@@arma@@@arma@@QEAA@AEBV?$mtOp@IV?$Op@V?$Row@N@arma@@Vop_cumsum_default@2@@arma@@Vop_rel_gt_pre@2@@1@@Z 00000001800138e8     GibbsSampler.obj
 0002:00001910       $cppxdata$??$accu@V?$mtOp@IV?$Op@V?$Row@N@arma@@Vop_cumsum_default@2@@arma@@Vop_rel_gt_pre@2@@arma@@@arma@@YAIAEBV?$mtOp@IV?$Op@V?$Row@N@arma@@Vop_cumsum_default@2@@arma@@Vop_rel_gt_pre@2@@0@@Z 0000000180013910     GibbsSampler.obj
 0002:00001938       $cppxdata$??$randi@V?$Col@N@arma@@@arma@@YA?AV?$Col@N@0@IIAEBVdistr_param@0@PEBV10@@Z 0000000180013938     GibbsSampler.obj
 0002:00001960       $cppxdata$??$randi@V?$Row@N@arma@@@arma@@YA?AV?$Row@N@0@IIAEBVdistr_param@0@PEBV10@@Z 0000000180013960     GibbsSampler.obj
 0002:00001988       $cppxdata$??0?$subview_col@N@arma@@IEAA@AEBV?$Mat@N@1@I@Z 0000000180013988     GibbsSampler.obj
 0002:000019b0       $cppxdata$??4?$Mat@N@arma@@QEAAAEBV01@AEBV?$subview@N@1@@Z 00000001800139b0     GibbsSampler.obj
 0002:000019d8       $cppxdata$??$use_facet@V?$codecvt@DDU_Mbstatet@@@std@@@std@@YAAEBV?$codecvt@DDU_Mbstatet@@@0@AEBVlocale@0@@Z 00000001800139d8     GibbsSampler.obj
 0002:00001a00       $cppxdata$??$?0V?$eOp@V?$eOp@V?$Row@N@arma@@Veop_scalar_minus_post@2@@arma@@Veop_exp@2@@arma@@@?$Row@N@arma@@QEAA@AEBU?$Base@NV?$eOp@V?$eOp@V?$Row@N@arma@@Veop_scalar_minus_post@2@@arma@@Veop_exp@2@@arma@@@1@@Z 0000000180013a00     GibbsSampler.obj
 0002:00001a28       $cppxdata$??$?0V?$subview@N@arma@@@?$Col@N@arma@@QEAA@AEBU?$Base@NV?$subview@N@arma@@@1@@Z 0000000180013a28     GibbsSampler.obj
 0002:00001a50       $cppxdata$??$?0Ufill_zeros@fill@arma@@@?$Row@N@arma@@QEAA@IAEBU?$fill_class@Ufill_zeros@fill@arma@@@fill@1@@Z 0000000180013a50     GibbsSampler.obj
 0002:00001a78       $cppxdata$??$?0Ufill_zeros@fill@arma@@@?$Col@N@arma@@QEAA@IAEBU?$fill_class@Ufill_zeros@fill@arma@@@fill@1@@Z 0000000180013a78     GibbsSampler.obj
 0002:00001aa0       $cppxdata$??1?$field@V?$field@V?$Row@N@arma@@@arma@@@arma@@QEAA@XZ 0000000180013aa0     GibbsSampler.obj
 0002:00001ac8       $cppxdata$??1?$field@V?$Row@N@arma@@@arma@@QEAA@XZ 0000000180013ac8     GibbsSampler.obj
 0002:00001af0       $cppxdata$??1?$field@V?$Mat@N@arma@@@arma@@QEAA@XZ 0000000180013af0     GibbsSampler.obj
 0002:00001b18       $cppxdata$??1?$field@V?$field@VGaussian@@@arma@@@arma@@QEAA@XZ 0000000180013b18     GibbsSampler.obj
 0002:00001b40       $cppxdata$??1?$field@VGaussian@@@arma@@QEAA@XZ 0000000180013b40     GibbsSampler.obj
 0002:00001b68       $cppxdata$??0?$Row@N@arma@@QEAA@XZ 0000000180013b68     GibbsSampler.obj
 0002:00001b90       $cppxdata$??0?$basic_filebuf@DU?$char_traits@D@std@@@std@@QEAA@PEAU_iobuf@@@Z 0000000180013b90     GibbsSampler.obj
 0002:00001bb8       $cppxdata$?open@?$basic_filebuf@DU?$char_traits@D@std@@@std@@QEAAPEAV12@PEBDHH@Z 0000000180013bb8     GibbsSampler.obj
 0002:00001be0       $cppxdata$?_Endwrite@?$basic_filebuf@DU?$char_traits@D@std@@@std@@IEAA_NXZ 0000000180013be0     GibbsSampler.obj
 0002:00001c08       $cppxdata$??1?$basic_filebuf@DU?$char_traits@D@std@@@std@@UEAA@XZ 0000000180013c08     GibbsSampler.obj
 0002:00001c30       $cppxdata$?overflow@?$basic_filebuf@DU?$char_traits@D@std@@@std@@MEAAHH@Z 0000000180013c30     GibbsSampler.obj
 0002:00001c58       $cppxdata$?uflow@?$basic_filebuf@DU?$char_traits@D@std@@@std@@MEAAHXZ 0000000180013c58     GibbsSampler.obj
 0002:00001c80       $cppxdata$??0?$basic_ifstream@DU?$char_traits@D@std@@@std@@QEAA@PEBDHH@Z 0000000180013c80     GibbsSampler.obj
 0002:00001ca8       $cppxdata$?run@GibbsSampler@@QEAAXN@Z 0000000180013ca8     GibbsSampler.obj
 0002:00001cd0       $cppxdata$?init@GibbsSampler@@QEAAXNNV?$Row@N@arma@@N0V?$field@V?$Mat@N@arma@@@3@0@Z 0000000180013cd0     GibbsSampler.obj
 0002:00001cf8       $cppxdata$??0GibbsSampler@@QEAA@XZ 0000000180013cf8     GibbsSampler.obj
 0002:00001d20       $cppxdata$?set_seed_random@arma_rng@arma@@SAXXZ 0000000180013d20     GibbsSampler.obj
 0002:00001d48       $cppxdata$??1locale@std@@QEAA@XZ 0000000180013d48     GibbsSampler.obj
 0002:00001d70       $cppxdata$??0?$unwrap_check@V?$Mat@N@arma@@@arma@@QEAA@AEBV?$Mat@N@1@_N@Z 0000000180013d70     nCRP-Gibbs-Sampler.obj
 0002:00001d98       $cppxdata$??$?0V?$Mat@N@arma@@@?$Row@N@arma@@QEAA@AEBU?$Base@NV?$Mat@N@arma@@@1@@Z 0000000180013d98     nCRP-Gibbs-Sampler.obj
 0002:00001dc0       $cppxdata$?slice@?$Cube@N@arma@@QEAAAEAV?$Mat@N@2@I@Z 0000000180013dc0     nCRP-Gibbs-Sampler.obj
 0002:00001de8       $cppxdata$??1?$Cube@N@arma@@QEAA@XZ 0000000180013de8     nCRP-Gibbs-Sampler.obj
 0002:00001e10       $cppxdata$??0?$Row@N@arma@@QEAA@I@Z 0000000180013e10     nCRP-Gibbs-Sampler.obj
 0002:00001e38       $cppxdata$?createSigmaCell@@YAPEAUmxArray_tag@@V?$field@V?$field@VGaussian@@@arma@@@arma@@@Z 0000000180013e38     nCRP-Gibbs-Sampler.obj
 0002:00001e60       $cppxdata$?createMuCell@@YAPEAUmxArray_tag@@V?$field@V?$field@VGaussian@@@arma@@@arma@@@Z 0000000180013e60     nCRP-Gibbs-Sampler.obj
 0002:00001e88       $cppxdata$?createCell@@YAPEAUmxArray_tag@@V?$field@V?$field@V?$Row@N@arma@@@arma@@@arma@@@Z 0000000180013e88     nCRP-Gibbs-Sampler.obj
 0002:00001eb0       $cppxdata$?createCell@@YAPEAUmxArray_tag@@V?$field@V?$Row@N@arma@@@arma@@@Z 0000000180013eb0     nCRP-Gibbs-Sampler.obj
 0002:00002bd0       $unwind$??0?$field@V?$field@V?$Row@N@arma@@@arma@@@arma@@QEAA@AEBV01@@Z 0000000180014bd0     nCRP-Gibbs-Sampler.obj
 0002:00002bd0       $unwind$??0?$field@V?$Row@N@arma@@@arma@@QEAA@AEBV01@@Z 0000000180014bd0     nCRP-Gibbs-Sampler.obj
 0002:00002bd0       $unwind$??0?$field@V?$Mat@N@arma@@@arma@@QEAA@AEBV01@@Z 0000000180014bd0     nCRP-Gibbs-Sampler.obj
 0002:00002bd0       $unwind$??$log@V?$Op@V?$Mat@N@arma@@Vop_diagvec@2@@arma@@@arma@@YA?BV?$eOp@V?$Op@V?$Mat@N@arma@@Vop_diagvec@2@@arma@@Veop_log@2@@0@AEBV?$Op@V?$Mat@N@arma@@Vop_diagvec@2@@0@@Z 0000000180014bd0     Gaussian.obj
 0002:00002bd0       $unwind$?str@?$basic_ostringstream@DU?$char_traits@D@std@@V?$allocator@D@2@@std@@QEBA?AV?$basic_string@DU?$char_traits@D@std@@V?$allocator@D@2@@2@XZ 0000000180014bd0     Gaussian.obj
 0002:00002bd0       $unwind$??$?HV?$eOp@V?$Mat@N@arma@@Veop_scalar_times@2@@arma@@V?$Glue@V?$eOp@V?$Col@N@arma@@Veop_scalar_times@2@@arma@@V?$Op@V?$Col@N@arma@@Vop_htrans@2@@2@Vglue_times@2@@1@@arma@@YA?BV?$eGlue@V?$eOp@V?$Mat@N@arma@@Veop_scalar_times@2@@arma@@V?$Glue@V?$eOp@V?$Col@N@arma@@Veop_scalar_times@2@@arma@@V?$Op@V?$Col@N@arma@@Vop_htrans@2@@2@Vglue_times@2@@2@Veglue_plus@2@@0@AEBV?$eOp@V?$Mat@N@arma@@Veop_scalar_times@2@@0@AEBV?$Glue@V?$eOp@V?$Col@N@arma@@Veop_scalar_times@2@@arma@@V?$Op@V?$Col@N@arma@@Vop_htrans@2@@2@Vglue_times@2@@0@@Z 0000000180014bd0     Gaussian.obj
 0002:00002bd0       $unwind$??0?$field@V?$field@VGaussian@@@arma@@@arma@@QEAA@AEBV01@@Z 0000000180014bd0     nCRP-Gibbs-Sampler.obj
 0002:00002bd0       $unwind$??0?$field@VGaussian@@@arma@@QEAA@AEBV01@@Z 0000000180014bd0     nCRP-Gibbs-Sampler.obj
 0002:00002bd0       $unwind$?init_cold@?$Cube@N@arma@@IEAAXXZ 0000000180014bd0     nCRP-Gibbs-Sampler.obj
 0002:00002bd0       $unwind$?init_cold@?$Mat@N@arma@@IEAAXXZ 0000000180014bd0     Gaussian.obj
 0002:00002bd0       $unwind$??$?KV?$Glue@V?$Op@V?$Mat@N@arma@@Vop_htrans@2@@arma@@V?$Mat@N@2@Vglue_times@2@@arma@@@arma@@YA?BV?$eOp@V?$Glue@V?$Op@V?$Mat@N@arma@@Vop_htrans@2@@arma@@V?$Mat@N@2@Vglue_times@2@@arma@@Veop_scalar_div_post@2@@0@AEBV?$Glue@V?$Op@V?$Mat@N@arma@@Vop_htrans@2@@arma@@V?$Mat@N@2@Vglue_times@2@@0@N@Z 0000000180014bd0     Gaussian.obj
 0002:00002bd0       $unwind$??0exception@std@@QEAA@QEBD@Z 0000000180014bd0     Gaussian.obj
 0002:00002bd8       $unwind$?randu@?$Mat@N@arma@@QEAAAEBV12@XZ 0000000180014bd8     GibbsSampler.obj
 0002:00002bd8       $unwind$??_D?$basic_ifstream@DU?$char_traits@D@std@@@std@@QEAAXXZ 0000000180014bd8     GibbsSampler.obj
 0002:00002bd8       $unwind$__scrt_initialize_crt 0000000180014bd8     MSVCRT:utility.obj
 0002:00002bd8       $unwind$??_G?$field@V?$Row@N@arma@@@arma@@QEAAPEAXI@Z 0000000180014bd8     GibbsSampler.obj
 0002:00002bd8       $unwind$__scrt_release_startup_lock 0000000180014bd8     MSVCRT:utility.obj
 0002:00002bd8       $unwind$??_G?$Row@N@arma@@QEAAPEAXI@Z 0000000180014bd8     GibbsSampler.obj
 0002:00002bd8       $unwind$??0exception@std@@QEAA@AEBV01@@Z 0000000180014bd8     Gaussian.obj
 0002:00002bd8       $unwind$??_G?$field@VGaussian@@@arma@@QEAAPEAXI@Z 0000000180014bd8     GibbsSampler.obj
 0002:00002bd8       $unwind$_onexit            0000000180014bd8     MSVCRT:utility.obj
 0002:00002bd8       $unwind$??_GGaussian@@QEAAPEAXI@Z 0000000180014bd8     GibbsSampler.obj
 0002:00002bd8       $unwind$?_Facet_Register@std@@YAXPEAV_Facet_base@1@@Z 0000000180014bd8     msvcprt:locale0_implib.obj
 0002:00002bd8       $unwind$??$?0V?$Op@V?$Row@N@arma@@Vop_cumsum_default@2@@arma@@Vop_rel_gt_pre@1@@?$Mat@I@arma@@QEAA@AEBV?$mtOp@IV?$Op@V?$Row@N@arma@@Vop_cumsum_default@2@@arma@@Vop_rel_gt_pre@2@@1@@Z 0000000180014bd8     GibbsSampler.obj
 0002:00002bd8       $unwind$??$?4V?$eGlue@V?$Col@N@arma@@V12@Veglue_plus@2@@arma@@@?$Col@N@arma@@QEAAAEBV01@AEBU?$Base@NV?$eGlue@V?$Col@N@arma@@V12@Veglue_plus@2@@arma@@@1@@Z 0000000180014bd8     Gaussian.obj
 0002:00002bd8       $unwind$??$?4V?$Col@N@arma@@Vgen_randu@1@@?$Mat@N@arma@@QEAAAEBV01@AEBV?$Gen@V?$Col@N@arma@@Vgen_randu@2@@1@@Z 0000000180014bd8     GibbsSampler.obj
 0002:00002bd8       $unwind$??0bad_alloc@std@@QEAA@XZ 0000000180014bd8     Gaussian.obj
 0002:00002bd8       $unwind$__scrt_uninitialize_crt 0000000180014bd8     MSVCRT:utility.obj
 0002:00002bd8       $unwind$?tic@wall_clock@arma@@QEAAXXZ 0000000180014bd8     GibbsSampler.obj
 0002:00002bd8       $unwind$?eye@?$Mat@N@arma@@QEAAAEBV12@XZ 0000000180014bd8     GibbsSampler.obj
 0002:00002bd8       $unwind$??$fill@Ufill_eye@0arma@@@?$Mat@N@arma@@QEAAAEBV01@AEBU?$fill_class@Ufill_eye@fill@arma@@@fill@1@@Z 0000000180014bd8     GibbsSampler.obj
 0002:00002bd8       $unwind$?copy@?$char_traits@D@std@@SAPEADQEADQEBD_K@Z 0000000180014bd8     Gaussian.obj
 0002:00002bd8       $unwind$??0?$field@V?$Mat@N@arma@@@arma@@QEAA@II@Z 0000000180014bd8     nCRP-Gibbs-Sampler.obj
 0002:00002bd8       $unwind$?zeros@?$Cube@N@arma@@QEAAAEBV12@XZ 0000000180014bd8     nCRP-Gibbs-Sampler.obj
 0002:00002bd8       $unwind$??$?4V?$eOp@V?$Col@N@arma@@Veop_scalar_times@2@@arma@@@?$Col@N@arma@@QEAAAEBV01@AEBU?$Base@NV?$eOp@V?$Col@N@arma@@Veop_scalar_times@2@@arma@@@1@@Z 0000000180014bd8     Gaussian.obj
 0002:00002bd8       $unwind$??0runtime_error@std@@QEAA@AEBV?$basic_string@DU?$char_traits@D@std@@V?$allocator@D@2@@1@@Z 0000000180014bd8     Gaussian.obj
 0002:00002bd8       $unwind$??$?0V?$eOp@V?$Col@N@arma@@Veop_scalar_times@2@@arma@@V?$Op@V?$Col@N@arma@@Vop_htrans@2@@1@Vglue_times@1@@?$Mat@N@arma@@QEAA@AEBV?$Glue@V?$eOp@V?$Col@N@arma@@Veop_scalar_times@2@@arma@@V?$Op@V?$Col@N@arma@@Vop_htrans@2@@2@Vglue_times@2@@1@@Z 0000000180014bd8     Gaussian.obj
 0002:00002bd8       $unwind$?toc@wall_clock@arma@@QEAANXZ 0000000180014bd8     GibbsSampler.obj
 0002:00002bd8       $unwind$??$?0V?$Op@V?$Mat@N@arma@@Vop_htrans@2@@arma@@V?$Mat@N@1@Vglue_times@1@@?$Mat@N@arma@@QEAA@AEBV?$Glue@V?$Op@V?$Mat@N@arma@@Vop_htrans@2@@arma@@V?$Mat@N@2@Vglue_times@2@@1@@Z 0000000180014bd8     Gaussian.obj
 0002:00002bd8       $unwind$??$?4V?$eGlue@V?$eOp@V?$Mat@N@arma@@Veop_scalar_times@2@@arma@@V?$Glue@V?$eOp@V?$Col@N@arma@@Veop_scalar_times@2@@arma@@V?$Op@V?$Col@N@arma@@Vop_htrans@2@@2@Vglue_times@2@@2@Veglue_plus@2@@arma@@Vop_chol@1@@?$Mat@N@arma@@QEAAAEBV01@AEBV?$Op@V?$eGlue@V?$eOp@V?$Mat@N@arma@@Veop_scalar_times@2@@arma@@V?$Glue@V?$eOp@V?$Col@N@arma@@Veop_scalar_times@2@@arma@@V?$Op@V?$Col@N@arma@@Vop_htrans@2@@2@Vglue_times@2@@2@Veglue_plus@2@@arma@@Vop_chol@2@@1@@Z 0000000180014bd8     Gaussian.obj
 0002:00002bd8       $unwind$?armaSetPr@@YAXPEAUmxArray_tag@@AEBV?$Mat@N@arma@@@Z 0000000180014bd8     nCRP-Gibbs-Sampler.obj
 0002:00002bd8       $unwind$??1GibbsSampler@@QEAA@XZ 0000000180014bd8     GibbsSampler.obj
 0002:00002bd8       $unwind$?_Tidy_deallocate@?$basic_string@DU?$char_traits@D@std@@V?$allocator@D@2@@std@@QEAAXXZ 0000000180014bd8     Gaussian.obj
 0002:00002bd8       $unwind$??0bad_cast@std@@QEAA@AEBV01@@Z 0000000180014bd8     GibbsSampler.obj
 0002:00002bd8       $unwind$??$?4V?$eGlue@V?$Col@N@arma@@V12@Veglue_minus@2@@arma@@@?$Col@N@arma@@QEAAAEBV01@AEBU?$Base@NV?$eGlue@V?$Col@N@arma@@V12@Veglue_minus@2@@arma@@@1@@Z 0000000180014bd8     Gaussian.obj
 0002:00002bd8       $unwind$??0bad_alloc@std@@QEAA@AEBV01@@Z 0000000180014bd8     Gaussian.obj
 0002:00002bd8       $unwind$??$?4V?$Gen@V?$Col@N@arma@@Vgen_randu@2@@arma@@@?$Col@N@arma@@QEAAAEBV01@AEBU?$Base@NV?$Gen@V?$Col@N@arma@@Vgen_randu@2@@arma@@@1@@Z 0000000180014bd8     GibbsSampler.obj
 0002:00002bd8       $unwind$??$?4V?$eOp@V?$Row@N@arma@@Veop_scalar_div_post@2@@arma@@@?$Row@N@arma@@QEAAAEBV01@AEBU?$Base@NV?$eOp@V?$Row@N@arma@@Veop_scalar_div_post@2@@arma@@@1@@Z 0000000180014bd8     GibbsSampler.obj
 0002:00002bd8       $unwind$??0?$Mat@N@arma@@QEAA@II@Z 0000000180014bd8     Gaussian.obj
 0002:00002bd8       $unwind$_Init_thread_notify 0000000180014bd8     MSVCRT:thread_safe_statics.obj
 0002:00002bd8       $unwind$??1?$basic_ostringstream@DU?$char_traits@D@std@@V?$allocator@D@2@@std@@UEAA@XZ 0000000180014bd8     Gaussian.obj
 0002:00002bd8       $unwind$??$?4V?$eOp@V?$eOp@V?$Row@N@arma@@Veop_scalar_minus_post@2@@arma@@Veop_exp@2@@arma@@@?$Row@N@arma@@QEAAAEBV01@AEBU?$Base@NV?$eOp@V?$eOp@V?$Row@N@arma@@Veop_scalar_minus_post@2@@arma@@Veop_exp@2@@arma@@@1@@Z 0000000180014bd8     GibbsSampler.obj
 0002:00002bd8       $unwind$??$?0Ufill_zeros@fill@arma@@@?$Mat@N@arma@@QEAA@IIAEBU?$fill_class@Ufill_zeros@fill@arma@@@fill@1@@Z 0000000180014bd8     nCRP-Gibbs-Sampler.obj
 0002:00002bd8       $unwind$_Init_thread_footer 0000000180014bd8     MSVCRT:thread_safe_statics.obj
 0002:00002bd8       $unwind$??0runtime_error@std@@QEAA@AEBV01@@Z 0000000180014bd8     Gaussian.obj
 0002:00002bd8       $unwind$_Init_thread_header 0000000180014bd8     MSVCRT:thread_safe_statics.obj
 0002:00002bd8       $unwind$??0?$basic_string@DU?$char_traits@D@std@@V?$allocator@D@2@@std@@QEAA@QEBD_K@Z 0000000180014bd8     Gaussian.obj
 0002:00002bd8       $unwind$??$?6NV?$Mat@N@arma@@@arma@@YAAEAV?$basic_ostream@DU?$char_traits@D@std@@@std@@AEAV12@AEBU?$Base@NV?$Mat@N@arma@@@0@@Z 0000000180014bd8     Gaussian.obj
 0002:00002bd8       $unwind$??0?$basic_string@DU?$char_traits@D@std@@V?$allocator@D@2@@std@@QEAA@QEBD@Z 0000000180014bd8     Gaussian.obj
 0002:00002bd8       $unwind$??0?$Mat@N@arma@@IEAA@AEBUarma_vec_indicator@1@IIG@Z 0000000180014bd8     Gaussian.obj
 0002:00002bd8       $unwind$??$fill@Ufill_zeros@0arma@@@?$Mat@N@arma@@QEAAAEBV01@AEBU?$fill_class@Ufill_zeros@fill@arma@@@fill@1@@Z 0000000180014bd8     GibbsSampler.obj
 0002:00002bd8       $unwind$??0bad_array_new_length@std@@QEAA@AEBV01@@Z 0000000180014bd8     MSVCRT:throw_bad_alloc.obj
 0002:00002bd8       $unwind$??$apply@V?$eGlue@V?$eOp@V?$Mat@N@arma@@Veop_scalar_times@2@@arma@@V?$Glue@V?$eOp@V?$Col@N@arma@@Veop_scalar_times@2@@arma@@V?$Op@V?$Col@N@arma@@Vop_htrans@2@@2@Vglue_times@2@@2@Veglue_plus@2@@arma@@@op_chol@arma@@SAXAEAV?$Mat@N@1@AEBV?$Op@V?$eGlue@V?$eOp@V?$Mat@N@arma@@Veop_scalar_times@2@@arma@@V?$Glue@V?$eOp@V?$Col@N@arma@@Veop_scalar_times@2@@arma@@V?$Op@V?$Col@N@arma@@Vop_htrans@2@@2@Vglue_times@2@@2@Veglue_plus@2@@arma@@Vop_chol@2@@1@@Z 0000000180014bd8     Gaussian.obj
 0002:00002bd8       $unwind$?assign@?$basic_string@DU?$char_traits@D@std@@V?$allocator@D@2@@std@@QEAAAEAV12@_KD@Z 0000000180014bd8     GibbsSampler.obj
 0002:00002bd8       $unwind$??_D?$basic_ostringstream@DU?$char_traits@D@std@@V?$allocator@D@2@@std@@QEAAXXZ 0000000180014bd8     Gaussian.obj
 0002:00002bd8       $unwind$??2@YAPEAX_K@Z     0000000180014bd8     MSVCRT:new_scalar.obj
 0002:00002bd8       $unwind$?_Tidy@?$basic_stringbuf@DU?$char_traits@D@std@@V?$allocator@D@2@@std@@IEAAXXZ 0000000180014bd8     Gaussian.obj
 0002:00002bd8       $unwind$??_Gtype_info@@UEAAPEAXI@Z 0000000180014bd8     MSVCRT:std_type_info_static.obj
 0002:00002bd8       $unwind$?_Reset_back@?$basic_filebuf@DU?$char_traits@D@std@@@std@@AEAAXXZ 0000000180014bd8     GibbsSampler.obj
 0002:00002bd8       $unwind$?zeros@?$Mat@N@arma@@QEAAAEBV12@XZ 0000000180014bd8     Gaussian.obj
 0002:00002bd8       $unwind$??$endl@DU?$char_traits@D@std@@@std@@YAAEAV?$basic_ostream@DU?$char_traits@D@std@@@0@AEAV10@@Z 0000000180014bd8     Gaussian.obj
 0002:00002bd8       $unwind$??0?$basic_string@DU?$char_traits@D@std@@V?$allocator@D@2@@std@@QEAA@_KD@Z 0000000180014bd8     GibbsSampler.obj
 0002:00002bd8       $unwind$__raise_securityfailure 0000000180014bd8     MSVCRT:gs_report.obj
 0002:00002bd8       $unwind$??$?0Ufill_zeros@fill@arma@@@?$Cube@N@arma@@QEAA@IIIAEBU?$fill_class@Ufill_zeros@fill@arma@@@fill@1@@Z 0000000180014bd8     nCRP-Gibbs-Sampler.obj
 0002:00002bd8       $unwind$??$?0Ufill_eye@fill@arma@@@?$Mat@N@arma@@QEAA@IIAEBU?$fill_class@Ufill_eye@fill@arma@@@fill@1@@Z 0000000180014bd8     GibbsSampler.obj
 0002:00002bd8       $unwind$??4?$field@V?$field@V?$Row@N@arma@@@arma@@@arma@@QEAAAEBV01@AEBV01@@Z 0000000180014bd8     GibbsSampler.obj
 0002:00002bd8       $unwind$??0?$field@V?$field@V?$Row@N@arma@@@arma@@@arma@@QEAA@II@Z 0000000180014bd8     GibbsSampler.obj
 0002:00002bd8       $unwind$?assign@?$char_traits@D@std@@SAPEADQEAD_KD@Z 0000000180014bd8     GibbsSampler.obj
 0002:00002bd8       $unwind$??0bad_cast@std@@QEAA@XZ 0000000180014bd8     GibbsSampler.obj
 0002:00002bd8       $unwind$??1?$basic_ifstream@DU?$char_traits@D@std@@@std@@UEAA@XZ 0000000180014bd8     GibbsSampler.obj
 0002:00002bd8       $unwind$??4?$field@V?$Row@N@arma@@@arma@@QEAAAEBV01@AEBV01@@Z 0000000180014bd8     GibbsSampler.obj
 0002:00002bd8       $unwind$??0?$field@V?$Row@N@arma@@@arma@@QEAA@II@Z 0000000180014bd8     GibbsSampler.obj
 0002:00002bd8       $unwind$??_G?$Mat@N@arma@@QEAAPEAXI@Z 0000000180014bd8     Gaussian.obj
 0002:00002bd8       $unwind$??0_Sentry_base@?$basic_ostream@DU?$char_traits@D@std@@@std@@QEAA@AEAV12@@Z 0000000180014bd8     Gaussian.obj
 0002:00002bd8       $unwind$??$_Fgetc@D@std@@YA_NAEADPEAU_iobuf@@@Z 0000000180014bd8     GibbsSampler.obj
 0002:00002bd8       $unwind$??4?$field@V?$Mat@N@arma@@@arma@@QEAAAEBV01@AEBV01@@Z 0000000180014bd8     GibbsSampler.obj
 0002:00002bd8       $unwind$?imbue@?$basic_filebuf@DU?$char_traits@D@std@@@std@@MEAAXAEBVlocale@2@@Z 0000000180014bd8     GibbsSampler.obj
 0002:00002bd8       $unwind$??4?$field@V?$field@VGaussian@@@arma@@@arma@@QEAAAEBV01@AEBV01@@Z 0000000180014bd8     GibbsSampler.obj
 0002:00002bd8       $unwind$??0?$field@V?$field@VGaussian@@@arma@@@arma@@QEAA@II@Z 0000000180014bd8     GibbsSampler.obj
 0002:00002bd8       $unwind$?armaSetCubePr@@YAXPEAUmxArray_tag@@AEBV?$Cube@N@arma@@@Z 0000000180014bd8     nCRP-Gibbs-Sampler.obj
 0002:00002bd8       $unwind$??4?$field@VGaussian@@@arma@@QEAAAEBV01@AEBV01@@Z 0000000180014bd8     GibbsSampler.obj
 0002:00002bd8       $unwind$??0?$field@VGaussian@@@arma@@QEAA@II@Z 0000000180014bd8     GibbsSampler.obj
 0002:00002bd8       $unwind$?zeros@?$Mat@N@arma@@QEAAAEBV12@I@Z 0000000180014bd8     GibbsSampler.obj
 0002:00002bd8       $unwind$??4?$Col@N@arma@@QEAAAEBV01@AEBV01@@Z 0000000180014bd8     GibbsSampler.obj
 0002:00002bd8       $unwind$?randi_val@arma_rng_cxx98@arma@@SAHXZ 0000000180014bd8     GibbsSampler.obj
 0002:00002bd8       $unwind$??4?$Row@N@arma@@QEAAAEBV01@AEBV01@@Z 0000000180014bd8     GibbsSampler.obj
 0002:00002bd8       $unwind$??1Gaussian@@QEAA@XZ 0000000180014bd8     Gaussian.obj
 0002:00002bd8       $unwind$??$?0V?$Row@N@arma@@Vop_cumsum_default@1@@?$Mat@N@arma@@QEAA@AEBV?$Op@V?$Row@N@arma@@Vop_cumsum_default@2@@1@@Z 0000000180014bd8     GibbsSampler.obj
 0002:00002bd8       $unwind$?setbuf@?$basic_filebuf@DU?$char_traits@D@std@@@std@@MEAAPEAV?$basic_streambuf@DU?$char_traits@D@std@@@2@PEAD_J@Z 0000000180014bd8     GibbsSampler.obj
 0002:00002be0       $unwind$??$apply_mat_noalias@NV?$Col@N@arma@@@op_strans@arma@@SAXAEAV?$Mat@N@1@AEBV?$Col@N@1@@Z 0000000180014be0     Gaussian.obj
 0002:00002be0       $unwind$??$acquire@N@memory@arma@@SAPEANI@Z 0000000180014be0     Gaussian.obj
 0002:00002be0       $unwind$?erase@?$basic_string@DU?$char_traits@D@std@@V?$allocator@D@2@@std@@QEAAAEAV12@_K@Z 0000000180014be0     Gaussian.obj
 0002:00002be0       $unwind$??4Gaussian@@QEAAAEAV0@AEBV0@@Z 0000000180014be0     GibbsSampler.obj
 0002:00002be0       $unwind$?_Getfacet@locale@std@@QEBAPEBVfacet@12@_K@Z 0000000180014be0     GibbsSampler.obj
 0002:00002be0       $unwind$?underflow@?$basic_filebuf@DU?$char_traits@D@std@@@std@@MEAAHXZ 0000000180014be0     GibbsSampler.obj
 0002:00002be0       $unwind$??_Gbad_cast@std@@UEAAPEAXI@Z 0000000180014be0     GibbsSampler.obj
 0002:00002be0       $unwind$??$?0V?$Glue@V?$Op@V?$Mat@N@arma@@Vop_htrans@2@@arma@@V?$Mat@N@2@Vglue_times@2@@arma@@Veop_scalar_div_post@1@@?$Mat@N@arma@@QEAA@AEBV?$eOp@V?$Glue@V?$Op@V?$Mat@N@arma@@Vop_htrans@2@@arma@@V?$Mat@N@2@Vglue_times@2@@arma@@Veop_scalar_div_post@2@@1@@Z 0000000180014be0     Gaussian.obj
 0002:00002be0       $unwind$??$apply@V?$Mat@N@arma@@V?$Col@N@2@V32@@?$eglue_core@Veglue_plus@arma@@@arma@@SAXAEAV?$Mat@N@1@AEBV?$eGlue@V?$Col@N@arma@@V12@Veglue_plus@2@@1@@Z 0000000180014be0     Gaussian.obj
 0002:00002be0       $unwind$??_G?$basic_ifstream@DU?$char_traits@D@std@@@std@@UEAAPEAXI@Z 0000000180014be0     GibbsSampler.obj
 0002:00002be0       $unwind$??_G?$basic_stringbuf@DU?$char_traits@D@std@@V?$allocator@D@2@@std@@UEAAPEAXI@Z 0000000180014be0     Gaussian.obj
 0002:00002be0       $unwind$??_G?$basic_ostringstream@DU?$char_traits@D@std@@V?$allocator@D@2@@std@@UEAAPEAXI@Z 0000000180014be0     Gaussian.obj
 0002:00002be0       $unwind$?_Initcvt@?$basic_filebuf@DU?$char_traits@D@std@@@std@@IEAAXPEBV?$codecvt@DDU_Mbstatet@@@2@@Z 0000000180014be0     GibbsSampler.obj
 0002:00002be0       $unwind$??0?$Mat@N@arma@@QEAA@AEBV?$subview@N@1@@Z 0000000180014be0     GibbsSampler.obj
 0002:00002be0       $unwind$?_Set_back@?$basic_filebuf@DU?$char_traits@D@std@@@std@@AEAAXXZ 0000000180014be0     GibbsSampler.obj
 0002:00002be0       $unwind$??_G?$basic_filebuf@DU?$char_traits@D@std@@@std@@UEAAPEAXI@Z 0000000180014be0     GibbsSampler.obj
 0002:00002be0       $unwind$??_Gexception@std@@UEAAPEAXI@Z 0000000180014be0     Gaussian.obj
 0002:00002be0       $unwind$??$apply@V?$Mat@N@arma@@V?$Col@N@2@V32@@?$eglue_core@Veglue_minus@arma@@@arma@@SAXAEAV?$Mat@N@1@AEBV?$eGlue@V?$Col@N@arma@@V12@Veglue_minus@2@@1@@Z 0000000180014be0     Gaussian.obj
 0002:00002be0       $unwind$??_Gbad_alloc@std@@UEAAPEAXI@Z 0000000180014be0     Gaussian.obj
 0002:00002be0       $unwind$?restore@arma_ostream_state@arma@@QEBAXAEAV?$basic_ostream@DU?$char_traits@D@std@@@std@@@Z 0000000180014be0     Gaussian.obj
 0002:00002be0       $unwind$??$acquire@I@memory@arma@@SAPEAII@Z 0000000180014be0     GibbsSampler.obj
 0002:00002be0       $unwind$??0arma_ostream_state@arma@@QEAA@AEBV?$basic_ostream@DU?$char_traits@D@std@@@std@@@Z 0000000180014be0     Gaussian.obj
 0002:00002be0       $unwind$??_Gruntime_error@std@@UEAAPEAXI@Z 0000000180014be0     Gaussian.obj
 0002:00002be0       $unwind$??_Gbad_array_new_length@std@@UEAAPEAXI@Z 0000000180014be0     MSVCRT:throw_bad_alloc.obj
 0002:00002be0       $unwind$??$apply@V?$Mat@N@arma@@V?$eOp@V?$Col@N@arma@@Veop_scalar_minus_pre@2@@2@@?$eop_core@Veop_scalar_div_post@arma@@@arma@@SAXAEAV?$Mat@N@1@AEBV?$eOp@V?$eOp@V?$Col@N@arma@@Veop_scalar_minus_pre@2@@arma@@Veop_scalar_div_post@2@@1@@Z 0000000180014be0     Gaussian.obj
 0002:00002bec       $unwind$??0gmm_seed_random_subset@arma@@QEAA@XZ 0000000180014bec     Gaussian.obj
 0002:00002bec       $unwind$??0?$eGlue@V?$Col@N@arma@@V12@Veglue_minus@2@@arma@@QEAA@AEBV?$Col@N@1@0@Z 0000000180014bec     Gaussian.obj
 0002:00002bec       $unwind$??0gmm_seed_static_spread@arma@@QEAA@XZ 0000000180014bec     Gaussian.obj
 0002:00002bec       $unwind$??0?$eGlue@V?$Col@N@arma@@V12@Veglue_plus@2@@arma@@QEAA@AEBV?$Col@N@1@0@Z 0000000180014bec     Gaussian.obj
 0002:00002bec       $unwind$??0gmm_seed_static_subset@arma@@QEAA@XZ 0000000180014bec     Gaussian.obj
 0002:00002bec       $unwind$??0?$eOp@V?$Col@N@arma@@Veop_scalar_times@2@@arma@@QEAA@AEBV?$Col@N@1@N@Z 0000000180014bec     Gaussian.obj
 0002:00002bec       $unwind$??0gmm_seed_keep_existing@arma@@QEAA@XZ 0000000180014bec     Gaussian.obj
 0002:00002bec       $unwind$??0?$eOp@V?$Mat@N@arma@@Veop_scalar_times@2@@arma@@QEAA@AEBV?$Mat@N@1@N@Z 0000000180014bec     Gaussian.obj
 0002:00002bec       $unwind$??0gmm_dist_prob@arma@@QEAA@XZ 0000000180014bec     Gaussian.obj
 0002:00002bec       $unwind$??0?$eOp@V?$Col@N@arma@@Veop_scalar_div_post@2@@arma@@QEAA@AEBV?$Col@N@1@N@Z 0000000180014bec     Gaussian.obj
 0002:00002bec       $unwind$??0gmm_dist_maha@arma@@QEAA@XZ 0000000180014bec     Gaussian.obj
 0002:00002bec       $unwind$??0?$eOp@V?$eOp@V?$Col@N@arma@@Veop_scalar_minus_pre@2@@arma@@Veop_scalar_div_post@2@@arma@@QEAA@AEBV?$eOp@V?$Col@N@arma@@Veop_scalar_minus_pre@2@@1@N@Z 0000000180014bec     Gaussian.obj
 0002:00002bec       $unwind$??0gmm_dist_eucl@arma@@QEAA@XZ 0000000180014bec     Gaussian.obj
 0002:00002bec       $unwind$??0?$eOp@V?$Col@N@arma@@Veop_scalar_minus_pre@2@@arma@@QEAA@AEBV?$Col@N@1@N@Z 0000000180014bec     Gaussian.obj
 0002:00002bec       $unwind$??0opts_tril@solve_opts@arma@@QEAA@XZ 0000000180014bec     Gaussian.obj
 0002:00002bec       $unwind$??0?$basic_string@DU?$char_traits@D@std@@V?$allocator@D@2@@std@@QEAA@$$QEAV01@@Z 0000000180014bec     Gaussian.obj
 0002:00002bec       $unwind$??0opts_triu@solve_opts@arma@@QEAA@XZ 0000000180014bec     Gaussian.obj
 0002:00002bec       $unwind$??0gmm_seed_random_spread@arma@@QEAA@XZ 0000000180014bec     Gaussian.obj
 0002:00002bec       $unwind$??0opts_no_approx@solve_opts@arma@@QEAA@XZ 0000000180014bec     Gaussian.obj
 0002:00002bec       $unwind$??$construct@PEADAEAPEAD@?$_Wrap_alloc@V?$allocator@D@std@@@std@@QEAAXPEAPEADAEAPEAD@Z 0000000180014bec     Gaussian.obj
 0002:00002bec       $unwind$??0opts_equilibrate@solve_opts@arma@@QEAA@XZ 0000000180014bec     Gaussian.obj
 0002:00002bec       $unwind$??$?0$$V@?$_Compressed_pair@U?$_Wrap_alloc@V?$allocator@D@std@@@std@@V?$_String_val@U?$_Simple_types@D@std@@@2@$00@std@@QEAA@U_Zero_then_variadic_args_t@1@@Z 0000000180014bec     Gaussian.obj
 0002:00002bec       $unwind$??0opts_fast@solve_opts@arma@@QEAA@XZ 0000000180014bec     Gaussian.obj
 0002:00002bec       $unwind$??$?0U?$_Wrap_alloc@V?$allocator@D@std@@@std@@X@?$_String_alloc@U?$_String_base_types@DV?$allocator@D@std@@@std@@@std@@QEAA@$$QEAU?$_Wrap_alloc@V?$allocator@D@std@@@1@@Z 0000000180014bec     Gaussian.obj
 0002:00002bec       $unwind$??0opts_none@solve_opts@arma@@QEAA@XZ 0000000180014bec     Gaussian.obj
 0002:00002bec       $unwind$??$print_elem@N@arma_ostream@arma@@SAXAEAV?$basic_ostream@DU?$char_traits@D@std@@@std@@AEBN_N@Z 0000000180014bec     Gaussian.obj
 0002:00002bec       $unwind$??0?$basic_string@DU?$char_traits@D@std@@V?$allocator@D@2@@std@@QEAA@XZ 0000000180014bec     Gaussian.obj
 0002:00002bec       $unwind$?__scrt_uninitialize_thread_safe_statics@@YAXXZ 0000000180014bec     MSVCRT:thread_safe_statics.obj
 0002:00002bec       $unwind$??$accu@V?$eOp@V?$Op@V?$Mat@N@arma@@Vop_diagvec@2@@arma@@Veop_log@2@@arma@@@arma@@YANAEBV?$eOp@V?$Op@V?$Mat@N@arma@@Vop_diagvec@2@@arma@@Veop_log@2@@0@@Z 0000000180014bec     Gaussian.obj
 0002:00002bec       $unwind$??$construct@PEADAEAPEAD@?$allocator@D@std@@QEAAXPEAPEADAEAPEAD@Z 0000000180014bec     Gaussian.obj
 0002:00002bec       $unwind$??0?$eOp@V?$Row@N@arma@@Veop_scalar_minus_post@2@@arma@@QEAA@AEBV?$Row@N@1@N@Z 0000000180014bec     GibbsSampler.obj
 0002:00002bec       $unwind$??A?$eOp@V?$Col@N@arma@@Veop_scalar_minus_pre@2@@arma@@QEBANI@Z 0000000180014bec     Gaussian.obj
 0002:00002bec       $unwind$?_Deallocate@std@@YAXPEAX_K1@Z 0000000180014bec     Gaussian.obj
 0002:00002bec       $unwind$?armaCreateMxMatrix@@YAPEAUmxArray_tag@@_K0W4mxClassID@@W4mxComplexity@@@Z 0000000180014bec     nCRP-Gibbs-Sampler.obj
 0002:00002bec       $unwind$?_Allocate@std@@YAPEAX_K0_N@Z 0000000180014bec     Gaussian.obj
 0002:00002bec       $unwind$??0?$eOp@V?$eOp@V?$Row@N@arma@@Veop_scalar_minus_post@2@@arma@@Veop_exp@2@@arma@@QEAA@AEBV?$eOp@V?$Row@N@arma@@Veop_scalar_minus_post@2@@1@@Z 0000000180014bec     GibbsSampler.obj
 0002:00002bec       $unwind$?not_eof@?$char_traits@D@std@@SAHAEBH@Z 0000000180014bec     Gaussian.obj
 0002:00002bec       $unwind$??0?$eOp@V?$Row@N@arma@@Veop_scalar_div_post@2@@arma@@QEAA@AEBV?$Row@N@1@N@Z 0000000180014bec     GibbsSampler.obj
 0002:00002bec       $unwind$?size@?$basic_string@DU?$char_traits@D@std@@V?$allocator@D@2@@std@@QEBA_KXZ 0000000180014bec     Gaussian.obj
 0002:00002bec       $unwind$?dllmain_crt_dispatch@@YAHQEAUHINSTANCE__@@KQEAX@Z 0000000180014bec     MSVCRT:dll_dllmain.obj
 0002:00002bec       $unwind$?begin@?$basic_string@DU?$char_traits@D@std@@V?$allocator@D@2@@std@@QEAA?AV?$_String_iterator@V?$_String_val@U?$_Simple_types@D@std@@@std@@@2@XZ 0000000180014bec     GibbsSampler.obj
 0002:00002bec       $unwind$??$accu@V?$Row@N@arma@@@arma@@YANAEBV?$Row@N@0@@Z 0000000180014bec     GibbsSampler.obj
 0002:00002bec       $unwind$??$max@V?$Mat@N@arma@@@op_max@arma@@SANAEBU?$Base@NV?$Mat@N@arma@@@1@@Z 0000000180014bec     GibbsSampler.obj
 0002:00002bec       $unwind$?at_alt@?$eOp@V?$Col@N@arma@@Veop_scalar_minus_pre@2@@arma@@QEBANI@Z 0000000180014bec     Gaussian.obj
 0002:00002bec       $unwind$?_Mysize@?$_String_alloc@U?$_String_base_types@DV?$allocator@D@std@@@std@@@std@@QEAAAEA_KXZ 0000000180014bec     Gaussian.obj
 0002:00002bec       $unwind$atexit             0000000180014bec     MSVCRT:utility.obj
 0002:00002bec       $unwind$__scrt_acquire_startup_lock 0000000180014bec     MSVCRT:utility.obj
 0002:00002bec       $unwind$??$apply@V?$Mat@N@arma@@V?$Glue@V?$Op@V?$Mat@N@arma@@Vop_htrans@2@@arma@@V?$Mat@N@2@Vglue_times@2@@2@@?$eop_core@Veop_scalar_div_post@arma@@@arma@@SAXAEAV?$Mat@N@1@AEBV?$eOp@V?$Glue@V?$Op@V?$Mat@N@arma@@Vop_htrans@2@@arma@@V?$Mat@N@2@Vglue_times@2@@arma@@Veop_scalar_div_post@2@@1@@Z 0000000180014bec     Gaussian.obj
 0002:00002bec       $unwind$__scrt_initialize_default_local_stdio_options 0000000180014bec     MSVCRT:default_local_stdio_options.obj
 0002:00002bec       $unwind$__scrt_dllmain_before_initialize_c 0000000180014bec     MSVCRT:utility.obj
 0002:00002bec       $unwind$??$?0U?$_Wrap_alloc@V?$allocator@D@std@@@std@@$$V@?$_Compressed_pair@U?$_Wrap_alloc@V?$allocator@D@std@@@std@@V?$_String_val@U?$_Simple_types@D@std@@@2@$00@std@@QEAA@U_One_then_variadic_args_t@1@$$QEAU?$_Wrap_alloc@V?$allocator@D@std@@@1@@Z 0000000180014bec     Gaussian.obj
 0002:00002bec       $unwind$__scrt_dllmain_after_initialize_c 0000000180014bec     MSVCRT:utility.obj
 0002:00002bec       $unwind$??$construct@PEADAEAPEAD@?$allocator_traits@V?$allocator@D@std@@@std@@SAXAEAV?$allocator@D@1@PEAPEADAEAPEAD@Z 0000000180014bec     Gaussian.obj
 0002:00002bec       $unwind$__scrt_dllmain_uninitialize_c 0000000180014bec     MSVCRT:utility.obj
 0002:00002bec       $unwind$__scrt_dllmain_uninitialize_critical 0000000180014bec     MSVCRT:utility.obj
 0002:00002bec       $unwind$??__E?nan@?$Datum@N@arma@@2NB@@YAXXZ 0000000180014bec     GibbsSampler.obj
 0002:00002bec       $unwind$??$accu_proxy_mat@V?$Row@N@arma@@@arma@@YANAEBV?$Proxy@V?$Row@N@arma@@@0@@Z 0000000180014bec     GibbsSampler.obj
 0002:00002bec       $unwind$??$most_neg@N@priv@arma@@YANPEAN@Z 0000000180014bec     GibbsSampler.obj
 0002:00002bec       $unwind$??$apply@V?$Mat@N@arma@@V?$Row@N@2@@?$eop_core@Veop_scalar_div_post@arma@@@arma@@SAXAEAV?$Mat@N@1@AEBV?$eOp@V?$Row@N@arma@@Veop_scalar_div_post@2@@1@@Z 0000000180014bec     GibbsSampler.obj
 0002:00002bec       $unwind$__scrt_dllmain_crt_thread_attach 0000000180014bec     MSVCRT:utility.obj
 0002:00002bec       $unwind$__scrt_dllmain_crt_thread_detach 0000000180014bec     MSVCRT:utility.obj
 0002:00002bec       $unwind$??$arma_stream_err2@D@arma@@YAAEAV?$basic_ostream@DU?$char_traits@D@std@@@std@@PEAV12@@Z 0000000180014bec     Gaussian.obj
 0002:00002bec       $unwind$?_Mysize@?$_String_alloc@U?$_String_base_types@DV?$allocator@D@std@@@std@@@std@@QEBAAEB_KXZ 0000000180014bec     Gaussian.obj
 0002:00002bec       $unwind$??$arma_check_bad_alloc@$$BY0CC@D@arma@@YAX_NAEAY0CC@$$CBD@Z 0000000180014bec     nCRP-Gibbs-Sampler.obj
 0002:00002bec       $unwind$??A?$eOp@V?$Op@V?$Mat@N@arma@@Vop_diagvec@2@@arma@@Veop_log@2@@arma@@QEBANI@Z 0000000180014bec     Gaussian.obj
 0002:00002bec       $unwind$??0?$_String_alloc@U?$_String_base_types@DV?$allocator@D@std@@@std@@@std@@QEAA@XZ 0000000180014bec     Gaussian.obj
 0002:00002bec       $unwind$?_Myptr@?$_String_alloc@U?$_String_base_types@DV?$allocator@D@std@@@std@@@std@@QEBAPEBDXZ 0000000180014bec     Gaussian.obj
 0002:00002bec       $unwind$__GSHandlerCheck   0000000180014bec     MSVCRT:_gshandler_.obj
 0002:00002bec       $unwind$??__F_Fac_tidy_reg@std@@YAXXZ 0000000180014bec     msvcprt:locale0_implib.obj
 0002:00002bec       $unwind$?_Myptr@?$_String_alloc@U?$_String_base_types@DV?$allocator@D@std@@@std@@@std@@QEAAPEADXZ 0000000180014bec     Gaussian.obj
 0002:00002bec       $unwind$memcpy_s           0000000180014bec     GibbsSampler.obj
 0002:00002bec       $unwind$?_Tidy_init@?$basic_string@DU?$char_traits@D@std@@V?$allocator@D@2@@std@@QEAAXXZ 0000000180014bec     Gaussian.obj
 0002:00002bec       $unwind$?_Check_offset@?$basic_string@DU?$char_traits@D@std@@V?$allocator@D@2@@std@@QEBAX_K@Z 0000000180014bec     Gaussian.obj
 0002:00002bec       $unwind$?at_alt@?$Proxy@V?$Col@N@arma@@@arma@@QEBANI@Z 0000000180014bec     Gaussian.obj
 0002:00002bec       $unwind$?_Xlen@?$basic_string@DU?$char_traits@D@std@@V?$allocator@D@2@@std@@SAXXZ 0000000180014bec     Gaussian.obj
 0002:00002bec       $unwind$?_Eos@?$basic_string@DU?$char_traits@D@std@@V?$allocator@D@2@@std@@QEAAX_K@Z 0000000180014bec     Gaussian.obj
 0002:00002bec       $unwind$?_Inside@?$basic_string@DU?$char_traits@D@std@@V?$allocator@D@2@@std@@QEBA_NQEBD@Z 0000000180014bec     Gaussian.obj
 0002:00002bec       $unwind$?_Myptr@?$_String_val@U?$_Simple_types@D@std@@@std@@QEAAPEADXZ 0000000180014bec     Gaussian.obj
 0002:00002bec       $unwind$?_Grow@?$basic_string@DU?$char_traits@D@std@@V?$allocator@D@2@@std@@QEAA_N_K@Z 0000000180014bec     Gaussian.obj
 0002:00002bec       $unwind$??A?$Proxy@V?$Col@N@arma@@@arma@@QEBANI@Z 0000000180014bec     Gaussian.obj
 0002:00002bec       $unwind$??$apply@V?$Mat@N@arma@@V?$Col@N@2@@?$eop_core@Veop_scalar_times@arma@@@arma@@SAXAEAV?$Mat@N@1@AEBV?$eOp@V?$Col@N@arma@@Veop_scalar_times@2@@1@@Z 0000000180014bec     Gaussian.obj
 0002:00002bec       $unwind$??0?$_String_iterator@V?$_String_val@U?$_Simple_types@D@std@@@std@@@std@@QEAA@PEADPEBU_Container_base0@1@@Z 0000000180014bec     GibbsSampler.obj
 0002:00002bec       $unwind$??$accu_proxy_mat@V?$mtOp@IV?$Op@V?$Row@N@arma@@Vop_cumsum_default@2@@arma@@Vop_rel_gt_pre@2@@arma@@@arma@@YAIAEBV?$Proxy@V?$mtOp@IV?$Op@V?$Row@N@arma@@Vop_cumsum_default@2@@arma@@Vop_rel_gt_pre@2@@arma@@@0@@Z 0000000180014bec     GibbsSampler.obj
 0002:00002bec       $unwind$??$_Fputc@D@std@@YA_NDPEAU_iobuf@@@Z 0000000180014bec     GibbsSampler.obj
 0002:00002bec       $unwind$?_Myres@?$_String_alloc@U?$_String_base_types@DV?$allocator@D@std@@@std@@@std@@QEAAAEA_KXZ 0000000180014bec     Gaussian.obj
 0002:00002bec       $unwind$??$_Ungetc@D@std@@YA_NAEBDPEAU_iobuf@@@Z 0000000180014bec     GibbsSampler.obj
 0002:00002bec       $unwind$?_Xran@?$basic_string@DU?$char_traits@D@std@@V?$allocator@D@2@@std@@SAXXZ 0000000180014bec     Gaussian.obj
 0002:00002bec       $unwind$??A?$diagview@N@arma@@QEBANI@Z 0000000180014bec     Gaussian.obj
 0002:00002bec       $unwind$?assign@?$basic_string@DU?$char_traits@D@std@@V?$allocator@D@2@@std@@QEAAAEAV12@QEBD@Z 0000000180014bec     Gaussian.obj
 0002:00002bec       $unwind$??A?$eOp@V?$Mat@N@arma@@Veop_scalar_times@2@@arma@@QEBANI@Z 0000000180014bec     Gaussian.obj
 0002:00002bec       $unwind$?at_alt@?$eOp@V?$Mat@N@arma@@Veop_scalar_times@2@@arma@@QEBANI@Z 0000000180014bec     Gaussian.obj
 0002:00002bec       $unwind$?_Assign_rv_contents_with_alloc_always_equal@?$basic_string@DU?$char_traits@D@std@@V?$allocator@D@2@@std@@QEAAX$$QEAV12@U?$integral_constant@_N$00@2@@Z 0000000180014bec     Gaussian.obj
 0002:00002bec       $unwind$?at_alt@?$Proxy@V?$Mat@N@arma@@@arma@@QEBANI@Z 0000000180014bec     Gaussian.obj
 0002:00002bec       $unwind$??A?$eOp@V?$Row@N@arma@@Veop_scalar_minus_post@2@@arma@@QEBANI@Z 0000000180014bec     GibbsSampler.obj
 0002:00002bec       $unwind$??A?$Proxy@V?$Mat@N@arma@@@arma@@QEBANI@Z 0000000180014bec     Gaussian.obj
 0002:00002bec       $unwind$??$apply@V?$Mat@N@arma@@V?$Col@N@2@@?$eop_core@Veop_scalar_div_post@arma@@@arma@@SAXAEAV?$Mat@N@1@AEBV?$eOp@V?$Col@N@arma@@Veop_scalar_div_post@2@@1@@Z 0000000180014bec     Gaussian.obj
 0002:00002bec       $unwind$?_Myptr@?$_String_val@U?$_Simple_types@D@std@@@std@@QEBAPEBDXZ 0000000180014bec     Gaussian.obj
 0002:00002bec       $unwind$?at_alt@?$eOp@V?$Row@N@arma@@Veop_scalar_minus_post@2@@arma@@QEBANI@Z 0000000180014bec     GibbsSampler.obj
 0002:00002bec       $unwind$?max_size@?$basic_string@DU?$char_traits@D@std@@V?$allocator@D@2@@std@@QEBA_KXZ 0000000180014bec     Gaussian.obj
 0002:00002bec       $unwind$??$arma_check_bad_alloc@$$BY0BN@D@arma@@YAX_NAEAY0BN@$$CBD@Z 0000000180014bec     GibbsSampler.obj
 0002:00002bec       $unwind$??$apply_mat_noalias_tinysq@NV?$Col@N@arma@@@op_strans@arma@@SAXAEAV?$Mat@N@1@AEBV?$Col@N@1@@Z 0000000180014bec     Gaussian.obj
 0002:00002bec       $unwind$?end@?$Mat@N@arma@@QEAAPEANXZ 0000000180014bec     Gaussian.obj
 0002:00002bec       $unwind$?at_alt@?$Proxy@V?$Row@N@arma@@@arma@@QEBANI@Z 0000000180014bec     GibbsSampler.obj
 0002:00002bec       $unwind$??$arma_check_bad_alloc@$$BY0CH@D@arma@@YAX_NAEAY0CH@$$CBD@Z 0000000180014bec     Gaussian.obj
 0002:00002bec       $unwind$??A?$Proxy@V?$Row@N@arma@@@arma@@QEBANI@Z 0000000180014bec     GibbsSampler.obj
 0002:00002bec       $unwind$??$inplace_set@N@arrayops@arma@@SAXPEANNI@Z 0000000180014bec     Gaussian.obj
 0002:00002bf4       $unwind$?cholupdate@@YA?AV?$Mat@N@arma@@V12@V?$Col@N@2@@Z 0000000180014bf4     Gaussian.obj
 0002:00002c10       $stateUnwindMap$?cholupdate@@YA?AV?$Mat@N@arma@@V12@V?$Col@N@2@@Z 0000000180014c10     Gaussian.obj
 0002:00002c10       $stateUnwindMap$?choldowndate@@YA?AV?$Mat@N@arma@@V12@V?$Col@N@2@@Z 0000000180014c10     Gaussian.obj
 0002:00002c20       $ip2state$?cholupdate@@YA?AV?$Mat@N@arma@@V12@V?$Col@N@2@@Z 0000000180014c20     Gaussian.obj
 0002:00002c40       $unwind$?choldowndate@@YA?AV?$Mat@N@arma@@V12@V?$Col@N@2@@Z 0000000180014c40     Gaussian.obj
 0002:00002c60       $ip2state$?choldowndate@@YA?AV?$Mat@N@arma@@V12@V?$Col@N@2@@Z 0000000180014c60     Gaussian.obj
 0002:00002c80       $unwind$?ZZ@@YANNNNNV?$Mat@N@arma@@V?$Col@N@2@@Z 0000000180014c80     Gaussian.obj
 0002:00002cb8       $stateUnwindMap$?ZZ@@YANNNNNV?$Mat@N@arma@@V?$Col@N@2@@Z 0000000180014cb8     Gaussian.obj
 0002:00002d30       $ip2state$?ZZ@@YANNNNNV?$Mat@N@arma@@V?$Col@N@2@@Z 0000000180014d30     Gaussian.obj
 0002:00002dd8       $unwind$??0Gaussian@@QEAA@XZ 0000000180014dd8     Gaussian.obj
 0002:00002de8       $stateUnwindMap$??0Gaussian@@QEAA@XZ 0000000180014de8     Gaussian.obj
 0002:00002df0       $ip2state$??0Gaussian@@QEAA@XZ 0000000180014df0     Gaussian.obj
 0002:00002e08       $unwind$?init@Gaussian@@QEAAXNNV?$Mat@N@arma@@NV?$Col@N@3@@Z 0000000180014e08     Gaussian.obj
 0002:00002e2c       $stateUnwindMap$?init@Gaussian@@QEAAXNNV?$Mat@N@arma@@NV?$Col@N@3@@Z 0000000180014e2c     Gaussian.obj
 0002:00002e80       $ip2state$?init@Gaussian@@QEAAXNNV?$Mat@N@arma@@NV?$Col@N@3@@Z 0000000180014e80     Gaussian.obj
 0002:00002f20       $unwind$?getMu@Gaussian@@QEAA?AV?$Col@N@arma@@XZ 0000000180014f20     Gaussian.obj
 0002:00002f30       $stateUnwindMap$?getMu@Gaussian@@QEAA?AV?$Col@N@arma@@XZ 0000000180014f30     Gaussian.obj
 0002:00002f38       $ip2state$?getMu@Gaussian@@QEAA?AV?$Col@N@arma@@XZ 0000000180014f38     Gaussian.obj
 0002:00002f50       $unwind$?getSigma@Gaussian@@QEAA?AV?$Mat@N@arma@@XZ 0000000180014f50     Gaussian.obj
 0002:00002f70       $stateUnwindMap$?getSigma@Gaussian@@QEAA?AV?$Mat@N@arma@@XZ 0000000180014f70     Gaussian.obj
 0002:00002fb0       $ip2state$?getSigma@Gaussian@@QEAA?AV?$Mat@N@arma@@XZ 0000000180014fb0     Gaussian.obj
 0002:00003010       $unwind$?additem@Gaussian@@QEAAXV?$Col@N@arma@@@Z 0000000180015010     Gaussian.obj
 0002:00003030       $stateUnwindMap$?delitem@Gaussian@@QEAAXV?$Col@N@arma@@@Z 0000000180015030     Gaussian.obj
 0002:00003030       $stateUnwindMap$?additem@Gaussian@@QEAAXV?$Col@N@arma@@@Z 0000000180015030     Gaussian.obj
 0002:00003050       $ip2state$?additem@Gaussian@@QEAAXV?$Col@N@arma@@@Z 0000000180015050     Gaussian.obj
 0002:00003098       $unwind$?delitem@Gaussian@@QEAAXV?$Col@N@arma@@@Z 0000000180015098     Gaussian.obj
 0002:000030c0       $ip2state$?delitem@Gaussian@@QEAAXV?$Col@N@arma@@@Z 00000001800150c0     Gaussian.obj
 0002:00003108       $unwind$?logpredictive@Gaussian@@QEAANV?$Col@N@arma@@@Z 0000000180015108     Gaussian.obj
 0002:00003130       $stateUnwindMap$?logpredictive@Gaussian@@QEAANV?$Col@N@arma@@@Z 0000000180015130     Gaussian.obj
 0002:00003160       $ip2state$?logpredictive@Gaussian@@QEAANV?$Col@N@arma@@@Z 0000000180015160     Gaussian.obj
 0002:000031b8       $unwind$??0?$basic_ostringstream@DU?$char_traits@D@std@@V?$allocator@D@2@@std@@QEAA@H@Z 00000001800151b8     Gaussian.obj
 0002:000031cc       $stateUnwindMap$??0?$basic_ostringstream@DU?$char_traits@D@std@@V?$allocator@D@2@@std@@QEAA@H@Z 00000001800151cc     Gaussian.obj
 0002:000031e0       $ip2state$??0?$basic_ostringstream@DU?$char_traits@D@std@@V?$allocator@D@2@@std@@QEAA@H@Z 00000001800151e0     Gaussian.obj
 0002:00003200       $unwind$?dtor$1@?0??create_objects@?$field@V?$Mat@N@arma@@@arma@@AEAAXXZ@4HA 0000000180015200     GibbsSampler.obj
 0002:00003200       $unwind$?dtor$1@?0??create_objects@?$field@V?$Row@N@arma@@@arma@@AEAAXXZ@4HA 0000000180015200     GibbsSampler.obj
 0002:00003200       $unwind$?dtor$0@?0??slice@?$Cube@N@arma@@QEAAAEAV?$Mat@N@2@I@Z@4HA 0000000180015200     nCRP-Gibbs-Sampler.obj
 0002:00003200       $unwind$?dtor$0@?0???$randi@V?$Col@N@arma@@@arma@@YA?AV?$Col@N@0@IIAEBVdistr_param@0@PEBV10@@Z@4HA 0000000180015200     GibbsSampler.obj
 0002:00003200       $unwind$?fin$0@?0??dllmain_crt_process_detach@@YAH_N@Z@4HA 0000000180015200     MSVCRT:dll_dllmain.obj
 0002:00003200       $unwind$?dtor$1@?0??create_objects@?$field@V?$field@VGaussian@@@arma@@@arma@@AEAAXXZ@4HA 0000000180015200     GibbsSampler.obj
 0002:00003200       $unwind$?dtor$0@?0???0?$unwrap_check@V?$Mat@N@arma@@@arma@@QEAA@AEBV?$Mat@N@1@_N@Z@4HA 0000000180015200     nCRP-Gibbs-Sampler.obj
 0002:00003200       $unwind$?dtor$1@?0??create_objects@?$field@V?$field@V?$Row@N@arma@@@arma@@@arma@@AEAAXXZ@4HA 0000000180015200     GibbsSampler.obj
 0002:00003200       $unwind$?dtor$0@?0???$regspace@V?$Col@N@arma@@@arma@@YA?AV?$Col@N@0@NN@Z@4HA 0000000180015200     Gaussian.obj
 0002:00003200       $unwind$?dtor$0@?0???0?$basic_ifstream@DU?$char_traits@D@std@@@std@@QEAA@PEBDHH@Z@4HA 0000000180015200     GibbsSampler.obj
 0002:00003200       $unwind$?fin$0@?0??dllmain_crt_process_attach@@YAHQEAUHINSTANCE__@@QEAX@Z@4HA 0000000180015200     MSVCRT:dll_dllmain.obj
 0002:00003200       $unwind$?dtor$0@?0???0?$basic_ostringstream@DU?$char_traits@D@std@@V?$allocator@D@2@@std@@QEAA@H@Z@4HA 0000000180015200     Gaussian.obj
 0002:00003200       $unwind$?dtor$0@?0???$randi@V?$Row@N@arma@@@arma@@YA?AV?$Row@N@0@IIAEBVdistr_param@0@PEBV10@@Z@4HA 0000000180015200     GibbsSampler.obj
 0002:00003200       $unwind$?dtor$1@?0??create_objects@?$field@VGaussian@@@arma@@AEAAXXZ@4HA 0000000180015200     GibbsSampler.obj
 0002:00003208       $unwind$?seekpos@?$basic_stringbuf@DU?$char_traits@D@std@@V?$allocator@D@2@@std@@MEAA?AV?$fpos@U_Mbstatet@@@2@V32@H@Z 0000000180015208     Gaussian.obj
 0002:00003220       $unwind$?seekoff@?$basic_stringbuf@DU?$char_traits@D@std@@V?$allocator@D@2@@std@@MEAA?AV?$fpos@U_Mbstatet@@@2@_JHH@Z 0000000180015220     Gaussian.obj
 0002:00003238       $unwind$?delete_mat@?$Cube@N@arma@@IEAAXXZ 0000000180015238     nCRP-Gibbs-Sampler.obj
 0002:00003238       $unwind$?create_mat@?$Cube@N@arma@@IEAAXXZ 0000000180015238     nCRP-Gibbs-Sampler.obj
 0002:00003238       $unwind$?sync@?$basic_filebuf@DU?$char_traits@D@std@@@std@@MEAAHXZ 0000000180015238     GibbsSampler.obj
 0002:00003238       $unwind$?underflow@?$basic_stringbuf@DU?$char_traits@D@std@@V?$allocator@D@2@@std@@MEAAHXZ 0000000180015238     Gaussian.obj
 0002:00003240       $chain$0$?underflow@?$basic_stringbuf@DU?$char_traits@D@std@@V?$allocator@D@2@@std@@MEAAHXZ 0000000180015240     Gaussian.obj
 0002:00003254       $chain$2$?underflow@?$basic_stringbuf@DU?$char_traits@D@std@@V?$allocator@D@2@@std@@MEAAHXZ 0000000180015254     Gaussian.obj
 0002:00003268       $unwind$?pbackfail@?$basic_stringbuf@DU?$char_traits@D@std@@V?$allocator@D@2@@std@@MEAAHH@Z 0000000180015268     Gaussian.obj
 0002:00003274       $unwind$?overflow@?$basic_stringbuf@DU?$char_traits@D@std@@V?$allocator@D@2@@std@@MEAAHH@Z 0000000180015274     Gaussian.obj
 0002:00003280       $chain$0$?overflow@?$basic_stringbuf@DU?$char_traits@D@std@@V?$allocator@D@2@@std@@MEAAHH@Z 0000000180015280     Gaussian.obj
 0002:00003294       $chain$3$?overflow@?$basic_stringbuf@DU?$char_traits@D@std@@V?$allocator@D@2@@std@@MEAAHH@Z 0000000180015294     Gaussian.obj
 0002:000032ac       $chain$6$?overflow@?$basic_stringbuf@DU?$char_traits@D@std@@V?$allocator@D@2@@std@@MEAAHH@Z 00000001800152ac     Gaussian.obj
 0002:000032c8       $chain$8$?overflow@?$basic_stringbuf@DU?$char_traits@D@std@@V?$allocator@D@2@@std@@MEAAHH@Z 00000001800152c8     Gaussian.obj
 0002:000032e0       $chain$9$?overflow@?$basic_stringbuf@DU?$char_traits@D@std@@V?$allocator@D@2@@std@@MEAAHH@Z 00000001800152e0     Gaussian.obj
 0002:000032f4       $chain$10$?overflow@?$basic_stringbuf@DU?$char_traits@D@std@@V?$allocator@D@2@@std@@MEAAHH@Z 00000001800152f4     Gaussian.obj
 0002:00003304       $chain$11$?overflow@?$basic_stringbuf@DU?$char_traits@D@std@@V?$allocator@D@2@@std@@MEAAHH@Z 0000000180015304     Gaussian.obj
 0002:00003318       $chain$12$?overflow@?$basic_stringbuf@DU?$char_traits@D@std@@V?$allocator@D@2@@std@@MEAAHH@Z 0000000180015318     Gaussian.obj
 0002:00003328       $unwind$??1?$basic_stringbuf@DU?$char_traits@D@std@@V?$allocator@D@2@@std@@UEAA@XZ 0000000180015328     Gaussian.obj
 0002:00003338       $ip2state$??1?$basic_stringbuf@DU?$char_traits@D@std@@V?$allocator@D@2@@std@@UEAA@XZ 0000000180015338     Gaussian.obj
 0002:00003340       $unwind$??1sentry@?$basic_ostream@DU?$char_traits@D@std@@@std@@QEAA@XZ 0000000180015340     Gaussian.obj
 0002:00003350       $ip2state$??1sentry@?$basic_ostream@DU?$char_traits@D@std@@@std@@QEAA@XZ 0000000180015350     Gaussian.obj
 0002:00003358       $unwind$??0sentry@?$basic_ostream@DU?$char_traits@D@std@@@std@@QEAA@AEAV12@@Z 0000000180015358     Gaussian.obj
 0002:0000336c       $stateUnwindMap$??0sentry@?$basic_ostream@DU?$char_traits@D@std@@@std@@QEAA@AEAV12@@Z 000000018001536c     Gaussian.obj
 0002:00003378       $ip2state$??0sentry@?$basic_ostream@DU?$char_traits@D@std@@@std@@QEAA@AEAV12@@Z 0000000180015378     Gaussian.obj
 0002:00003390       $unwind$?__scrt_initialize_thread_safe_statics@@YAHXZ 0000000180015390     MSVCRT:thread_safe_statics.obj
 0002:00003390       $unwind$_RTC_Initialize    0000000180015390     MSVCRT:_initsect_.obj
 0002:00003390       $unwind$_Init_thread_wait  0000000180015390     MSVCRT:thread_safe_statics.obj
 0002:00003390       $unwind$?assign@?$basic_string@DU?$char_traits@D@std@@V?$allocator@D@2@@std@@QEAAAEAV12@QEBD_K@Z 0000000180015390     Gaussian.obj
 0002:00003390       $unwind$_RTC_Terminate     0000000180015390     MSVCRT:_initsect_.obj
 0002:00003390       $unwind$?erase@?$basic_string@DU?$char_traits@D@std@@V?$allocator@D@2@@std@@QEAAAEAV12@_K0@Z 0000000180015390     Gaussian.obj
 0002:00003390       $unwind$_DllMainCRTStartup 0000000180015390     MSVCRT:dll_dllmain.obj
 0002:00003390       $unwind$??$print_elem_zero@N@arma_ostream@arma@@SAXAEAV?$basic_ostream@DU?$char_traits@D@std@@@std@@_N@Z 0000000180015390     Gaussian.obj
 0002:000033a0       $chain$0$?_Tidy@?$basic_stringbuf@DU?$char_traits@D@std@@V?$allocator@D@2@@std@@IEAAXXZ 00000001800153a0     Gaussian.obj
 0002:000033b4       $chain$1$?_Tidy@?$basic_stringbuf@DU?$char_traits@D@std@@V?$allocator@D@2@@std@@IEAAXXZ 00000001800153b4     Gaussian.obj
 0002:000033c4       $unwind$?str@?$basic_stringbuf@DU?$char_traits@D@std@@V?$allocator@D@2@@std@@QEBA?AV?$basic_string@DU?$char_traits@D@std@@V?$allocator@D@2@@2@XZ 00000001800153c4     Gaussian.obj
 0002:000033d4       $chain$0$?str@?$basic_stringbuf@DU?$char_traits@D@std@@V?$allocator@D@2@@std@@QEBA?AV?$basic_string@DU?$char_traits@D@std@@V?$allocator@D@2@@2@XZ 00000001800153d4     Gaussian.obj
 0002:000033e8       $chain$1$?str@?$basic_stringbuf@DU?$char_traits@D@std@@V?$allocator@D@2@@std@@QEBA?AV?$basic_string@DU?$char_traits@D@std@@V?$allocator@D@2@@2@XZ 00000001800153e8     Gaussian.obj
 0002:000033f8       $unwind$??0?$basic_stringbuf@DU?$char_traits@D@std@@V?$allocator@D@2@@std@@QEAA@H@Z 00000001800153f8     Gaussian.obj
 0002:0000340c       $stateUnwindMap$??0?$basic_stringbuf@DU?$char_traits@D@std@@V?$allocator@D@2@@std@@QEAA@H@Z 000000018001540c     Gaussian.obj
 0002:0000340c       $stateUnwindMap$??0?$basic_filebuf@DU?$char_traits@D@std@@@std@@QEAA@PEAU_iobuf@@@Z 000000018001540c     GibbsSampler.obj
 0002:00003418       $ip2state$??0?$basic_stringbuf@DU?$char_traits@D@std@@V?$allocator@D@2@@std@@QEAA@H@Z 0000000180015418     Gaussian.obj
 0002:00003430       $unwind$??1_Sentry_base@?$basic_ostream@DU?$char_traits@D@std@@@std@@QEAA@XZ 0000000180015430     Gaussian.obj
 0002:00003440       $ip2state$??1_Sentry_base@?$basic_ostream@DU?$char_traits@D@std@@@std@@QEAA@XZ 0000000180015440     Gaussian.obj
 0002:00003448       $unwind$?_Clamp_suffix_size@?$basic_string@DU?$char_traits@D@std@@V?$allocator@D@2@@std@@QEBA_K_K0@Z 0000000180015448     Gaussian.obj
 0002:00003448       $unwind$?_Chassign@?$basic_string@DU?$char_traits@D@std@@V?$allocator@D@2@@std@@QEAAX_K0D@Z 0000000180015448     GibbsSampler.obj
 0002:00003450       $unwind$?assign@?$basic_string@DU?$char_traits@D@std@@V?$allocator@D@2@@std@@QEAAAEAV12@AEBV12@_K_K@Z 0000000180015450     Gaussian.obj
 0002:00003450       $unwind$??$apply@V?$Mat@N@arma@@V?$eOp@V?$Mat@N@arma@@Veop_scalar_times@2@@2@V?$Glue@V?$eOp@V?$Col@N@arma@@Veop_scalar_times@2@@arma@@V?$Op@V?$Col@N@arma@@Vop_htrans@2@@2@Vglue_times@2@@2@@?$eglue_core@Veglue_plus@arma@@@arma@@SAXAEAV?$Mat@N@1@AEBV?$eGlue@V?$eOp@V?$Mat@N@arma@@Veop_scalar_times@2@@arma@@V?$Glue@V?$eOp@V?$Col@N@arma@@Veop_scalar_times@2@@arma@@V?$Op@V?$Col@N@arma@@Vop_htrans@2@@2@Vglue_times@2@@2@Veglue_plus@2@@1@@Z 0000000180015450     Gaussian.obj
 0002:00003450       $unwind$?dllmain_raw@@YAHQEAUHINSTANCE__@@KQEAX@Z 0000000180015450     MSVCRT:dll_dllmain.obj
 0002:00003450       $unwind$__scrt_dllmain_exception_filter 0000000180015450     MSVCRT:utility.obj
 0002:00003450       $unwind$??$apply@V?$Mat@N@arma@@V?$eOp@V?$Row@N@arma@@Veop_scalar_minus_post@2@@2@@?$eop_core@Veop_exp@arma@@@arma@@SAXAEAV?$Mat@N@1@AEBV?$eOp@V?$eOp@V?$Row@N@arma@@Veop_scalar_minus_post@2@@arma@@Veop_exp@2@@1@@Z 0000000180015450     GibbsSampler.obj
 0002:00003464       $unwind$?_Copy@?$basic_string@DU?$char_traits@D@std@@V?$allocator@D@2@@std@@QEAAX_K@Z 0000000180015464     Gaussian.obj
 0002:00003478       $stateUnwindMap$??2@YAPEAX_KAEBUnothrow_t@std@@@Z 0000000180015478     MSVCRT:new_scalar_nothrow.obj
 0002:00003478       $stateUnwindMap$?_Copy@?$basic_string@DU?$char_traits@D@std@@V?$allocator@D@2@@std@@QEAAX_K@Z 0000000180015478     Gaussian.obj
 0002:00003488       $tryMap$?_Copy@?$basic_string@DU?$char_traits@D@std@@V?$allocator@D@2@@std@@QEAAX_K@Z 0000000180015488     Gaussian.obj
 0002:0000349c       $handlerMap$0$?_Copy@?$basic_string@DU?$char_traits@D@std@@V?$allocator@D@2@@std@@QEAAX_K@Z 000000018001549c     Gaussian.obj
 0002:000034b0       $ip2state$?_Copy@?$basic_string@DU?$char_traits@D@std@@V?$allocator@D@2@@std@@QEAAX_K@Z 00000001800154b0     Gaussian.obj
 0002:000034e0       $unwind$?catch$0@?0??_Copy@?$basic_string@DU?$char_traits@D@std@@V?$allocator@D@2@@std@@QEAAX_K@Z@4HA 00000001800154e0     Gaussian.obj
 0002:000034f0       $unwind$??1?$Mat@N@arma@@QEAA@XZ 00000001800154f0     Gaussian.obj
 0002:000034f0       $unwind$??1?$Mat@I@arma@@QEAA@XZ 00000001800154f0     GibbsSampler.obj
 0002:00003500       $ip2state$??1?$Mat@N@arma@@QEAA@XZ 0000000180015500     Gaussian.obj
 0002:00003500       $ip2state$??1?$Mat@I@arma@@QEAA@XZ 0000000180015500     GibbsSampler.obj
 0002:00003508       $unwind$??0?$Mat@N@arma@@QEAA@AEBV01@@Z 0000000180015508     Gaussian.obj
 0002:00003508       $unwind$??4?$Mat@N@arma@@QEAAAEBV01@AEBV01@@Z 0000000180015508     Gaussian.obj
 0002:00003514       $unwind$??0?$Col@N@arma@@QEAA@AEBV01@@Z 0000000180015514     Gaussian.obj
 0002:00003528       $stateUnwindMap$??$?0Ufill_zeros@fill@arma@@@?$Row@N@arma@@QEAA@IAEBU?$fill_class@Ufill_zeros@fill@arma@@@fill@1@@Z 0000000180015528     GibbsSampler.obj
 0002:00003528       $stateUnwindMap$??0?$Col@N@arma@@QEAA@AEBV01@@Z 0000000180015528     Gaussian.obj
 0002:00003528       $stateUnwindMap$??$?0Ufill_zeros@fill@arma@@@?$Col@N@arma@@QEAA@IAEBU?$fill_class@Ufill_zeros@fill@arma@@@fill@1@@Z 0000000180015528     GibbsSampler.obj
 0002:00003528       $stateUnwindMap$??0?$Row@N@arma@@QEAA@I@Z 0000000180015528     nCRP-Gibbs-Sampler.obj
 0002:00003528       $stateUnwindMap$??0?$Col@N@arma@@QEAA@II@Z 0000000180015528     GibbsSampler.obj
 0002:00003528       $stateUnwindMap$??0?$Row@N@arma@@QEAA@AEBV01@@Z 0000000180015528     GibbsSampler.obj
 0002:00003530       $ip2state$??0?$Col@N@arma@@QEAA@AEBV01@@Z 0000000180015530     Gaussian.obj
 0002:00003548       $unwind$??0?$Col@N@arma@@QEAA@XZ 0000000180015548     Gaussian.obj
 0002:00003558       $stateUnwindMap$??0?$Proxy@V?$Glue@V?$Op@V?$Mat@N@arma@@Vop_htrans@2@@arma@@V?$Mat@N@2@Vglue_times@2@@arma@@@arma@@QEAA@AEBV?$Glue@V?$Op@V?$Mat@N@arma@@Vop_htrans@2@@arma@@V?$Mat@N@2@Vglue_times@2@@1@@Z 0000000180015558     Gaussian.obj
 0002:00003558       $stateUnwindMap$??$?0V?$subview@N@arma@@@?$Col@N@arma@@QEAA@AEBU?$Base@NV?$subview@N@arma@@@1@@Z 0000000180015558     GibbsSampler.obj
 0002:00003558       $stateUnwindMap$??0?$Proxy@V?$mtOp@IV?$Op@V?$Row@N@arma@@Vop_cumsum_default@2@@arma@@Vop_rel_gt_pre@2@@arma@@@arma@@QEAA@AEBV?$mtOp@IV?$Op@V?$Row@N@arma@@Vop_cumsum_default@2@@arma@@Vop_rel_gt_pre@2@@1@@Z 0000000180015558     GibbsSampler.obj
 0002:00003558       $stateUnwindMap$??0?$Col@N@arma@@QEAA@XZ 0000000180015558     Gaussian.obj
 0002:00003558       $stateUnwindMap$??0?$Proxy@V?$Op@V?$Row@N@arma@@Vop_cumsum_default@2@@arma@@@arma@@QEAA@AEBV?$Op@V?$Row@N@arma@@Vop_cumsum_default@2@@1@@Z 0000000180015558     GibbsSampler.obj
 0002:00003558       $stateUnwindMap$??$?0V?$Mat@N@arma@@@?$Row@N@arma@@QEAA@AEBU?$Base@NV?$Mat@N@arma@@@1@@Z 0000000180015558     nCRP-Gibbs-Sampler.obj
 0002:00003558       $stateUnwindMap$??0?$Row@N@arma@@QEAA@II@Z 0000000180015558     GibbsSampler.obj
 0002:00003558       $stateUnwindMap$??0?$Proxy@V?$Glue@V?$eOp@V?$Col@N@arma@@Veop_scalar_times@2@@arma@@V?$Op@V?$Col@N@arma@@Vop_htrans@2@@2@Vglue_times@2@@arma@@@arma@@QEAA@AEBV?$Glue@V?$eOp@V?$Col@N@arma@@Veop_scalar_times@2@@arma@@V?$Op@V?$Col@N@arma@@Vop_htrans@2@@2@Vglue_times@2@@1@@Z 0000000180015558     Gaussian.obj
 0002:00003558       $stateUnwindMap$??$?0V?$eGlue@V?$Col@N@arma@@V12@Veglue_plus@2@@arma@@@?$Col@N@arma@@QEAA@AEBU?$Base@NV?$eGlue@V?$Col@N@arma@@V12@Veglue_plus@2@@arma@@@1@@Z 0000000180015558     Gaussian.obj
 0002:00003558       $stateUnwindMap$??$?0V?$eOp@V?$Col@N@arma@@Veop_scalar_div_post@2@@arma@@@?$Col@N@arma@@QEAA@AEBU?$Base@NV?$eOp@V?$Col@N@arma@@Veop_scalar_div_post@2@@arma@@@1@@Z 0000000180015558     Gaussian.obj
 0002:00003558       $stateUnwindMap$??0?$Row@N@arma@@QEAA@XZ 0000000180015558     GibbsSampler.obj
 0002:00003558       $stateUnwindMap$??$?0V?$eOp@V?$eOp@V?$Col@N@arma@@Veop_scalar_minus_pre@2@@arma@@Veop_scalar_div_post@2@@arma@@@?$Col@N@arma@@QEAA@AEBU?$Base@NV?$eOp@V?$eOp@V?$Col@N@arma@@Veop_scalar_minus_pre@2@@arma@@Veop_scalar_div_post@2@@arma@@@1@@Z 0000000180015558     Gaussian.obj
 0002:00003558       $stateUnwindMap$??$?0V?$eOp@V?$eOp@V?$Row@N@arma@@Veop_scalar_minus_post@2@@arma@@Veop_exp@2@@arma@@@?$Row@N@arma@@QEAA@AEBU?$Base@NV?$eOp@V?$eOp@V?$Row@N@arma@@Veop_scalar_minus_post@2@@arma@@Veop_exp@2@@arma@@@1@@Z 0000000180015558     GibbsSampler.obj
 0002:00003560       $ip2state$??0?$Col@N@arma@@QEAA@XZ 0000000180015560     Gaussian.obj
 0002:00003568       $unwind$??$dot@N@blas@arma@@YANIPEBN0@Z 0000000180015568     Gaussian.obj
 0002:00003568       $unwind$??$?DV?$Mat@N@arma@@@arma@@YA?BV?$eOp@V?$Mat@N@arma@@Veop_scalar_times@2@@0@AEBV?$Mat@N@0@N@Z 0000000180015568     Gaussian.obj
 0002:00003568       $unwind$?col@?$Mat@N@arma@@QEAA?AV?$subview_col@N@2@I@Z 0000000180015568     GibbsSampler.obj
 0002:00003568       $unwind$??$?DV?$Op@V?$Mat@N@arma@@Vop_htrans@2@@arma@@V?$Mat@N@1@@arma@@YA?BV?$Glue@V?$Op@V?$Mat@N@arma@@Vop_htrans@2@@arma@@V?$Mat@N@2@Vglue_times@2@@0@AEBV?$Op@V?$Mat@N@arma@@Vop_htrans@2@@0@AEBV?$Mat@N@0@@Z 0000000180015568     Gaussian.obj
 0002:00003568       $unwind$??$apply@V?$Op@V?$Mat@N@arma@@Vop_htrans@2@@arma@@V?$Mat@N@2@@glue_times@arma@@SAXAEAV?$Mat@N@1@AEBV?$Glue@V?$Op@V?$Mat@N@arma@@Vop_htrans@2@@arma@@V?$Mat@N@2@Vglue_times@2@@1@@Z 0000000180015568     Gaussian.obj
 0002:00003568       $unwind$??$apply@V?$eOp@V?$Col@N@arma@@Veop_scalar_times@2@@arma@@V?$Op@V?$Col@N@arma@@Vop_htrans@2@@2@@glue_times@arma@@SAXAEAV?$Mat@N@1@AEBV?$Glue@V?$eOp@V?$Col@N@arma@@Veop_scalar_times@2@@arma@@V?$Op@V?$Col@N@arma@@Vop_htrans@2@@2@Vglue_times@2@@1@@Z 0000000180015568     Gaussian.obj
 0002:00003568       $unwind$??$?GV?$Col@N@arma@@@arma@@YA?BV?$eOp@V?$Col@N@arma@@Veop_scalar_minus_pre@2@@0@NAEBV?$Col@N@0@@Z 0000000180015568     Gaussian.obj
 0002:00003568       $unwind$??$?OV?$Op@V?$Row@N@arma@@Vop_cumsum_default@2@@arma@@@arma@@YA?BV?$mtOp@IV?$Op@V?$Row@N@arma@@Vop_cumsum_default@2@@arma@@Vop_rel_gt_pre@2@@0@NAEBV?$Op@V?$Row@N@arma@@Vop_cumsum_default@2@@0@@Z 0000000180015568     GibbsSampler.obj
 0002:00003568       $unwind$??$?KV?$eOp@V?$Col@N@arma@@Veop_scalar_minus_pre@2@@arma@@@arma@@YA?BV?$eOp@V?$eOp@V?$Col@N@arma@@Veop_scalar_minus_pre@2@@arma@@Veop_scalar_div_post@2@@0@AEBV?$eOp@V?$Col@N@arma@@Veop_scalar_minus_pre@2@@0@N@Z 0000000180015568     Gaussian.obj
 0002:00003568       $unwind$??$cumsum@V?$Row@N@arma@@@arma@@YA?BV?$Op@V?$Row@N@arma@@Vop_cumsum_default@2@@0@AEBV?$Row@N@0@@Z 0000000180015568     GibbsSampler.obj
 0002:00003568       $unwind$??$?DV?$eOp@V?$Col@N@arma@@Veop_scalar_times@2@@arma@@V?$Op@V?$Col@N@arma@@Vop_htrans@2@@1@@arma@@YA?BV?$Glue@V?$eOp@V?$Col@N@arma@@Veop_scalar_times@2@@arma@@V?$Op@V?$Col@N@arma@@Vop_htrans@2@@2@Vglue_times@2@@0@AEBV?$eOp@V?$Col@N@arma@@Veop_scalar_times@2@@0@AEBV?$Op@V?$Col@N@arma@@Vop_htrans@2@@0@@Z 0000000180015568     Gaussian.obj
 0002:00003568       $unwind$??$randu@V?$Col@N@arma@@@arma@@YA?BV?$Gen@V?$Col@N@arma@@Vgen_randu@2@@0@IVarma_empty_class@0@PEBV?$Col@N@0@@Z 0000000180015568     GibbsSampler.obj
 0002:00003568       $unwind$??$?KV?$Row@N@arma@@@arma@@YA?BV?$eOp@V?$Row@N@arma@@Veop_scalar_div_post@2@@0@AEBV?$Row@N@0@N@Z 0000000180015568     GibbsSampler.obj
 0002:00003568       $unwind$??$chol@V?$eGlue@V?$eOp@V?$Mat@N@arma@@Veop_scalar_times@2@@arma@@V?$Glue@V?$eOp@V?$Col@N@arma@@Veop_scalar_times@2@@arma@@V?$Op@V?$Col@N@arma@@Vop_htrans@2@@2@Vglue_times@2@@2@Veglue_plus@2@@arma@@@arma@@YA?BV?$Op@V?$eGlue@V?$eOp@V?$Mat@N@arma@@Veop_scalar_times@2@@arma@@V?$Glue@V?$eOp@V?$Col@N@arma@@Veop_scalar_times@2@@arma@@V?$Op@V?$Col@N@arma@@Vop_htrans@2@@2@Vglue_times@2@@2@Veglue_plus@2@@arma@@Vop_chol@2@@0@AEBU?$Base@NV?$eGlue@V?$eOp@V?$Mat@N@arma@@Veop_scalar_times@2@@arma@@V?$Glue@V?$eOp@V?$Col@N@arma@@Veop_scalar_times@2@@arma@@V?$Op@V?$Col@N@arma@@Vop_htrans@2@@2@Vglue_times@2@@2@Veglue_plus@2@@arma@@@0@PEBD@Z 0000000180015568     Gaussian.obj
 0002:00003568       $unwind$?t@?$Col@N@arma@@QEBA?BV?$Op@V?$Col@N@arma@@Vop_htrans@2@@2@XZ 0000000180015568     Gaussian.obj
 0002:00003568       $unwind$??$exp@V?$eOp@V?$Row@N@arma@@Veop_scalar_minus_post@2@@arma@@@arma@@YA?BV?$eOp@V?$eOp@V?$Row@N@arma@@Veop_scalar_minus_post@2@@arma@@Veop_exp@2@@0@AEBV?$eOp@V?$Row@N@arma@@Veop_scalar_minus_post@2@@0@@Z 0000000180015568     GibbsSampler.obj
 0002:00003568       $unwind$??$?GV?$Col@N@arma@@V01@@arma@@YA?BV?$eGlue@V?$Col@N@arma@@V12@Veglue_minus@2@@0@AEBV?$Col@N@0@0@Z 0000000180015568     Gaussian.obj
 0002:00003568       $unwind$?t@?$Base_trans_default@V?$Mat@N@arma@@@arma@@QEBA?BV?$Op@V?$Mat@N@arma@@Vop_htrans@2@@2@XZ 0000000180015568     Gaussian.obj
 0002:00003568       $unwind$??$?GV?$Row@N@arma@@@arma@@YA?BV?$eOp@V?$Row@N@arma@@Veop_scalar_minus_post@2@@0@AEBV?$Row@N@0@N@Z 0000000180015568     GibbsSampler.obj
 0002:00003568       $unwind$??$?DV?$Col@N@arma@@@arma@@YA?BV?$eOp@V?$Col@N@arma@@Veop_scalar_times@2@@0@NAEBV?$Col@N@0@@Z 0000000180015568     Gaussian.obj
 0002:00003568       $unwind$??$?HV?$Col@N@arma@@V01@@arma@@YA?BV?$eGlue@V?$Col@N@arma@@V12@Veglue_plus@2@@0@AEBV?$Col@N@0@0@Z 0000000180015568     Gaussian.obj
 0002:00003568       $unwind$??$?KV?$Col@N@arma@@@arma@@YA?BV?$eOp@V?$Col@N@arma@@Veop_scalar_div_post@2@@0@AEBV?$Col@N@0@N@Z 0000000180015568     Gaussian.obj
 0002:00003568       $unwind$??$diagvec@V?$Mat@N@arma@@@arma@@YA?BV?$Op@V?$Mat@N@arma@@Vop_diagvec@2@@0@AEBU?$Base@NV?$Mat@N@arma@@@0@H@Z 0000000180015568     Gaussian.obj
 0002:00003570       $unwind$??$?6U?$char_traits@D@std@@@std@@YAAEAV?$basic_ostream@DU?$char_traits@D@std@@@0@AEAV10@PEBD@Z 0000000180015570     Gaussian.obj
 0002:0000358c       $stateUnwindMap$??$?6U?$char_traits@D@std@@@std@@YAAEAV?$basic_ostream@DU?$char_traits@D@std@@@0@AEAV10@PEBD@Z 000000018001558c     Gaussian.obj
 0002:000035a4       $tryMap$??$?6U?$char_traits@D@std@@@std@@YAAEAV?$basic_ostream@DU?$char_traits@D@std@@@0@AEAV10@PEBD@Z 00000001800155a4     Gaussian.obj
 0002:000035b8       $handlerMap$0$??$?6U?$char_traits@D@std@@@std@@YAAEAV?$basic_ostream@DU?$char_traits@D@std@@@0@AEAV10@PEBD@Z 00000001800155b8     Gaussian.obj
 0002:000035d0       $ip2state$??$?6U?$char_traits@D@std@@@std@@YAAEAV?$basic_ostream@DU?$char_traits@D@std@@@0@AEAV10@PEBD@Z 00000001800155d0     Gaussian.obj
 0002:00003610       $unwind$?catch$1@?0???$?6U?$char_traits@D@std@@@std@@YAAEAV?$basic_ostream@DU?$char_traits@D@std@@@0@AEAV10@PEBD@Z@4HA 0000000180015610     Gaussian.obj
 0002:00003620       $unwind$??$?6U?$char_traits@D@std@@@std@@YAAEAV?$basic_ostream@DU?$char_traits@D@std@@@0@AEAV10@D@Z 0000000180015620     Gaussian.obj
 0002:0000363c       $stateUnwindMap$??$?6U?$char_traits@D@std@@@std@@YAAEAV?$basic_ostream@DU?$char_traits@D@std@@@0@AEAV10@D@Z 000000018001563c     Gaussian.obj
 0002:00003654       $tryMap$??$?6U?$char_traits@D@std@@@std@@YAAEAV?$basic_ostream@DU?$char_traits@D@std@@@0@AEAV10@D@Z 0000000180015654     Gaussian.obj
 0002:00003668       $handlerMap$0$??$?6U?$char_traits@D@std@@@std@@YAAEAV?$basic_ostream@DU?$char_traits@D@std@@@0@AEAV10@D@Z 0000000180015668     Gaussian.obj
 0002:00003680       $ip2state$??$?6U?$char_traits@D@std@@@std@@YAAEAV?$basic_ostream@DU?$char_traits@D@std@@@0@AEAV10@D@Z 0000000180015680     Gaussian.obj
 0002:000036c0       $unwind$?catch$1@?0???$?6U?$char_traits@D@std@@@std@@YAAEAV?$basic_ostream@DU?$char_traits@D@std@@@0@AEAV10@D@Z@4HA 00000001800156c0     Gaussian.obj
 0002:000036d0       $unwind$??1?$eOp@V?$Row@N@arma@@Veop_scalar_minus_post@2@@arma@@QEAA@XZ 00000001800156d0     GibbsSampler.obj
 0002:000036d0       $unwind$??1?$Glue@V?$Op@V?$Mat@N@arma@@Vop_htrans@2@@arma@@V?$Mat@N@2@Vglue_times@2@@arma@@QEAA@XZ 00000001800156d0     Gaussian.obj
 0002:000036d0       $unwind$??1?$Glue@V?$eOp@V?$Col@N@arma@@Veop_scalar_times@2@@arma@@V?$Op@V?$Col@N@arma@@Vop_htrans@2@@2@Vglue_times@2@@arma@@QEAA@XZ 00000001800156d0     Gaussian.obj
 0002:000036d0       $unwind$??1?$Op@V?$Mat@N@arma@@Vop_diagvec@2@@arma@@QEAA@XZ 00000001800156d0     Gaussian.obj
 0002:000036d0       $unwind$??1?$eOp@V?$Row@N@arma@@Veop_scalar_div_post@2@@arma@@QEAA@XZ 00000001800156d0     GibbsSampler.obj
 0002:000036d0       $unwind$??1?$diagview@N@arma@@QEAA@XZ 00000001800156d0     Gaussian.obj
 0002:000036d0       $unwind$??1?$Op@V?$eGlue@V?$eOp@V?$Mat@N@arma@@Veop_scalar_times@2@@arma@@V?$Glue@V?$eOp@V?$Col@N@arma@@Veop_scalar_times@2@@arma@@V?$Op@V?$Col@N@arma@@Vop_htrans@2@@2@Vglue_times@2@@2@Veglue_plus@2@@arma@@Vop_chol@2@@arma@@QEAA@XZ 00000001800156d0     Gaussian.obj
 0002:000036d0       $unwind$??1?$eOp@V?$Col@N@arma@@Veop_scalar_times@2@@arma@@QEAA@XZ 00000001800156d0     Gaussian.obj
 0002:000036d0       $unwind$??1?$eOp@V?$Col@N@arma@@Veop_scalar_div_post@2@@arma@@QEAA@XZ 00000001800156d0     Gaussian.obj
 0002:000036d0       $unwind$??1?$eOp@V?$Mat@N@arma@@Veop_scalar_times@2@@arma@@QEAA@XZ 00000001800156d0     Gaussian.obj
 0002:000036d0       $unwind$??1?$Gen@V?$Col@N@arma@@Vgen_randu@2@@arma@@QEAA@XZ 00000001800156d0     GibbsSampler.obj
 0002:000036d0       $unwind$??1?$Op@V?$Row@N@arma@@Vop_cumsum_default@2@@arma@@QEAA@XZ 00000001800156d0     GibbsSampler.obj
 0002:000036d0       $unwind$??1?$Op@V?$Mat@N@arma@@Vop_htrans@2@@arma@@QEAA@XZ 00000001800156d0     Gaussian.obj
 0002:000036d0       $unwind$??1?$Op@V?$Col@N@arma@@Vop_htrans@2@@arma@@QEAA@XZ 00000001800156d0     Gaussian.obj
 0002:000036d0       $unwind$??1?$eOp@V?$eOp@V?$Col@N@arma@@Veop_scalar_minus_pre@2@@arma@@Veop_scalar_div_post@2@@arma@@QEAA@XZ 00000001800156d0     Gaussian.obj
 0002:000036d0       $unwind$??1?$mtOp@IV?$Op@V?$Row@N@arma@@Vop_cumsum_default@2@@arma@@Vop_rel_gt_pre@2@@arma@@QEAA@XZ 00000001800156d0     GibbsSampler.obj
 0002:000036d0       $unwind$??1?$eOp@V?$eOp@V?$Row@N@arma@@Veop_scalar_minus_post@2@@arma@@Veop_exp@2@@arma@@QEAA@XZ 00000001800156d0     GibbsSampler.obj
 0002:000036d0       $unwind$??1?$eOp@V?$Col@N@arma@@Veop_scalar_minus_pre@2@@arma@@QEAA@XZ 00000001800156d0     Gaussian.obj
 0002:000036d0       $unwind$??1?$eGlue@V?$Col@N@arma@@V12@Veglue_plus@2@@arma@@QEAA@XZ 00000001800156d0     Gaussian.obj
 0002:000036d0       $unwind$??1wall_clock@arma@@QEAA@XZ 00000001800156d0     GibbsSampler.obj
 0002:000036d0       $unwind$??1?$eGlue@V?$Col@N@arma@@V12@Veglue_minus@2@@arma@@QEAA@XZ 00000001800156d0     Gaussian.obj
 0002:000036d0       $unwind$??1?$subview@N@arma@@QEAA@XZ 00000001800156d0     GibbsSampler.obj
 0002:000036e0       $ip2state$??1?$eOp@V?$Mat@N@arma@@Veop_scalar_times@2@@arma@@QEAA@XZ 00000001800156e0     Gaussian.obj
 0002:000036e0       $ip2state$??1?$eOp@V?$eOp@V?$Col@N@arma@@Veop_scalar_minus_pre@2@@arma@@Veop_scalar_div_post@2@@arma@@QEAA@XZ 00000001800156e0     Gaussian.obj
 0002:000036e0       $ip2state$??1?$Glue@V?$eOp@V?$Col@N@arma@@Veop_scalar_times@2@@arma@@V?$Op@V?$Col@N@arma@@Vop_htrans@2@@2@Vglue_times@2@@arma@@QEAA@XZ 00000001800156e0     Gaussian.obj
 0002:000036e0       $ip2state$??1?$mtOp@IV?$Op@V?$Row@N@arma@@Vop_cumsum_default@2@@arma@@Vop_rel_gt_pre@2@@arma@@QEAA@XZ 00000001800156e0     GibbsSampler.obj
 0002:000036e0       $ip2state$??1?$Op@V?$Row@N@arma@@Vop_cumsum_default@2@@arma@@QEAA@XZ 00000001800156e0     GibbsSampler.obj
 0002:000036e0       $ip2state$??1?$eOp@V?$Col@N@arma@@Veop_scalar_minus_pre@2@@arma@@QEAA@XZ 00000001800156e0     Gaussian.obj
 0002:000036e0       $ip2state$??1?$eOp@V?$Col@N@arma@@Veop_scalar_div_post@2@@arma@@QEAA@XZ 00000001800156e0     Gaussian.obj
 0002:000036e0       $ip2state$??1?$diagview@N@arma@@QEAA@XZ 00000001800156e0     Gaussian.obj
 0002:000036e0       $ip2state$??1?$eOp@V?$Row@N@arma@@Veop_scalar_div_post@2@@arma@@QEAA@XZ 00000001800156e0     GibbsSampler.obj
 0002:000036e0       $ip2state$??1?$eOp@V?$eOp@V?$Row@N@arma@@Veop_scalar_minus_post@2@@arma@@Veop_exp@2@@arma@@QEAA@XZ 00000001800156e0     GibbsSampler.obj
 0002:000036e0       $ip2state$??1?$eOp@V?$Row@N@arma@@Veop_scalar_minus_post@2@@arma@@QEAA@XZ 00000001800156e0     GibbsSampler.obj
 0002:000036e0       $ip2state$??1?$Op@V?$Col@N@arma@@Vop_htrans@2@@arma@@QEAA@XZ 00000001800156e0     Gaussian.obj
 0002:000036e0       $ip2state$??1?$Gen@V?$Col@N@arma@@Vgen_randu@2@@arma@@QEAA@XZ 00000001800156e0     GibbsSampler.obj
 0002:000036e0       $ip2state$??1?$subview@N@arma@@QEAA@XZ 00000001800156e0     GibbsSampler.obj
 0002:000036e0       $ip2state$??1?$eOp@V?$Col@N@arma@@Veop_scalar_times@2@@arma@@QEAA@XZ 00000001800156e0     Gaussian.obj
 0002:000036e0       $ip2state$??1?$eGlue@V?$Col@N@arma@@V12@Veglue_minus@2@@arma@@QEAA@XZ 00000001800156e0     Gaussian.obj
 0002:000036e0       $ip2state$??1?$eGlue@V?$Col@N@arma@@V12@Veglue_plus@2@@arma@@QEAA@XZ 00000001800156e0     Gaussian.obj
 0002:000036e0       $ip2state$??1?$Glue@V?$Op@V?$Mat@N@arma@@Vop_htrans@2@@arma@@V?$Mat@N@2@Vglue_times@2@@arma@@QEAA@XZ 00000001800156e0     Gaussian.obj
 0002:000036e0       $ip2state$??1?$Op@V?$eGlue@V?$eOp@V?$Mat@N@arma@@Veop_scalar_times@2@@arma@@V?$Glue@V?$eOp@V?$Col@N@arma@@Veop_scalar_times@2@@arma@@V?$Op@V?$Col@N@arma@@Vop_htrans@2@@2@Vglue_times@2@@2@Veglue_plus@2@@arma@@Vop_chol@2@@arma@@QEAA@XZ 00000001800156e0     Gaussian.obj
 0002:000036e0       $ip2state$??1wall_clock@arma@@QEAA@XZ 00000001800156e0     GibbsSampler.obj
 0002:000036e0       $ip2state$??1?$Op@V?$Mat@N@arma@@Vop_diagvec@2@@arma@@QEAA@XZ 00000001800156e0     Gaussian.obj
 0002:000036e0       $ip2state$??1?$Op@V?$Mat@N@arma@@Vop_htrans@2@@arma@@QEAA@XZ 00000001800156e0     Gaussian.obj
 0002:000036e8       $unwind$??$regspace@V?$Col@N@arma@@@arma@@YA?AV?$Col@N@0@NN@Z 00000001800156e8     Gaussian.obj
 0002:000036f8       $stateUnwindMap$??$regspace@V?$Col@N@arma@@@arma@@YA?AV?$Col@N@0@NN@Z 00000001800156f8     Gaussian.obj
 0002:000036f8       $stateUnwindMap$??$randi@V?$Col@N@arma@@@arma@@YA?AV?$Col@N@0@IIAEBVdistr_param@0@PEBV10@@Z 00000001800156f8     GibbsSampler.obj
 0002:000036f8       $stateUnwindMap$??$randi@V?$Row@N@arma@@@arma@@YA?AV?$Row@N@0@IIAEBVdistr_param@0@PEBV10@@Z 00000001800156f8     GibbsSampler.obj
 0002:00003700       $ip2state$??$regspace@V?$Col@N@arma@@@arma@@YA?AV?$Col@N@0@NN@Z 0000000180015700     Gaussian.obj
 0002:00003710       $unwind$??$?0V?$eOp@V?$eOp@V?$Col@N@arma@@Veop_scalar_minus_pre@2@@arma@@Veop_scalar_div_post@2@@arma@@@?$Col@N@arma@@QEAA@AEBU?$Base@NV?$eOp@V?$eOp@V?$Col@N@arma@@Veop_scalar_minus_pre@2@@arma@@Veop_scalar_div_post@2@@arma@@@1@@Z 0000000180015710     Gaussian.obj
 0002:00003720       $ip2state$??$?0V?$eOp@V?$eOp@V?$Col@N@arma@@Veop_scalar_minus_pre@2@@arma@@Veop_scalar_div_post@2@@arma@@@?$Col@N@arma@@QEAA@AEBU?$Base@NV?$eOp@V?$eOp@V?$Col@N@arma@@Veop_scalar_minus_pre@2@@arma@@Veop_scalar_div_post@2@@arma@@@1@@Z 0000000180015720     Gaussian.obj
 0002:00003738       $unwind$??$?0V?$eOp@V?$Col@N@arma@@Veop_scalar_div_post@2@@arma@@@?$Col@N@arma@@QEAA@AEBU?$Base@NV?$eOp@V?$Col@N@arma@@Veop_scalar_div_post@2@@arma@@@1@@Z 0000000180015738     Gaussian.obj
 0002:00003748       $ip2state$??$?0V?$eOp@V?$Col@N@arma@@Veop_scalar_div_post@2@@arma@@@?$Col@N@arma@@QEAA@AEBU?$Base@NV?$eOp@V?$Col@N@arma@@Veop_scalar_div_post@2@@arma@@@1@@Z 0000000180015748     Gaussian.obj
 0002:00003760       $unwind$??1?$eOp@V?$Op@V?$Mat@N@arma@@Vop_diagvec@2@@arma@@Veop_log@2@@arma@@QEAA@XZ 0000000180015760     Gaussian.obj
 0002:00003770       $ip2state$??1?$eOp@V?$Op@V?$Mat@N@arma@@Vop_diagvec@2@@arma@@Veop_log@2@@arma@@QEAA@XZ 0000000180015770     Gaussian.obj
 0002:00003778       $unwind$??1?$eGlue@V?$eOp@V?$Mat@N@arma@@Veop_scalar_times@2@@arma@@V?$Glue@V?$eOp@V?$Col@N@arma@@Veop_scalar_times@2@@arma@@V?$Op@V?$Col@N@arma@@Vop_htrans@2@@2@Vglue_times@2@@2@Veglue_plus@2@@arma@@QEAA@XZ 0000000180015778     Gaussian.obj
 0002:00003788       $ip2state$??1?$eGlue@V?$eOp@V?$Mat@N@arma@@Veop_scalar_times@2@@arma@@V?$Glue@V?$eOp@V?$Col@N@arma@@Veop_scalar_times@2@@arma@@V?$Op@V?$Col@N@arma@@Vop_htrans@2@@2@Vglue_times@2@@2@Veglue_plus@2@@arma@@QEAA@XZ 0000000180015788     Gaussian.obj
 0002:00003790       $unwind$??1?$eOp@V?$Glue@V?$Op@V?$Mat@N@arma@@Vop_htrans@2@@arma@@V?$Mat@N@2@Vglue_times@2@@arma@@Veop_scalar_div_post@2@@arma@@QEAA@XZ 0000000180015790     Gaussian.obj
 0002:000037a0       $ip2state$??1?$eOp@V?$Glue@V?$Op@V?$Mat@N@arma@@Vop_htrans@2@@arma@@V?$Mat@N@2@Vglue_times@2@@arma@@Veop_scalar_div_post@2@@arma@@QEAA@XZ 00000001800157a0     Gaussian.obj
 0002:000037a8       $unwind$??$?0V?$eGlue@V?$Col@N@arma@@V12@Veglue_plus@2@@arma@@@?$Col@N@arma@@QEAA@AEBU?$Base@NV?$eGlue@V?$Col@N@arma@@V12@Veglue_plus@2@@arma@@@1@@Z 00000001800157a8     Gaussian.obj
 0002:000037b8       $ip2state$??$?0V?$eGlue@V?$Col@N@arma@@V12@Veglue_plus@2@@arma@@@?$Col@N@arma@@QEAA@AEBU?$Base@NV?$eGlue@V?$Col@N@arma@@V12@Veglue_plus@2@@arma@@@1@@Z 00000001800157b8     Gaussian.obj
 0002:000037d0       $unwind$?init_warm@?$Mat@I@arma@@IEAAXII@Z 00000001800157d0     GibbsSampler.obj
 0002:000037d0       $unwind$?init_warm@?$Mat@N@arma@@IEAAXII@Z 00000001800157d0     Gaussian.obj
 0002:000037e0       $chain$1$?init_warm@?$Mat@N@arma@@IEAAXII@Z 00000001800157e0     Gaussian.obj
 0002:000037f8       $chain$2$?init_warm@?$Mat@N@arma@@IEAAXII@Z 00000001800157f8     Gaussian.obj
 0002:00003808       $unwind$??0?$eOp@V?$Op@V?$Mat@N@arma@@Vop_diagvec@2@@arma@@Veop_log@2@@arma@@QEAA@AEBV?$Op@V?$Mat@N@arma@@Vop_diagvec@2@@1@@Z 0000000180015808     Gaussian.obj
 0002:00003818       $stateUnwindMap$??0?$eOp@V?$Op@V?$Mat@N@arma@@Vop_diagvec@2@@arma@@Veop_log@2@@arma@@QEAA@AEBV?$Op@V?$Mat@N@arma@@Vop_diagvec@2@@1@@Z 0000000180015818     Gaussian.obj
 0002:00003820       $ip2state$??0?$eOp@V?$Op@V?$Mat@N@arma@@Vop_diagvec@2@@arma@@Veop_log@2@@arma@@QEAA@AEBV?$Op@V?$Mat@N@arma@@Vop_diagvec@2@@1@@Z 0000000180015820     Gaussian.obj
 0002:00003828       $unwind$??0?$eGlue@V?$eOp@V?$Mat@N@arma@@Veop_scalar_times@2@@arma@@V?$Glue@V?$eOp@V?$Col@N@arma@@Veop_scalar_times@2@@arma@@V?$Op@V?$Col@N@arma@@Vop_htrans@2@@2@Vglue_times@2@@2@Veglue_plus@2@@arma@@QEAA@AEBV?$eOp@V?$Mat@N@arma@@Veop_scalar_times@2@@1@AEBV?$Glue@V?$eOp@V?$Col@N@arma@@Veop_scalar_times@2@@arma@@V?$Op@V?$Col@N@arma@@Vop_htrans@2@@2@Vglue_times@2@@1@@Z 0000000180015828     Gaussian.obj
 0002:00003838       $stateUnwindMap$??0?$eGlue@V?$eOp@V?$Mat@N@arma@@Veop_scalar_times@2@@arma@@V?$Glue@V?$eOp@V?$Col@N@arma@@Veop_scalar_times@2@@arma@@V?$Op@V?$Col@N@arma@@Vop_htrans@2@@2@Vglue_times@2@@2@Veglue_plus@2@@arma@@QEAA@AEBV?$eOp@V?$Mat@N@arma@@Veop_scalar_times@2@@1@AEBV?$Glue@V?$eOp@V?$Col@N@arma@@Veop_scalar_times@2@@arma@@V?$Op@V?$Col@N@arma@@Vop_htrans@2@@2@Vglue_times@2@@1@@Z 0000000180015838     Gaussian.obj
 0002:00003840       $ip2state$??0?$eGlue@V?$eOp@V?$Mat@N@arma@@Veop_scalar_times@2@@arma@@V?$Glue@V?$eOp@V?$Col@N@arma@@Veop_scalar_times@2@@arma@@V?$Op@V?$Col@N@arma@@Vop_htrans@2@@2@Vglue_times@2@@2@Veglue_plus@2@@arma@@QEAA@AEBV?$eOp@V?$Mat@N@arma@@Veop_scalar_times@2@@1@AEBV?$Glue@V?$eOp@V?$Col@N@arma@@Veop_scalar_times@2@@arma@@V?$Op@V?$Col@N@arma@@Vop_htrans@2@@2@Vglue_times@2@@1@@Z 0000000180015840     Gaussian.obj
 0002:00003848       $unwind$??0?$eOp@V?$Glue@V?$Op@V?$Mat@N@arma@@Vop_htrans@2@@arma@@V?$Mat@N@2@Vglue_times@2@@arma@@Veop_scalar_div_post@2@@arma@@QEAA@AEBV?$Glue@V?$Op@V?$Mat@N@arma@@Vop_htrans@2@@arma@@V?$Mat@N@2@Vglue_times@2@@1@N@Z 0000000180015848     Gaussian.obj
 0002:0000385c       $stateUnwindMap$??0?$eOp@V?$Glue@V?$Op@V?$Mat@N@arma@@Vop_htrans@2@@arma@@V?$Mat@N@2@Vglue_times@2@@arma@@Veop_scalar_div_post@2@@arma@@QEAA@AEBV?$Glue@V?$Op@V?$Mat@N@arma@@Vop_htrans@2@@arma@@V?$Mat@N@2@Vglue_times@2@@1@N@Z 000000018001585c     Gaussian.obj
 0002:00003868       $ip2state$??0?$eOp@V?$Glue@V?$Op@V?$Mat@N@arma@@Vop_htrans@2@@arma@@V?$Mat@N@2@Vglue_times@2@@arma@@Veop_scalar_div_post@2@@arma@@QEAA@AEBV?$Glue@V?$Op@V?$Mat@N@arma@@Vop_htrans@2@@arma@@V?$Mat@N@2@Vglue_times@2@@1@N@Z 0000000180015868     Gaussian.obj
 0002:00003880       $unwind$??$internal_regspace_default_delta@N@arma@@YAXAEAV?$Mat@N@0@NN@Z 0000000180015880     Gaussian.obj
 0002:00003894       $unwind$??$?4V?$eOp@V?$Row@N@arma@@Veop_scalar_minus_post@2@@arma@@Veop_exp@1@@?$Mat@N@arma@@QEAAAEBV01@AEBV?$eOp@V?$eOp@V?$Row@N@arma@@Veop_scalar_minus_post@2@@arma@@Veop_exp@2@@1@@Z 0000000180015894     GibbsSampler.obj
 0002:00003894       $unwind$??$?4V?$Col@N@arma@@V01@Veglue_minus@1@@?$Mat@N@arma@@QEAAAEBV01@AEBV?$eGlue@V?$Col@N@arma@@V12@Veglue_minus@2@@1@@Z 0000000180015894     Gaussian.obj
 0002:00003894       $unwind$??$?4V?$Col@N@arma@@Veop_scalar_div_post@1@@?$Mat@N@arma@@QEAAAEBV01@AEBV?$eOp@V?$Col@N@arma@@Veop_scalar_div_post@2@@1@@Z 0000000180015894     Gaussian.obj
 0002:00003894       $unwind$??$?4V?$Row@N@arma@@Veop_scalar_div_post@1@@?$Mat@N@arma@@QEAAAEBV01@AEBV?$eOp@V?$Row@N@arma@@Veop_scalar_div_post@2@@1@@Z 0000000180015894     GibbsSampler.obj
 0002:00003894       $unwind$??$?4V?$eOp@V?$Mat@N@arma@@Veop_scalar_times@2@@arma@@V?$Glue@V?$eOp@V?$Col@N@arma@@Veop_scalar_times@2@@arma@@V?$Op@V?$Col@N@arma@@Vop_htrans@2@@2@Vglue_times@2@@1@Veglue_plus@1@@?$Mat@N@arma@@QEAAAEBV01@AEBV?$eGlue@V?$eOp@V?$Mat@N@arma@@Veop_scalar_times@2@@arma@@V?$Glue@V?$eOp@V?$Col@N@arma@@Veop_scalar_times@2@@arma@@V?$Op@V?$Col@N@arma@@Vop_htrans@2@@2@Vglue_times@2@@2@Veglue_plus@2@@1@@Z 0000000180015894     Gaussian.obj
 0002:00003894       $unwind$??$?4V?$Col@N@arma@@V01@Veglue_plus@1@@?$Mat@N@arma@@QEAAAEBV01@AEBV?$eGlue@V?$Col@N@arma@@V12@Veglue_plus@2@@1@@Z 0000000180015894     Gaussian.obj
 0002:00003894       $unwind$??$?4V?$Col@N@arma@@Veop_scalar_times@1@@?$Mat@N@arma@@QEAAAEBV01@AEBV?$eOp@V?$Col@N@arma@@Veop_scalar_times@2@@1@@Z 0000000180015894     Gaussian.obj
 0002:00003894       $unwind$??$?4V?$eOp@V?$Col@N@arma@@Veop_scalar_minus_pre@2@@arma@@Veop_scalar_div_post@1@@?$Mat@N@arma@@QEAAAEBV01@AEBV?$eOp@V?$eOp@V?$Col@N@arma@@Veop_scalar_minus_pre@2@@arma@@Veop_scalar_div_post@2@@1@@Z 0000000180015894     Gaussian.obj
 0002:000038a0       $unwind$??$print@N@arma_ostream@arma@@SAXAEAV?$basic_ostream@DU?$char_traits@D@std@@@std@@AEBV?$Mat@N@1@_N@Z 00000001800158a0     Gaussian.obj
 0002:000038bc       $unwind$??0?$Proxy@V?$Glue@V?$Op@V?$Mat@N@arma@@Vop_htrans@2@@arma@@V?$Mat@N@2@Vglue_times@2@@arma@@@arma@@QEAA@AEBV?$Glue@V?$Op@V?$Mat@N@arma@@Vop_htrans@2@@arma@@V?$Mat@N@2@Vglue_times@2@@1@@Z 00000001800158bc     Gaussian.obj
 0002:000038d0       $ip2state$??0?$Proxy@V?$Glue@V?$Op@V?$Mat@N@arma@@Vop_htrans@2@@arma@@V?$Mat@N@2@Vglue_times@2@@arma@@@arma@@QEAA@AEBV?$Glue@V?$Op@V?$Mat@N@arma@@Vop_htrans@2@@arma@@V?$Mat@N@2@Vglue_times@2@@1@@Z 00000001800158d0     Gaussian.obj
 0002:000038d8       $unwind$??0?$Proxy@V?$Glue@V?$eOp@V?$Col@N@arma@@Veop_scalar_times@2@@arma@@V?$Op@V?$Col@N@arma@@Vop_htrans@2@@2@Vglue_times@2@@arma@@@arma@@QEAA@AEBV?$Glue@V?$eOp@V?$Col@N@arma@@Veop_scalar_times@2@@arma@@V?$Op@V?$Col@N@arma@@Vop_htrans@2@@2@Vglue_times@2@@1@@Z 00000001800158d8     Gaussian.obj
 0002:000038e8       $ip2state$??0?$Proxy@V?$Glue@V?$eOp@V?$Col@N@arma@@Veop_scalar_times@2@@arma@@V?$Op@V?$Col@N@arma@@Vop_htrans@2@@2@Vglue_times@2@@arma@@@arma@@QEAA@AEBV?$Glue@V?$eOp@V?$Col@N@arma@@Veop_scalar_times@2@@arma@@V?$Op@V?$Col@N@arma@@Vop_htrans@2@@2@Vglue_times@2@@1@@Z 00000001800158e8     Gaussian.obj
 0002:000038f0       $unwind$??0?$Proxy@V?$Op@V?$Mat@N@arma@@Vop_diagvec@2@@arma@@@arma@@QEAA@AEBV?$Op@V?$Mat@N@arma@@Vop_diagvec@2@@1@@Z 00000001800158f0     Gaussian.obj
 0002:00003900       $stateUnwindMap$??0?$Proxy@V?$Op@V?$Mat@N@arma@@Vop_diagvec@2@@arma@@@arma@@QEAA@AEBV?$Op@V?$Mat@N@arma@@Vop_diagvec@2@@1@@Z 0000000180015900     Gaussian.obj
 0002:00003908       $ip2state$??0?$Proxy@V?$Op@V?$Mat@N@arma@@Vop_diagvec@2@@arma@@@arma@@QEAA@AEBV?$Op@V?$Mat@N@arma@@Vop_diagvec@2@@1@@Z 0000000180015908     Gaussian.obj
 0002:00003910       $unwind$??0?$Proxy_diagvec_mat@V?$Op@V?$Mat@N@arma@@Vop_diagvec@2@@arma@@@arma@@QEAA@AEBV?$Op@V?$Mat@N@arma@@Vop_diagvec@2@@1@@Z 0000000180015910     Gaussian.obj
 0002:00003920       $stateUnwindMap$??0?$Proxy_diagvec_mat@V?$Op@V?$Mat@N@arma@@Vop_diagvec@2@@arma@@@arma@@QEAA@AEBV?$Op@V?$Mat@N@arma@@Vop_diagvec@2@@1@@Z 0000000180015920     Gaussian.obj
 0002:00003928       $ip2state$??0?$Proxy_diagvec_mat@V?$Op@V?$Mat@N@arma@@Vop_diagvec@2@@arma@@@arma@@QEAA@AEBV?$Op@V?$Mat@N@arma@@Vop_diagvec@2@@1@@Z 0000000180015928     Gaussian.obj
 0002:00003930       $unwind$?diag@?$Mat@N@arma@@QEBA?BV?$diagview@N@2@H@Z 0000000180015930     Gaussian.obj
 0002:00003938       $unwind$?steal_mem@?$Mat@N@arma@@QEAAXAEAV12@@Z 0000000180015938     Gaussian.obj
 0002:00003944       $chain$5$?steal_mem@?$Mat@N@arma@@QEAAXAEAV12@@Z 0000000180015944     Gaussian.obj
 0002:0000396c       $chain$6$?steal_mem@?$Mat@N@arma@@QEAAXAEAV12@@Z 000000018001596c     Gaussian.obj
 0002:0000397c       $chain$7$?steal_mem@?$Mat@N@arma@@QEAAXAEAV12@@Z 000000018001597c     Gaussian.obj
 0002:000039a4       $unwind$??$inplace_set_base@N@arrayops@arma@@SAXPEANNI@Z 00000001800159a4     Gaussian.obj
 0002:000039ac       $unwind$??$accu_proxy_linear@V?$eOp@V?$Op@V?$Mat@N@arma@@Vop_diagvec@2@@arma@@Veop_log@2@@arma@@@arma@@YANAEBV?$Proxy@V?$eOp@V?$Op@V?$Mat@N@arma@@Vop_diagvec@2@@arma@@Veop_log@2@@arma@@@0@@Z 00000001800159ac     Gaussian.obj
 0002:000039c8       $unwind$??$chol@NV?$eGlue@V?$eOp@V?$Mat@N@arma@@Veop_scalar_times@2@@arma@@V?$Glue@V?$eOp@V?$Col@N@arma@@Veop_scalar_times@2@@arma@@V?$Op@V?$Col@N@arma@@Vop_htrans@2@@2@Vglue_times@2@@2@Veglue_plus@2@@arma@@@auxlib@arma@@SA_NAEAV?$Mat@N@1@AEBU?$Base@NV?$eGlue@V?$eOp@V?$Mat@N@arma@@Veop_scalar_times@2@@arma@@V?$Glue@V?$eOp@V?$Col@N@arma@@Veop_scalar_times@2@@arma@@V?$Op@V?$Col@N@arma@@Vop_htrans@2@@2@Vglue_times@2@@2@Veglue_plus@2@@arma@@@1@I@Z 00000001800159c8     Gaussian.obj
 0002:000039d4       $unwind$??$arma_stop_runtime_error@$$BY0BN@D@arma@@YAXAEAY0BN@$$CBD@Z 00000001800159d4     Gaussian.obj
 0002:000039e8       $stateUnwindMap$??$arma_stop_runtime_error@$$BY0BN@D@arma@@YAXAEAY0BN@$$CBD@Z 00000001800159e8     Gaussian.obj
 0002:000039e8       $stateUnwindMap$?_Endwrite@?$basic_filebuf@DU?$char_traits@D@std@@@std@@IEAA_NXZ 00000001800159e8     GibbsSampler.obj
 0002:000039f0       $ip2state$??$arma_stop_runtime_error@$$BY0BN@D@arma@@YAXAEAY0BN@$$CBD@Z 00000001800159f0     Gaussian.obj
 0002:00003a00       $unwind$??$modify_stream@N@arma_ostream@arma@@SA_JAEAV?$basic_ostream@DU?$char_traits@D@std@@@std@@PEBNI@Z 0000000180015a00     Gaussian.obj
 0002:00003a18       $unwind$??$arma_stop_bad_alloc@$$BY0BN@D@arma@@YAXAEAY0BN@$$CBD@Z 0000000180015a18     GibbsSampler.obj
 0002:00003a18       $unwind$??$arma_stop_bad_alloc@$$BY0CH@D@arma@@YAXAEAY0CH@$$CBD@Z 0000000180015a18     Gaussian.obj
 0002:00003a18       $unwind$?__scrt_throw_std_bad_array_new_length@@YAXXZ 0000000180015a18     MSVCRT:throw_bad_alloc.obj
 0002:00003a18       $unwind$?__scrt_throw_std_bad_alloc@@YAXXZ 0000000180015a18     MSVCRT:throw_bad_alloc.obj
 0002:00003a18       $unwind$??$arma_stop_bad_alloc@$$BY0CC@D@arma@@YAXAEAY0CC@$$CBD@Z 0000000180015a18     nCRP-Gibbs-Sampler.obj
 0002:00003a20       $unwind$??1?$unwrap_check@V?$Mat@N@arma@@@arma@@QEAA@XZ 0000000180015a20     Gaussian.obj
 0002:00003a30       $ip2state$??1?$unwrap_check@V?$Mat@N@arma@@@arma@@QEAA@XZ 0000000180015a30     Gaussian.obj
 0002:00003a38       $unwind$??$apply@V?$Op@V?$Mat@N@arma@@Vop_htrans@2@@arma@@V?$Mat@N@2@@?$glue_times_redirect2_helper@$0A@@arma@@SAXAEAV?$Mat@N@1@AEBV?$Glue@V?$Op@V?$Mat@N@arma@@Vop_htrans@2@@arma@@V?$Mat@N@2@Vglue_times@2@@1@@Z 0000000180015a38     Gaussian.obj
 0002:00003a50       $stateUnwindMap$??$apply@V?$Op@V?$Mat@N@arma@@Vop_htrans@2@@arma@@V?$Mat@N@2@@?$glue_times_redirect2_helper@$0A@@arma@@SAXAEAV?$Mat@N@1@AEBV?$Glue@V?$Op@V?$Mat@N@arma@@Vop_htrans@2@@arma@@V?$Mat@N@2@Vglue_times@2@@1@@Z 0000000180015a50     Gaussian.obj
 0002:00003a50       $stateUnwindMap$??$apply@V?$eOp@V?$Col@N@arma@@Veop_scalar_times@2@@arma@@V?$Op@V?$Col@N@arma@@Vop_htrans@2@@2@@?$glue_times_redirect2_helper@$0A@@arma@@SAXAEAV?$Mat@N@1@AEBV?$Glue@V?$eOp@V?$Col@N@arma@@Veop_scalar_times@2@@arma@@V?$Op@V?$Col@N@arma@@Vop_htrans@2@@2@Vglue_times@2@@1@@Z 0000000180015a50     Gaussian.obj
 0002:00003a58       $ip2state$??$apply@V?$Op@V?$Mat@N@arma@@Vop_htrans@2@@arma@@V?$Mat@N@2@@?$glue_times_redirect2_helper@$0A@@arma@@SAXAEAV?$Mat@N@1@AEBV?$Glue@V?$Op@V?$Mat@N@arma@@Vop_htrans@2@@arma@@V?$Mat@N@2@Vglue_times@2@@1@@Z 0000000180015a58     Gaussian.obj
 0002:00003a70       $unwind$??$apply@V?$eOp@V?$Col@N@arma@@Veop_scalar_times@2@@arma@@V?$Op@V?$Col@N@arma@@Vop_htrans@2@@2@@?$glue_times_redirect2_helper@$0A@@arma@@SAXAEAV?$Mat@N@1@AEBV?$Glue@V?$eOp@V?$Col@N@arma@@Veop_scalar_times@2@@arma@@V?$Op@V?$Col@N@arma@@Vop_htrans@2@@2@Vglue_times@2@@1@@Z 0000000180015a70     Gaussian.obj
 0002:00003a88       $ip2state$??$apply@V?$eOp@V?$Col@N@arma@@Veop_scalar_times@2@@arma@@V?$Op@V?$Col@N@arma@@Vop_htrans@2@@2@@?$glue_times_redirect2_helper@$0A@@arma@@SAXAEAV?$Mat@N@1@AEBV?$Glue@V?$eOp@V?$Col@N@arma@@Veop_scalar_times@2@@arma@@V?$Op@V?$Col@N@arma@@Vop_htrans@2@@2@Vglue_times@2@@1@@Z 0000000180015a88     Gaussian.obj
 0002:00003aa0       $unwind$??$apply@NV?$Mat@N@arma@@V12@@?$gemm_emul_tinysq@$00$0A@$0A@@arma@@SAXAEAV?$Mat@N@1@AEBV21@1NN@Z 0000000180015aa0     Gaussian.obj
 0002:00003aa0       $unwind$??$apply@N$00$0A@$0A@V?$Mat@N@arma@@V12@@glue_times@arma@@SAXAEAV?$Mat@N@1@AEBV21@1N@Z 0000000180015aa0     Gaussian.obj
 0002:00003ab0       $unwind$??$apply@N$0A@$00$00V?$Col@N@arma@@V12@@glue_times@arma@@SAXAEAV?$Mat@N@1@AEBV?$Col@N@1@1N@Z 0000000180015ab0     Gaussian.obj
 0002:00003ac4       $unwind$??$apply_blas_type@NV?$Col@N@arma@@@?$gemv@$0A@$00$0A@@arma@@SAXPEANAEBV?$Col@N@1@PEBNNN@Z 0000000180015ac4     Gaussian.obj
 0002:00003ac4       $unwind$??$apply_blas_type@NV?$Mat@N@arma@@@?$gemv@$00$0A@$0A@@arma@@SAXPEANAEBV?$Mat@N@1@PEBNNN@Z 0000000180015ac4     Gaussian.obj
 0002:00003acc       $unwind$??$apply_blas_type@NV?$Col@N@arma@@@?$syrk@$0A@$00$0A@@arma@@SAXAEAV?$Mat@N@1@AEBV?$Col@N@1@NN@Z 0000000180015acc     Gaussian.obj
 0002:00003acc       $unwind$??$apply_blas_type@NV?$Mat@N@arma@@@?$syrk@$00$0A@$0A@@arma@@SAXAEAV?$Mat@N@1@AEBV21@NN@Z 0000000180015acc     Gaussian.obj
 0002:00003ad4       $unwind$??$apply_blas_type@NV?$Mat@N@arma@@V12@@?$gemm@$00$0A@$0A@$0A@@arma@@SAXAEAV?$Mat@N@1@AEBV21@1NN@Z 0000000180015ad4     Gaussian.obj
 0002:00003adc       $unwind$??$apply_blas_type@NV?$Col@N@arma@@V12@@?$gemm@$0A@$00$00$0A@@arma@@SAXAEAV?$Mat@N@1@AEBV?$Col@N@1@1NN@Z 0000000180015adc     Gaussian.obj
 0002:00003afc       $stateUnwindMap$??$apply_blas_type@NV?$Col@N@arma@@V12@@?$gemm@$0A@$00$00$0A@@arma@@SAXAEAV?$Mat@N@1@AEBV?$Col@N@1@1NN@Z 0000000180015afc     Gaussian.obj
 0002:00003b18       $ip2state$??$apply_blas_type@NV?$Col@N@arma@@V12@@?$gemm@$0A@$00$00$0A@@arma@@SAXAEAV?$Mat@N@1@AEBV?$Col@N@1@1NN@Z 0000000180015b18     Gaussian.obj
 0002:00003b30       $unwind$??$apply@NV?$Mat@N@arma@@@?$gemv_emul_tinysq@$00$0A@$0A@@arma@@SAXPEANAEBV?$Mat@N@1@PEBNNN@Z 0000000180015b30     Gaussian.obj
 0002:00003b38       $chain$1$??$apply@NV?$Mat@N@arma@@@?$gemv_emul_tinysq@$00$0A@$0A@@arma@@SAXPEANAEBV?$Mat@N@1@PEBNNN@Z 0000000180015b38     Gaussian.obj
 0002:00003b50       $chain$2$??$apply@NV?$Mat@N@arma@@@?$gemv_emul_tinysq@$00$0A@$0A@@arma@@SAXPEANAEBV?$Mat@N@1@PEBNNN@Z 0000000180015b50     Gaussian.obj
 0002:00003b64       $chain$3$??$apply@NV?$Mat@N@arma@@@?$gemv_emul_tinysq@$00$0A@$0A@@arma@@SAXPEANAEBV?$Mat@N@1@PEBNNN@Z 0000000180015b64     Gaussian.obj
 0002:00003b74       $chain$5$??$apply@NV?$Mat@N@arma@@@?$gemv_emul_tinysq@$00$0A@$0A@@arma@@SAXPEANAEBV?$Mat@N@1@PEBNNN@Z 0000000180015b74     Gaussian.obj
 0002:00003b8c       $chain$6$??$apply@NV?$Mat@N@arma@@@?$gemv_emul_tinysq@$00$0A@$0A@@arma@@SAXPEANAEBV?$Mat@N@1@PEBNNN@Z 0000000180015b8c     Gaussian.obj
 0002:00003b9c       $unwind$??$gemv@N@blas@arma@@YAXPEBDPEBH1PEBN21212PEAN1@Z 0000000180015b9c     Gaussian.obj
 0002:00003ba4       $unwind$??$gemm@N@blas@arma@@YAXPEBD0PEBH11PEBN21212PEAN1@Z 0000000180015ba4     Gaussian.obj
 0002:00003bac       $unwind$??$apply@NV?$Mat@N@arma@@@?$syrk_vec@$00$0A@$0A@@arma@@SAXAEAV?$Mat@N@1@AEBV21@NN@Z 0000000180015bac     Gaussian.obj
 0002:00003bb8       $chain$2$??$apply@NV?$Mat@N@arma@@@?$syrk_vec@$00$0A@$0A@@arma@@SAXAEAV?$Mat@N@1@AEBV21@NN@Z 0000000180015bb8     Gaussian.obj
 0002:00003bd4       $chain$3$??$apply@NV?$Mat@N@arma@@@?$syrk_vec@$00$0A@$0A@@arma@@SAXAEAV?$Mat@N@1@AEBV21@NN@Z 0000000180015bd4     Gaussian.obj
 0002:00003be4       $unwind$??$apply@NV?$Mat@N@arma@@@?$syrk_emul@$00$0A@$0A@@arma@@SAXAEAV?$Mat@N@1@AEBV21@NN@Z 0000000180015be4     Gaussian.obj
 0002:00003be4       $unwind$??$apply@NV?$Mat@N@arma@@@?$syrk_emul@$00$00$0A@@arma@@SAXAEAV?$Mat@N@1@AEBV21@NN@Z 0000000180015be4     Gaussian.obj
 0002:00003bf4       $chain$1$??$apply@NV?$Mat@N@arma@@@?$syrk_emul@$00$0A@$0A@@arma@@SAXAEAV?$Mat@N@1@AEBV21@NN@Z 0000000180015bf4     Gaussian.obj
 0002:00003c0c       $chain$2$??$apply@NV?$Mat@N@arma@@@?$syrk_emul@$00$0A@$0A@@arma@@SAXAEAV?$Mat@N@1@AEBV21@NN@Z 0000000180015c0c     Gaussian.obj
 0002:00003c1c       $unwind$??$inplace_copy_upper_tri_to_lower_tri@N@syrk_helper@arma@@SAXAEAV?$Mat@N@1@@Z 0000000180015c1c     Gaussian.obj
 0002:00003c28       $chain$0$??$inplace_copy_upper_tri_to_lower_tri@N@syrk_helper@arma@@SAXAEAV?$Mat@N@1@@Z 0000000180015c28     Gaussian.obj
 0002:00003c3c       $chain$1$??$inplace_copy_upper_tri_to_lower_tri@N@syrk_helper@arma@@SAXAEAV?$Mat@N@1@@Z 0000000180015c3c     Gaussian.obj
 0002:00003c4c       $chain$1$??$apply@NV?$Mat@N@arma@@@?$syrk_emul@$00$00$0A@@arma@@SAXAEAV?$Mat@N@1@AEBV21@NN@Z 0000000180015c4c     Gaussian.obj
 0002:00003c64       $chain$2$??$apply@NV?$Mat@N@arma@@@?$syrk_emul@$00$00$0A@@arma@@SAXAEAV?$Mat@N@1@AEBV21@NN@Z 0000000180015c64     Gaussian.obj
 0002:00003c74       $unwind$??$apply@NV?$Col@N@arma@@@?$gemv_emul_tinysq@$0A@$00$0A@@arma@@SAXPEANAEBV?$Col@N@1@PEBNNN@Z 0000000180015c74     Gaussian.obj
 0002:00003c80       $chain$1$??$apply@NV?$Col@N@arma@@@?$gemv_emul_tinysq@$0A@$00$0A@@arma@@SAXPEANAEBV?$Col@N@1@PEBNNN@Z 0000000180015c80     Gaussian.obj
 0002:00003c98       $chain$2$??$apply@NV?$Col@N@arma@@@?$gemv_emul_tinysq@$0A@$00$0A@@arma@@SAXPEANAEBV?$Col@N@1@PEBNNN@Z 0000000180015c98     Gaussian.obj
 0002:00003cac       $chain$3$??$apply@NV?$Col@N@arma@@@?$gemv_emul_tinysq@$0A@$00$0A@@arma@@SAXPEANAEBV?$Col@N@1@PEBNNN@Z 0000000180015cac     Gaussian.obj
 0002:00003cbc       $chain$5$??$apply@NV?$Col@N@arma@@@?$gemv_emul_tinysq@$0A@$00$0A@@arma@@SAXPEANAEBV?$Col@N@1@PEBNNN@Z 0000000180015cbc     Gaussian.obj
 0002:00003cd4       $chain$6$??$apply@NV?$Col@N@arma@@@?$gemv_emul_tinysq@$0A@$00$0A@@arma@@SAXPEANAEBV?$Col@N@1@PEBNNN@Z 0000000180015cd4     Gaussian.obj
 0002:00003ce4       $unwind$??$apply@NV?$Col@N@arma@@V?$Mat@N@2@@?$gemm_emul_tinysq@$0A@$00$0A@@arma@@SAXAEAV?$Mat@N@1@AEBV?$Col@N@1@AEBV21@NN@Z 0000000180015ce4     Gaussian.obj
 0002:00003cf8       $unwind$??$apply@NV?$Col@N@arma@@@?$syrk_vec@$0A@$00$0A@@arma@@SAXAEAV?$Mat@N@1@AEBV?$Col@N@1@NN@Z 0000000180015cf8     Gaussian.obj
 0002:00003d08       $chain$2$??$apply@NV?$Col@N@arma@@@?$syrk_vec@$0A@$00$0A@@arma@@SAXAEAV?$Mat@N@1@AEBV?$Col@N@1@NN@Z 0000000180015d08     Gaussian.obj
 0002:00003d24       $chain$3$??$apply@NV?$Col@N@arma@@@?$syrk_vec@$0A@$00$0A@@arma@@SAXAEAV?$Mat@N@1@AEBV?$Col@N@1@NN@Z 0000000180015d24     Gaussian.obj
 0002:00003d34       $unwind$??$apply@NV?$Col@N@arma@@@?$syrk_emul@$0A@$00$0A@@arma@@SAXAEAV?$Mat@N@1@AEBV?$Col@N@1@NN@Z 0000000180015d34     Gaussian.obj
 0002:00003d50       $stateUnwindMap$??$apply@NV?$Col@N@arma@@@?$syrk_emul@$0A@$00$0A@@arma@@SAXAEAV?$Mat@N@1@AEBV?$Col@N@1@NN@Z 0000000180015d50     Gaussian.obj
 0002:00003d50       $stateUnwindMap$??$apply@V?$Row@N@arma@@@op_cumsum_default@arma@@SAXAEAV?$Mat@N@1@AEBV?$Op@V?$Row@N@arma@@Vop_cumsum_default@2@@1@@Z 0000000180015d50     GibbsSampler.obj
 0002:00003d50       $stateUnwindMap$??4?$Mat@N@arma@@QEAAAEBV01@AEBV?$subview@N@1@@Z 0000000180015d50     GibbsSampler.obj
 0002:00003d58       $ip2state$??$apply@NV?$Col@N@arma@@@?$syrk_emul@$0A@$00$0A@@arma@@SAXAEAV?$Mat@N@1@AEBV?$Col@N@1@NN@Z 0000000180015d58     Gaussian.obj
 0002:00003d70       $unwind$??1locale@std@@QEAA@XZ 0000000180015d70     GibbsSampler.obj
 0002:00003d80       $ip2state$??1locale@std@@QEAA@XZ 0000000180015d80     GibbsSampler.obj
 0002:00003d88       $unwind$?randu_val@arma_rng_cxx98@arma@@SANXZ 0000000180015d88     GibbsSampler.obj
 0002:00003d94       $unwind$?set_seed_random@arma_rng@arma@@SAXXZ 0000000180015d94     GibbsSampler.obj
 0002:00003db8       $stateUnwindMap$?set_seed_random@arma_rng@arma@@SAXXZ 0000000180015db8     GibbsSampler.obj
 0002:00003dd0       $tryMap$?set_seed_random@arma_rng@arma@@SAXXZ 0000000180015dd0     GibbsSampler.obj
 0002:00003de4       $handlerMap$0$?set_seed_random@arma_rng@arma@@SAXXZ 0000000180015de4     GibbsSampler.obj
 0002:00003df8       $ip2state$?set_seed_random@arma_rng@arma@@SAXXZ 0000000180015df8     GibbsSampler.obj
 0002:00003e28       $unwind$?catch$1@?0??set_seed_random@arma_rng@arma@@SAXXZ@4HA 0000000180015e28     GibbsSampler.obj
 0002:00003e38       $unwind$??0GibbsSampler@@QEAA@XZ 0000000180015e38     GibbsSampler.obj
 0002:00003e48       $stateUnwindMap$??0GibbsSampler@@QEAA@XZ 0000000180015e48     GibbsSampler.obj
 0002:00003e80       $ip2state$??0GibbsSampler@@QEAA@XZ 0000000180015e80     GibbsSampler.obj
 0002:00003ec8       $unwind$?init@GibbsSampler@@QEAAXNNV?$Row@N@arma@@N0V?$field@V?$Mat@N@arma@@@3@0@Z 0000000180015ec8     GibbsSampler.obj
 0002:00003f04       $stateUnwindMap$?init@GibbsSampler@@QEAAXNNV?$Row@N@arma@@N0V?$field@V?$Mat@N@arma@@@3@0@Z 0000000180015f04     GibbsSampler.obj
 0002:00003fb0       $ip2state$?init@GibbsSampler@@QEAAXNNV?$Row@N@arma@@N0V?$field@V?$Mat@N@arma@@@3@0@Z 0000000180015fb0     GibbsSampler.obj
 0002:000040e8       $unwind$?run@GibbsSampler@@QEAAXN@Z 00000001800160e8     GibbsSampler.obj
 0002:00004138       $stateUnwindMap$?run@GibbsSampler@@QEAAXN@Z 0000000180016138     GibbsSampler.obj
 0002:00004220       $ip2state$?run@GibbsSampler@@QEAAXN@Z 0000000180016220     GibbsSampler.obj
 0002:000043c0       $unwind$??0?$basic_ifstream@DU?$char_traits@D@std@@@std@@QEAA@PEBDHH@Z 00000001800163c0     GibbsSampler.obj
 0002:000043d4       $stateUnwindMap$??0?$basic_ifstream@DU?$char_traits@D@std@@@std@@QEAA@PEBDHH@Z 00000001800163d4     GibbsSampler.obj
 0002:000043f0       $ip2state$??0?$basic_ifstream@DU?$char_traits@D@std@@@std@@QEAA@PEBDHH@Z 00000001800163f0     GibbsSampler.obj
 0002:00004418       $chain$0$?sync@?$basic_filebuf@DU?$char_traits@D@std@@@std@@MEAAHXZ 0000000180016418     GibbsSampler.obj
 0002:0000442c       $chain$1$?sync@?$basic_filebuf@DU?$char_traits@D@std@@@std@@MEAAHXZ 000000018001642c     GibbsSampler.obj
 0002:0000443c       $unwind$?seekpos@?$basic_filebuf@DU?$char_traits@D@std@@@std@@MEAA?AV?$fpos@U_Mbstatet@@@2@V32@H@Z 000000018001643c     GibbsSampler.obj
 0002:00004450       $unwind$?seekoff@?$basic_filebuf@DU?$char_traits@D@std@@@std@@MEAA?AV?$fpos@U_Mbstatet@@@2@_JHH@Z 0000000180016450     GibbsSampler.obj
 0002:00004464       $unwind$?uflow@?$basic_filebuf@DU?$char_traits@D@std@@@std@@MEAAHXZ 0000000180016464     GibbsSampler.obj
 0002:00004478       $stateUnwindMap$?uflow@?$basic_filebuf@DU?$char_traits@D@std@@@std@@MEAAHXZ 0000000180016478     GibbsSampler.obj
 0002:00004480       $ip2state$?uflow@?$basic_filebuf@DU?$char_traits@D@std@@@std@@MEAAHXZ 0000000180016480     GibbsSampler.obj
 0002:00004498       $unwind$?pbackfail@?$basic_filebuf@DU?$char_traits@D@std@@@std@@MEAAHH@Z 0000000180016498     GibbsSampler.obj
 0002:000044a4       $chain$0$?pbackfail@?$basic_filebuf@DU?$char_traits@D@std@@@std@@MEAAHH@Z 00000001800164a4     GibbsSampler.obj
 0002:000044b8       $chain$2$?pbackfail@?$basic_filebuf@DU?$char_traits@D@std@@@std@@MEAAHH@Z 00000001800164b8     GibbsSampler.obj
 0002:000044b8       $chain$4$?pbackfail@?$basic_filebuf@DU?$char_traits@D@std@@@std@@MEAAHH@Z 00000001800164b8     GibbsSampler.obj
 0002:000044cc       $unwind$?overflow@?$basic_filebuf@DU?$char_traits@D@std@@@std@@MEAAHH@Z 00000001800164cc     GibbsSampler.obj
 0002:000044ec       $stateUnwindMap$?overflow@?$basic_filebuf@DU?$char_traits@D@std@@@std@@MEAAHH@Z 00000001800164ec     GibbsSampler.obj
 0002:000044f8       $ip2state$?overflow@?$basic_filebuf@DU?$char_traits@D@std@@@std@@MEAAHH@Z 00000001800164f8     GibbsSampler.obj
 0002:00004510       $unwind$??1?$basic_filebuf@DU?$char_traits@D@std@@@std@@UEAA@XZ 0000000180016510     GibbsSampler.obj
 0002:00004520       $ip2state$??1?$basic_filebuf@DU?$char_traits@D@std@@@std@@UEAA@XZ 0000000180016520     GibbsSampler.obj
 0002:00004528       $unwind$?append@?$basic_string@DU?$char_traits@D@std@@V?$allocator@D@2@@std@@QEAAAEAV12@_KD@Z 0000000180016528     GibbsSampler.obj
 0002:0000453c       $chain$0$?append@?$basic_string@DU?$char_traits@D@std@@V?$allocator@D@2@@std@@QEAAAEAV12@_KD@Z 000000018001653c     GibbsSampler.obj
 0002:00004550       $chain$1$?append@?$basic_string@DU?$char_traits@D@std@@V?$allocator@D@2@@std@@QEAAAEAV12@_KD@Z 0000000180016550     GibbsSampler.obj
 0002:00004560       $unwind$?_Endwrite@?$basic_filebuf@DU?$char_traits@D@std@@@std@@IEAA_NXZ 0000000180016560     GibbsSampler.obj
 0002:00004578       $ip2state$?_Endwrite@?$basic_filebuf@DU?$char_traits@D@std@@@std@@IEAA_NXZ 0000000180016578     GibbsSampler.obj
 0002:00004590       $unwind$?init@?$field@VGaussian@@@arma@@AEAAXIII@Z 0000000180016590     GibbsSampler.obj
 0002:00004590       $unwind$?init@?$field@V?$field@VGaussian@@@arma@@@arma@@AEAAXIII@Z 0000000180016590     GibbsSampler.obj
 0002:00004590       $unwind$capture_previous_context 0000000180016590     MSVCRT:gs_report.obj
 0002:00004590       $unwind$?init@?$field@V?$Row@N@arma@@@arma@@AEAAXIII@Z 0000000180016590     GibbsSampler.obj
 0002:00004590       $unwind$?init@?$field@V?$Mat@N@arma@@@arma@@AEAAXIII@Z 0000000180016590     GibbsSampler.obj
 0002:00004590       $unwind$?_Init@?$basic_filebuf@DU?$char_traits@D@std@@@std@@IEAAXPEAU_iobuf@@W4_Initfl@12@@Z 0000000180016590     GibbsSampler.obj
 0002:00004590       $unwind$?init@?$field@V?$field@V?$Row@N@arma@@@arma@@@arma@@AEAAXIII@Z 0000000180016590     GibbsSampler.obj
 0002:0000459c       $unwind$?close@?$basic_filebuf@DU?$char_traits@D@std@@@std@@QEAAPEAV12@XZ 000000018001659c     GibbsSampler.obj
 0002:000045a8       $chain$0$?close@?$basic_filebuf@DU?$char_traits@D@std@@@std@@QEAAPEAV12@XZ 00000001800165a8     GibbsSampler.obj
 0002:000045bc       $chain$1$?close@?$basic_filebuf@DU?$char_traits@D@std@@@std@@QEAAPEAV12@XZ 00000001800165bc     GibbsSampler.obj
 0002:000045cc       $unwind$?open@?$basic_filebuf@DU?$char_traits@D@std@@@std@@QEAAPEAV12@PEBDHH@Z 00000001800165cc     GibbsSampler.obj
 0002:000045dc       $stateUnwindMap$?open@?$basic_filebuf@DU?$char_traits@D@std@@@std@@QEAAPEAV12@PEBDHH@Z 00000001800165dc     GibbsSampler.obj
 0002:000045e8       $ip2state$?open@?$basic_filebuf@DU?$char_traits@D@std@@@std@@QEAAPEAV12@PEBDHH@Z 00000001800165e8     GibbsSampler.obj
 0002:00004600       $unwind$??0?$basic_filebuf@DU?$char_traits@D@std@@@std@@QEAA@PEAU_iobuf@@@Z 0000000180016600     GibbsSampler.obj
 0002:00004610       $ip2state$??0?$basic_filebuf@DU?$char_traits@D@std@@@std@@QEAA@PEAU_iobuf@@@Z 0000000180016610     GibbsSampler.obj
 0002:00004628       $unwind$??0?$Row@N@arma@@QEAA@XZ 0000000180016628     GibbsSampler.obj
 0002:00004638       $ip2state$??0?$Row@N@arma@@QEAA@XZ 0000000180016638     GibbsSampler.obj
 0002:00004640       $unwind$??1?$field@VGaussian@@@arma@@QEAA@XZ 0000000180016640     GibbsSampler.obj
 0002:00004650       $ip2state$??1?$field@VGaussian@@@arma@@QEAA@XZ 0000000180016650     GibbsSampler.obj
 0002:00004658       $unwind$??1?$field@V?$field@VGaussian@@@arma@@@arma@@QEAA@XZ 0000000180016658     GibbsSampler.obj
 0002:00004668       $ip2state$??1?$field@V?$field@VGaussian@@@arma@@@arma@@QEAA@XZ 0000000180016668     GibbsSampler.obj
 0002:00004670       $unwind$??1?$field@V?$Mat@N@arma@@@arma@@QEAA@XZ 0000000180016670     GibbsSampler.obj
 0002:00004680       $ip2state$??1?$field@V?$Mat@N@arma@@@arma@@QEAA@XZ 0000000180016680     GibbsSampler.obj
 0002:00004688       $unwind$??1?$field@V?$Row@N@arma@@@arma@@QEAA@XZ 0000000180016688     GibbsSampler.obj
 0002:00004698       $ip2state$??1?$field@V?$Row@N@arma@@@arma@@QEAA@XZ 0000000180016698     GibbsSampler.obj
 0002:000046a0       $unwind$??1?$field@V?$field@V?$Row@N@arma@@@arma@@@arma@@QEAA@XZ 00000001800166a0     GibbsSampler.obj
 0002:000046b0       $ip2state$??1?$field@V?$field@V?$Row@N@arma@@@arma@@@arma@@QEAA@XZ 00000001800166b0     GibbsSampler.obj
 0002:000046b8       $unwind$??$?0Ufill_zeros@fill@arma@@@?$Col@N@arma@@QEAA@IAEBU?$fill_class@Ufill_zeros@fill@arma@@@fill@1@@Z 00000001800166b8     GibbsSampler.obj
 0002:000046c8       $ip2state$??$?0Ufill_zeros@fill@arma@@@?$Col@N@arma@@QEAA@IAEBU?$fill_class@Ufill_zeros@fill@arma@@@fill@1@@Z 00000001800166c8     GibbsSampler.obj
 0002:000046e0       $unwind$??$randi@V?$Row@N@arma@@@arma@@YA?AV?$Row@N@0@IAEBVdistr_param@0@Varma_empty_class@0@PEBV10@@Z 00000001800166e0     GibbsSampler.obj
 0002:000046e0       $unwind$??$randi@V?$Col@N@arma@@@arma@@YA?AV?$Col@N@0@IAEBVdistr_param@0@Varma_empty_class@0@PEBV10@@Z 00000001800166e0     GibbsSampler.obj
 0002:000046e8       $unwind$??$?0Ufill_zeros@fill@arma@@@?$Row@N@arma@@QEAA@IAEBU?$fill_class@Ufill_zeros@fill@arma@@@fill@1@@Z 00000001800166e8     GibbsSampler.obj
 0002:000046f8       $ip2state$??$?0Ufill_zeros@fill@arma@@@?$Row@N@arma@@QEAA@IAEBU?$fill_class@Ufill_zeros@fill@arma@@@fill@1@@Z 00000001800166f8     GibbsSampler.obj
 0002:00004710       $unwind$??$?0V?$subview@N@arma@@@?$Col@N@arma@@QEAA@AEBU?$Base@NV?$subview@N@arma@@@1@@Z 0000000180016710     GibbsSampler.obj
 0002:00004720       $ip2state$??$?0V?$subview@N@arma@@@?$Col@N@arma@@QEAA@AEBU?$Base@NV?$subview@N@arma@@@1@@Z 0000000180016720     GibbsSampler.obj
 0002:00004738       $unwind$??$?0V?$eOp@V?$eOp@V?$Row@N@arma@@Veop_scalar_minus_post@2@@arma@@Veop_exp@2@@arma@@@?$Row@N@arma@@QEAA@AEBU?$Base@NV?$eOp@V?$eOp@V?$Row@N@arma@@Veop_scalar_minus_post@2@@arma@@Veop_exp@2@@arma@@@1@@Z 0000000180016738     GibbsSampler.obj
 0002:00004748       $ip2state$??$?0V?$eOp@V?$eOp@V?$Row@N@arma@@Veop_scalar_minus_post@2@@arma@@Veop_exp@2@@arma@@@?$Row@N@arma@@QEAA@AEBU?$Base@NV?$eOp@V?$eOp@V?$Row@N@arma@@Veop_scalar_minus_post@2@@arma@@Veop_exp@2@@arma@@@1@@Z 0000000180016748     GibbsSampler.obj
 0002:00004760       $unwind$??$use_facet@V?$codecvt@DDU_Mbstatet@@@std@@@std@@YAAEBV?$codecvt@DDU_Mbstatet@@@0@AEBVlocale@0@@Z 0000000180016760     GibbsSampler.obj
 0002:00004774       $stateUnwindMap$??$use_facet@V?$codecvt@DDU_Mbstatet@@@std@@@std@@YAAEBV?$codecvt@DDU_Mbstatet@@@0@AEBVlocale@0@@Z 0000000180016774     GibbsSampler.obj
 0002:00004780       $ip2state$??$use_facet@V?$codecvt@DDU_Mbstatet@@@std@@@std@@YAAEBV?$codecvt@DDU_Mbstatet@@@0@AEBVlocale@0@@Z 0000000180016780     GibbsSampler.obj
 0002:00004798       $unwind$?fill@?$randu@N@arma_rng@arma@@SAXPEANI@Z 0000000180016798     GibbsSampler.obj
 0002:000047a4       $chain$1$?fill@?$randu@N@arma_rng@arma@@SAXPEANI@Z 00000001800167a4     GibbsSampler.obj
 0002:000047bc       $chain$2$?fill@?$randu@N@arma_rng@arma@@SAXPEANI@Z 00000001800167bc     GibbsSampler.obj
 0002:000047d0       $chain$3$?fill@?$randu@N@arma_rng@arma@@SAXPEANI@Z 00000001800167d0     GibbsSampler.obj
 0002:000047e0       $chain$4$?fill@?$randu@N@arma_rng@arma@@SAXPEANI@Z 00000001800167e0     GibbsSampler.obj
 0002:000047f0       $unwind$??4?$Mat@N@arma@@QEAAAEBV01@AEBV?$subview@N@1@@Z 00000001800167f0     GibbsSampler.obj
 0002:00004810       $ip2state$??4?$Mat@N@arma@@QEAAAEBV01@AEBV?$subview@N@1@@Z 0000000180016810     GibbsSampler.obj
 0002:00004828       $unwind$??0?$subview_col@N@arma@@IEAA@AEBV?$Mat@N@1@I@Z 0000000180016828     GibbsSampler.obj
 0002:00004838       $stateUnwindMap$??0?$subview_col@N@arma@@IEAA@AEBV?$Mat@N@1@I@Z 0000000180016838     GibbsSampler.obj
 0002:00004840       $ip2state$??0?$subview_col@N@arma@@IEAA@AEBV?$Mat@N@1@I@Z 0000000180016840     GibbsSampler.obj
 0002:00004858       $unwind$?init@?$field@V?$Mat@N@arma@@@arma@@AEAAXAEBV12@@Z 0000000180016858     GibbsSampler.obj
 0002:00004858       $unwind$?init@?$field@V?$field@V?$Row@N@arma@@@arma@@@arma@@AEAAXAEBV12@@Z 0000000180016858     GibbsSampler.obj
 0002:00004858       $unwind$?init@?$field@V?$Row@N@arma@@@arma@@AEAAXAEBV12@@Z 0000000180016858     GibbsSampler.obj
 0002:00004858       $unwind$?init@?$field@V?$field@VGaussian@@@arma@@@arma@@AEAAXAEBV12@@Z 0000000180016858     GibbsSampler.obj
 0002:00004858       $unwind$?init@?$field@VGaussian@@@arma@@AEAAXAEBV12@@Z 0000000180016858     GibbsSampler.obj
 0002:00004864       $chain$4$?init@?$field@VGaussian@@@arma@@AEAAXAEBV12@@Z 0000000180016864     GibbsSampler.obj
 0002:00004888       $chain$5$?init@?$field@VGaussian@@@arma@@AEAAXAEBV12@@Z 0000000180016888     GibbsSampler.obj
 0002:0000489c       $chain$6$?init@?$field@VGaussian@@@arma@@AEAAXAEBV12@@Z 000000018001689c     GibbsSampler.obj
 0002:000048ac       $chain$7$?init@?$field@VGaussian@@@arma@@AEAAXAEBV12@@Z 00000001800168ac     GibbsSampler.obj
 0002:000048bc       $unwind$?delete_objects@?$field@VGaussian@@@arma@@AEAAXXZ 00000001800168bc     GibbsSampler.obj
 0002:000048bc       $unwind$?delete_objects@?$field@V?$Row@N@arma@@@arma@@AEAAXXZ 00000001800168bc     GibbsSampler.obj
 0002:000048bc       $unwind$?delete_objects@?$field@V?$field@VGaussian@@@arma@@@arma@@AEAAXXZ 00000001800168bc     GibbsSampler.obj
 0002:000048bc       $unwind$?delete_objects@?$field@V?$Mat@N@arma@@@arma@@AEAAXXZ 00000001800168bc     GibbsSampler.obj
 0002:000048bc       $unwind$?delete_objects@?$field@V?$field@V?$Row@N@arma@@@arma@@@arma@@AEAAXXZ 00000001800168bc     GibbsSampler.obj
 0002:000048cc       $chain$0$?delete_objects@?$field@VGaussian@@@arma@@AEAAXXZ 00000001800168cc     GibbsSampler.obj
 0002:000048e0       $chain$1$?delete_objects@?$field@VGaussian@@@arma@@AEAAXXZ 00000001800168e0     GibbsSampler.obj
 0002:000048f0       $chain$4$?init@?$field@V?$field@VGaussian@@@arma@@@arma@@AEAAXAEBV12@@Z 00000001800168f0     GibbsSampler.obj
 0002:00004914       $chain$5$?init@?$field@V?$field@VGaussian@@@arma@@@arma@@AEAAXAEBV12@@Z 0000000180016914     GibbsSampler.obj
 0002:00004928       $chain$6$?init@?$field@V?$field@VGaussian@@@arma@@@arma@@AEAAXAEBV12@@Z 0000000180016928     GibbsSampler.obj
 0002:00004938       $chain$7$?init@?$field@V?$field@VGaussian@@@arma@@@arma@@AEAAXAEBV12@@Z 0000000180016938     GibbsSampler.obj
 0002:00004948       $chain$0$?delete_objects@?$field@V?$field@VGaussian@@@arma@@@arma@@AEAAXXZ 0000000180016948     GibbsSampler.obj
 0002:0000495c       $chain$1$?delete_objects@?$field@V?$field@VGaussian@@@arma@@@arma@@AEAAXXZ 000000018001695c     GibbsSampler.obj
 0002:0000496c       $chain$4$?init@?$field@V?$Mat@N@arma@@@arma@@AEAAXAEBV12@@Z 000000018001696c     GibbsSampler.obj
 0002:00004990       $chain$5$?init@?$field@V?$Mat@N@arma@@@arma@@AEAAXAEBV12@@Z 0000000180016990     GibbsSampler.obj
 0002:000049a4       $chain$6$?init@?$field@V?$Mat@N@arma@@@arma@@AEAAXAEBV12@@Z 00000001800169a4     GibbsSampler.obj
 0002:000049b4       $chain$7$?init@?$field@V?$Mat@N@arma@@@arma@@AEAAXAEBV12@@Z 00000001800169b4     GibbsSampler.obj
 0002:000049c4       $chain$0$?delete_objects@?$field@V?$Mat@N@arma@@@arma@@AEAAXXZ 00000001800169c4     GibbsSampler.obj
 0002:000049d8       $chain$1$?delete_objects@?$field@V?$Mat@N@arma@@@arma@@AEAAXXZ 00000001800169d8     GibbsSampler.obj
 0002:000049e8       $chain$4$?init@?$field@V?$Row@N@arma@@@arma@@AEAAXAEBV12@@Z 00000001800169e8     GibbsSampler.obj
 0002:00004a0c       $chain$5$?init@?$field@V?$Row@N@arma@@@arma@@AEAAXAEBV12@@Z 0000000180016a0c     GibbsSampler.obj
 0002:00004a20       $chain$6$?init@?$field@V?$Row@N@arma@@@arma@@AEAAXAEBV12@@Z 0000000180016a20     GibbsSampler.obj
 0002:00004a30       $chain$7$?init@?$field@V?$Row@N@arma@@@arma@@AEAAXAEBV12@@Z 0000000180016a30     GibbsSampler.obj
 0002:00004a40       $chain$0$?delete_objects@?$field@V?$Row@N@arma@@@arma@@AEAAXXZ 0000000180016a40     GibbsSampler.obj
 0002:00004a54       $chain$1$?delete_objects@?$field@V?$Row@N@arma@@@arma@@AEAAXXZ 0000000180016a54     GibbsSampler.obj
 0002:00004a64       $chain$4$?init@?$field@V?$field@V?$Row@N@arma@@@arma@@@arma@@AEAAXAEBV12@@Z 0000000180016a64     GibbsSampler.obj
 0002:00004a88       $chain$5$?init@?$field@V?$field@V?$Row@N@arma@@@arma@@@arma@@AEAAXAEBV12@@Z 0000000180016a88     GibbsSampler.obj
 0002:00004a9c       $chain$6$?init@?$field@V?$field@V?$Row@N@arma@@@arma@@@arma@@AEAAXAEBV12@@Z 0000000180016a9c     GibbsSampler.obj
 0002:00004aac       $chain$7$?init@?$field@V?$field@V?$Row@N@arma@@@arma@@@arma@@AEAAXAEBV12@@Z 0000000180016aac     GibbsSampler.obj
 0002:00004abc       $chain$0$?delete_objects@?$field@V?$field@V?$Row@N@arma@@@arma@@@arma@@AEAAXXZ 0000000180016abc     GibbsSampler.obj
 0002:00004ad0       $chain$1$?delete_objects@?$field@V?$field@V?$Row@N@arma@@@arma@@@arma@@AEAAXXZ 0000000180016ad0     GibbsSampler.obj
 0002:00004ae0       $unwind$??$randi@V?$Row@N@arma@@@arma@@YA?AV?$Row@N@0@IIAEBVdistr_param@0@PEBV10@@Z 0000000180016ae0     GibbsSampler.obj
 0002:00004af8       $ip2state$??$randi@V?$Row@N@arma@@@arma@@YA?AV?$Row@N@0@IIAEBVdistr_param@0@PEBV10@@Z 0000000180016af8     GibbsSampler.obj
 0002:00004b08       $unwind$??$randi@V?$Col@N@arma@@@arma@@YA?AV?$Col@N@0@IIAEBVdistr_param@0@PEBV10@@Z 0000000180016b08     GibbsSampler.obj
 0002:00004b20       $ip2state$??$randi@V?$Col@N@arma@@@arma@@YA?AV?$Col@N@0@IIAEBVdistr_param@0@PEBV10@@Z 0000000180016b20     GibbsSampler.obj
 0002:00004b30       $unwind$??$accu@V?$mtOp@IV?$Op@V?$Row@N@arma@@Vop_cumsum_default@2@@arma@@Vop_rel_gt_pre@2@@arma@@@arma@@YAIAEBV?$mtOp@IV?$Op@V?$Row@N@arma@@Vop_cumsum_default@2@@arma@@Vop_rel_gt_pre@2@@0@@Z 0000000180016b30     GibbsSampler.obj
 0002:00004b48       $stateUnwindMap$??$accu@V?$mtOp@IV?$Op@V?$Row@N@arma@@Vop_cumsum_default@2@@arma@@Vop_rel_gt_pre@2@@arma@@@arma@@YAIAEBV?$mtOp@IV?$Op@V?$Row@N@arma@@Vop_cumsum_default@2@@arma@@Vop_rel_gt_pre@2@@0@@Z 0000000180016b48     GibbsSampler.obj
 0002:00004b50       $ip2state$??$accu@V?$mtOp@IV?$Op@V?$Row@N@arma@@Vop_cumsum_default@2@@arma@@Vop_rel_gt_pre@2@@arma@@@arma@@YAIAEBV?$mtOp@IV?$Op@V?$Row@N@arma@@Vop_cumsum_default@2@@arma@@Vop_rel_gt_pre@2@@0@@Z 0000000180016b50     GibbsSampler.obj
 0002:00004b68       $unwind$??0?$Proxy@V?$mtOp@IV?$Op@V?$Row@N@arma@@Vop_cumsum_default@2@@arma@@Vop_rel_gt_pre@2@@arma@@@arma@@QEAA@AEBV?$mtOp@IV?$Op@V?$Row@N@arma@@Vop_cumsum_default@2@@arma@@Vop_rel_gt_pre@2@@1@@Z 0000000180016b68     GibbsSampler.obj
 0002:00004b78       $ip2state$??0?$Proxy@V?$mtOp@IV?$Op@V?$Row@N@arma@@Vop_cumsum_default@2@@arma@@Vop_rel_gt_pre@2@@arma@@@arma@@QEAA@AEBV?$mtOp@IV?$Op@V?$Row@N@arma@@Vop_cumsum_default@2@@arma@@Vop_rel_gt_pre@2@@1@@Z 0000000180016b78     GibbsSampler.obj
 0002:00004b80       $unwind$??0?$Col@N@arma@@QEAA@II@Z 0000000180016b80     GibbsSampler.obj
 0002:00004b98       $ip2state$??0?$Col@N@arma@@QEAA@II@Z 0000000180016b98     GibbsSampler.obj
 0002:00004bb0       $unwind$??0?$Row@N@arma@@QEAA@II@Z 0000000180016bb0     GibbsSampler.obj
 0002:00004bc0       $ip2state$??0?$Row@N@arma@@QEAA@II@Z 0000000180016bc0     GibbsSampler.obj
 0002:00004bd8       $unwind$??0?$Row@N@arma@@QEAA@AEBV01@@Z 0000000180016bd8     GibbsSampler.obj
 0002:00004bf0       $ip2state$??0?$Row@N@arma@@QEAA@AEBV01@@Z 0000000180016bf0     GibbsSampler.obj
 0002:00004c08       $unwind$?extract@?$subview@N@arma@@SAXAEAV?$Mat@N@2@AEBV12@@Z 0000000180016c08     GibbsSampler.obj
 0002:00004c1c       $unwind$??$randi_fill@N@arma_rng_cxx98@arma@@SAXPEANIHH@Z 0000000180016c1c     GibbsSampler.obj
 0002:00004c2c       $chain$0$??$randi_fill@N@arma_rng_cxx98@arma@@SAXPEANIHH@Z 0000000180016c2c     GibbsSampler.obj
 0002:00004c40       $chain$1$??$randi_fill@N@arma_rng_cxx98@arma@@SAXPEANIHH@Z 0000000180016c40     GibbsSampler.obj
 0002:00004c50       $chain$1$?init_warm@?$Mat@I@arma@@IEAAXII@Z 0000000180016c50     GibbsSampler.obj
 0002:00004c68       $chain$2$?init_warm@?$Mat@I@arma@@IEAAXII@Z 0000000180016c68     GibbsSampler.obj
 0002:00004c78       $unwind$?create_objects@?$field@VGaussian@@@arma@@AEAAXXZ 0000000180016c78     GibbsSampler.obj
 0002:00004c8c       $stateUnwindMap$?create_objects@?$field@VGaussian@@@arma@@AEAAXXZ 0000000180016c8c     GibbsSampler.obj
 0002:00004ca0       $ip2state$?create_objects@?$field@VGaussian@@@arma@@AEAAXXZ 0000000180016ca0     GibbsSampler.obj
 0002:00004cb8       $unwind$?create_objects@?$field@V?$field@V?$Row@N@arma@@@arma@@@arma@@AEAAXXZ 0000000180016cb8     GibbsSampler.obj
 0002:00004cb8       $unwind$?create_objects@?$field@V?$field@VGaussian@@@arma@@@arma@@AEAAXXZ 0000000180016cb8     GibbsSampler.obj
 0002:00004ccc       $stateUnwindMap$?create_objects@?$field@V?$field@V?$Row@N@arma@@@arma@@@arma@@AEAAXXZ 0000000180016ccc     GibbsSampler.obj
 0002:00004ccc       $stateUnwindMap$?create_objects@?$field@V?$field@VGaussian@@@arma@@@arma@@AEAAXXZ 0000000180016ccc     GibbsSampler.obj
 0002:00004ce0       $ip2state$?create_objects@?$field@V?$field@VGaussian@@@arma@@@arma@@AEAAXXZ 0000000180016ce0     GibbsSampler.obj
 0002:00004ce0       $ip2state$?create_objects@?$field@V?$field@V?$Row@N@arma@@@arma@@@arma@@AEAAXXZ 0000000180016ce0     GibbsSampler.obj
 0002:00004cf8       $unwind$?create_objects@?$field@V?$Mat@N@arma@@@arma@@AEAAXXZ 0000000180016cf8     GibbsSampler.obj
 0002:00004d0c       $stateUnwindMap$?create_objects@?$field@V?$Row@N@arma@@@arma@@AEAAXXZ 0000000180016d0c     GibbsSampler.obj
 0002:00004d0c       $stateUnwindMap$?create_objects@?$field@V?$Mat@N@arma@@@arma@@AEAAXXZ 0000000180016d0c     GibbsSampler.obj
 0002:00004d20       $ip2state$?create_objects@?$field@V?$Mat@N@arma@@@arma@@AEAAXXZ 0000000180016d20     GibbsSampler.obj
 0002:00004d38       $unwind$?create_objects@?$field@V?$Row@N@arma@@@arma@@AEAAXXZ 0000000180016d38     GibbsSampler.obj
 0002:00004d50       $ip2state$?create_objects@?$field@V?$Row@N@arma@@@arma@@AEAAXXZ 0000000180016d50     GibbsSampler.obj
 0002:00004d68       $unwind$??$accumulate@I@arrayops@arma@@SAIPEBII@Z 0000000180016d68     GibbsSampler.obj
 0002:00004d7c       $unwind$??$apply@V?$Op@V?$Row@N@arma@@Vop_cumsum_default@2@@arma@@@op_rel_gt_pre@arma@@SAXAEAV?$Mat@I@1@AEBV?$mtOp@IV?$Op@V?$Row@N@arma@@Vop_cumsum_default@2@@arma@@Vop_rel_gt_pre@2@@1@@Z 0000000180016d7c     GibbsSampler.obj
 0002:00004da0       $stateUnwindMap$??$apply@V?$Op@V?$Row@N@arma@@Vop_cumsum_default@2@@arma@@@op_rel_gt_pre@arma@@SAXAEAV?$Mat@I@1@AEBV?$mtOp@IV?$Op@V?$Row@N@arma@@Vop_cumsum_default@2@@arma@@Vop_rel_gt_pre@2@@1@@Z 0000000180016da0     GibbsSampler.obj
 0002:00004db8       $ip2state$??$apply@V?$Op@V?$Row@N@arma@@Vop_cumsum_default@2@@arma@@@op_rel_gt_pre@arma@@SAXAEAV?$Mat@I@1@AEBV?$mtOp@IV?$Op@V?$Row@N@arma@@Vop_cumsum_default@2@@arma@@Vop_rel_gt_pre@2@@1@@Z 0000000180016db8     GibbsSampler.obj
 0002:00004dd0       $unwind$??0?$Proxy@V?$Op@V?$Row@N@arma@@Vop_cumsum_default@2@@arma@@@arma@@QEAA@AEBV?$Op@V?$Row@N@arma@@Vop_cumsum_default@2@@1@@Z 0000000180016dd0     GibbsSampler.obj
 0002:00004de0       $ip2state$??0?$Proxy@V?$Op@V?$Row@N@arma@@Vop_cumsum_default@2@@arma@@@arma@@QEAA@AEBV?$Op@V?$Row@N@arma@@Vop_cumsum_default@2@@1@@Z 0000000180016de0     GibbsSampler.obj
 0002:00004de8       $unwind$??$apply@V?$Row@N@arma@@@op_cumsum_default@arma@@SAXAEAV?$Mat@N@1@AEBV?$Op@V?$Row@N@arma@@Vop_cumsum_default@2@@1@@Z 0000000180016de8     GibbsSampler.obj
 0002:00004e00       $ip2state$??$apply@V?$Row@N@arma@@@op_cumsum_default@arma@@SAXAEAV?$Mat@N@1@AEBV?$Op@V?$Row@N@arma@@Vop_cumsum_default@2@@1@@Z 0000000180016e00     GibbsSampler.obj
 0002:00004e18       $unwind$??$apply_noalias@N@op_cumsum@arma@@SAXAEAV?$Mat@N@1@AEBV21@I@Z 0000000180016e18     GibbsSampler.obj
 0002:00004e2c       $chain$0$??$apply_noalias@N@op_cumsum@arma@@SAXAEAV?$Mat@N@1@AEBV21@I@Z 0000000180016e2c     GibbsSampler.obj
 0002:00004e40       $chain$1$??$apply_noalias@N@op_cumsum@arma@@SAXAEAV?$Mat@N@1@AEBV21@I@Z 0000000180016e40     GibbsSampler.obj
 0002:00004e54       $chain$2$??$apply_noalias@N@op_cumsum@arma@@SAXAEAV?$Mat@N@1@AEBV21@I@Z 0000000180016e54     GibbsSampler.obj
 0002:00004e64       $chain$3$??$apply_noalias@N@op_cumsum@arma@@SAXAEAV?$Mat@N@1@AEBV21@I@Z 0000000180016e64     GibbsSampler.obj
 0002:00004e74       $unwind$?armaGetPr@@YA?AV?$Mat@N@arma@@PEBUmxArray_tag@@_N1@Z 0000000180016e74     nCRP-Gibbs-Sampler.obj
 0002:00004e80       $chain$1$?armaGetPr@@YA?AV?$Mat@N@arma@@PEBUmxArray_tag@@_N1@Z 0000000180016e80     nCRP-Gibbs-Sampler.obj
 0002:00004e98       $chain$2$?armaGetPr@@YA?AV?$Mat@N@arma@@PEBUmxArray_tag@@_N1@Z 0000000180016e98     nCRP-Gibbs-Sampler.obj
 0002:00004ea8       $unwind$?armaCreateMxMatrix@@YAPEAUmxArray_tag@@_K00W4mxClassID@@W4mxComplexity@@@Z 0000000180016ea8     nCRP-Gibbs-Sampler.obj
 0002:00004eb8       $unwind$?createCell@@YAPEAUmxArray_tag@@V?$field@V?$Row@N@arma@@@arma@@@Z 0000000180016eb8     nCRP-Gibbs-Sampler.obj
 0002:00004edc       $stateUnwindMap$?createCell@@YAPEAUmxArray_tag@@V?$field@V?$Row@N@arma@@@arma@@@Z 0000000180016edc     nCRP-Gibbs-Sampler.obj
 0002:00004ee8       $ip2state$?createCell@@YAPEAUmxArray_tag@@V?$field@V?$Row@N@arma@@@arma@@@Z 0000000180016ee8     nCRP-Gibbs-Sampler.obj
 0002:00004f00       $unwind$?createCell@@YAPEAUmxArray_tag@@V?$field@V?$field@V?$Row@N@arma@@@arma@@@arma@@@Z 0000000180016f00     nCRP-Gibbs-Sampler.obj
 0002:00004f1c       $stateUnwindMap$?createCell@@YAPEAUmxArray_tag@@V?$field@V?$field@V?$Row@N@arma@@@arma@@@arma@@@Z 0000000180016f1c     nCRP-Gibbs-Sampler.obj
 0002:00004f30       $ip2state$?createCell@@YAPEAUmxArray_tag@@V?$field@V?$field@V?$Row@N@arma@@@arma@@@arma@@@Z 0000000180016f30     nCRP-Gibbs-Sampler.obj
 0002:00004f58       $unwind$?createMuCell@@YAPEAUmxArray_tag@@V?$field@V?$field@VGaussian@@@arma@@@arma@@@Z 0000000180016f58     nCRP-Gibbs-Sampler.obj
 0002:00004f7c       $stateUnwindMap$?createMuCell@@YAPEAUmxArray_tag@@V?$field@V?$field@VGaussian@@@arma@@@arma@@@Z 0000000180016f7c     nCRP-Gibbs-Sampler.obj
 0002:00004fb0       $ip2state$?createMuCell@@YAPEAUmxArray_tag@@V?$field@V?$field@VGaussian@@@arma@@@arma@@@Z 0000000180016fb0     nCRP-Gibbs-Sampler.obj
 0002:00005008       $unwind$?createSigmaCell@@YAPEAUmxArray_tag@@V?$field@V?$field@VGaussian@@@arma@@@arma@@@Z 0000000180017008     nCRP-Gibbs-Sampler.obj
 0002:0000502c       $stateUnwindMap$?createSigmaCell@@YAPEAUmxArray_tag@@V?$field@V?$field@VGaussian@@@arma@@@arma@@@Z 000000018001702c     nCRP-Gibbs-Sampler.obj
 0002:00005050       $ip2state$?createSigmaCell@@YAPEAUmxArray_tag@@V?$field@V?$field@VGaussian@@@arma@@@arma@@@Z 0000000180017050     nCRP-Gibbs-Sampler.obj
 0002:00005098       $unwind$mexFunction        0000000180017098     nCRP-Gibbs-Sampler.obj
 0002:000050c8       $unwind$??0?$Row@N@arma@@QEAA@I@Z 00000001800170c8     nCRP-Gibbs-Sampler.obj
 0002:000050d8       $ip2state$??0?$Row@N@arma@@QEAA@I@Z 00000001800170d8     nCRP-Gibbs-Sampler.obj
 0002:000050e0       $unwind$??1?$Cube@N@arma@@QEAA@XZ 00000001800170e0     nCRP-Gibbs-Sampler.obj
 0002:000050f0       $ip2state$??1?$Cube@N@arma@@QEAA@XZ 00000001800170f0     nCRP-Gibbs-Sampler.obj
 0002:000050f8       $unwind$?slice@?$Cube@N@arma@@QEAAAEAV?$Mat@N@2@I@Z 00000001800170f8     nCRP-Gibbs-Sampler.obj
 0002:00005110       $stateUnwindMap$?slice@?$Cube@N@arma@@QEAAAEAV?$Mat@N@2@I@Z 0000000180017110     nCRP-Gibbs-Sampler.obj
 0002:00005118       $ip2state$?slice@?$Cube@N@arma@@QEAAAEAV?$Mat@N@2@I@Z 0000000180017118     nCRP-Gibbs-Sampler.obj
 0002:00005130       $unwind$??$?0V?$Mat@N@arma@@@?$Row@N@arma@@QEAA@AEBU?$Base@NV?$Mat@N@arma@@@1@@Z 0000000180017130     nCRP-Gibbs-Sampler.obj
 0002:00005140       $ip2state$??$?0V?$Mat@N@arma@@@?$Row@N@arma@@QEAA@AEBU?$Base@NV?$Mat@N@arma@@@1@@Z 0000000180017140     nCRP-Gibbs-Sampler.obj
 0002:00005158       $chain$0$?delete_mat@?$Cube@N@arma@@IEAAXXZ 0000000180017158     nCRP-Gibbs-Sampler.obj
 0002:0000516c       $chain$1$?delete_mat@?$Cube@N@arma@@IEAAXXZ 000000018001716c     nCRP-Gibbs-Sampler.obj
 0002:0000517c       $chain$0$?create_mat@?$Cube@N@arma@@IEAAXXZ 000000018001717c     nCRP-Gibbs-Sampler.obj
 0002:00005190       $chain$1$?create_mat@?$Cube@N@arma@@IEAAXXZ 0000000180017190     nCRP-Gibbs-Sampler.obj
 0002:000051a0       $unwind$??$inplace_op@Vop_internal_equ@arma@@V?$Mat@N@2@@?$subview@N@arma@@QEAAXAEBU?$Base@NV?$Mat@N@arma@@@1@PEBD@Z 00000001800171a0     nCRP-Gibbs-Sampler.obj
 0002:000051ac       $chain$0$??$inplace_op@Vop_internal_equ@arma@@V?$Mat@N@2@@?$subview@N@arma@@QEAAXAEBU?$Base@NV?$Mat@N@arma@@@1@PEBD@Z 00000001800171ac     nCRP-Gibbs-Sampler.obj
 0002:000051c0       $chain$1$??$inplace_op@Vop_internal_equ@arma@@V?$Mat@N@2@@?$subview@N@arma@@QEAAXAEBU?$Base@NV?$Mat@N@arma@@@1@PEBD@Z 00000001800171c0     nCRP-Gibbs-Sampler.obj
 0002:000051d4       $chain$2$??$inplace_op@Vop_internal_equ@arma@@V?$Mat@N@2@@?$subview@N@arma@@QEAAXAEBU?$Base@NV?$Mat@N@arma@@@1@PEBD@Z 00000001800171d4     nCRP-Gibbs-Sampler.obj
 0002:000051e4       $chain$3$??$inplace_op@Vop_internal_equ@arma@@V?$Mat@N@2@@?$subview@N@arma@@QEAAXAEBU?$Base@NV?$Mat@N@arma@@@1@PEBD@Z 00000001800171e4     nCRP-Gibbs-Sampler.obj
 0002:000051f4       $unwind$??0?$unwrap_check@V?$Mat@N@arma@@@arma@@QEAA@AEBV?$Mat@N@1@_N@Z 00000001800171f4     nCRP-Gibbs-Sampler.obj
 0002:0000520c       $stateUnwindMap$??0?$unwrap_check@V?$Mat@N@arma@@@arma@@QEAA@AEBV?$Mat@N@1@_N@Z 000000018001720c     nCRP-Gibbs-Sampler.obj
 0002:00005218       $ip2state$??0?$unwrap_check@V?$Mat@N@arma@@@arma@@QEAA@AEBV?$Mat@N@1@_N@Z 0000000180017218     nCRP-Gibbs-Sampler.obj
 0002:00005230       $xdatasym                  0000000180017230     MSVCRT:_amdsecgs_.obj
 0002:00005234       $unwind$?dllmain_crt_process_attach@@YAHQEAUHINSTANCE__@@QEAX@Z 0000000180017234     MSVCRT:dll_dllmain.obj
 0002:00005260       $unwind$?dllmain_crt_process_detach@@YAH_N@Z 0000000180017260     MSVCRT:dll_dllmain.obj
 0002:00005288       $unwind$?dllmain_dispatch@@YAHQEAUHINSTANCE__@@KQEAX@Z 0000000180017288     MSVCRT:dll_dllmain.obj
 0002:000052b0       $unwind$?filt$0@?0??dllmain_dispatch@@YAHQEAUHINSTANCE__@@KQEAX@Z@4HA 00000001800172b0     MSVCRT:dll_dllmain.obj
 0002:000052b8       $unwind$__report_gsfailure 00000001800172b8     MSVCRT:gs_report.obj
 0002:000052c0       $unwind$__scrt_is_nonwritable_in_current_image 00000001800172c0     MSVCRT:utility.obj
 0002:000052e0       $unwind$__scrt_is_nonwritable_in_current_image$filt$0 00000001800172e0     MSVCRT:utility.obj
 0002:000052e8       $unwind$__scrt_initialize_onexit_tables 00000001800172e8     MSVCRT:utility.obj
 0002:000052f4       $unwind$__scrt_fastfail    00000001800172f4     MSVCRT:utility_desktop.obj
 0002:00005304       $unwind$??2@YAPEAX_KAEBUnothrow_t@std@@@Z 0000000180017304     MSVCRT:new_scalar_nothrow.obj
 0002:00005314       $tryMap$??2@YAPEAX_KAEBUnothrow_t@std@@@Z 0000000180017314     MSVCRT:new_scalar_nothrow.obj
 0002:00005328       $handlerMap$0$??2@YAPEAX_KAEBUnothrow_t@std@@@Z 0000000180017328     MSVCRT:new_scalar_nothrow.obj
 0002:00005340       $ip2state$??2@YAPEAX_KAEBUnothrow_t@std@@@Z 0000000180017340     MSVCRT:new_scalar_nothrow.obj
 0002:00005360       $unwind$?catch$0@?0???2@YAPEAX_KAEBUnothrow_t@std@@@Z@4HA 0000000180017360     MSVCRT:new_scalar_nothrow.obj
 0002:00005370       $unwind$__security_init_cookie 0000000180017370     MSVCRT:gs_support.obj
 0002:0000537c       $unwind$__isa_available_init 000000018001737c     MSVCRT:_cpu_disp_.obj
 0002:00005390       $xdatasym                  0000000180017390     MSVCRT:_guard_dispatch_.obj
 0002:00005394       $unwind$??_G_Fac_node@std@@QEAAPEAXI@Z 0000000180017394     msvcprt:locale0_implib.obj
 0002:000053b0       $stateUnwindMap$??_G_Fac_node@std@@QEAAPEAXI@Z 00000001800173b0     msvcprt:locale0_implib.obj
 0002:000053b8       $ip2state$??_G_Fac_node@std@@QEAAPEAXI@Z 00000001800173b8     msvcprt:locale0_implib.obj
 0002:000053d0       $unwind$__GSHandlerCheckCommon 00000001800173d0     MSVCRT:_gshandler_.obj
 0002:000053d8       $unwind$__GSHandlerCheck_EH 00000001800173d8     MSVCRT:gshandlereh.obj
 0002:000055a0       .edata                     00000001800175a0     nCRP-Gibbs-Sampler.exp
 0002:000055c8       rgpv                       00000001800175c8     nCRP-Gibbs-Sampler.exp
 0002:000055cc       rgszName                   00000001800175cc     nCRP-Gibbs-Sampler.exp
 0002:000055d0       rgwOrd                     00000001800175d0     nCRP-Gibbs-Sampler.exp
 0002:000055d2       szName                     00000001800175d2     nCRP-Gibbs-Sampler.exp
 0002:000055ec       $N00001                    00000001800175ec     nCRP-Gibbs-Sampler.exp
 0002:00005e0e       .idata$6                   0000000180017e0e     libmx:libmx.dll
 0002:00005e48       .idata$6                   0000000180017e48     libmex:libmex.dll
 0002:00005e7a       .idata$6                   0000000180017e7a     blas_win64_MT:blas_win64_MT.dll
 0002:00005e96       .idata$6                   0000000180017e96     lapack_win64_MT:lapack_win64_MT.dll
 0002:00007060       .idata$6                   0000000180019060     msvcprt:MSVCP140.dll
 0002:00007082       .idata$6                   0000000180019082     libmwservices:libmwservices.dll
 0002:00007176       .idata$6                   0000000180019176     vcruntime:VCRUNTIME140.dll
 0002:000073ae       .idata$6                   00000001800193ae     ucrt:api-ms-win-crt-runtime-l1-1-0.dll
 0002:000073d0       .idata$6                   00000001800193d0     ucrt:api-ms-win-crt-math-l1-1-0.dll
 0002:000073f0       .idata$6                   00000001800193f0     ucrt:api-ms-win-crt-heap-l1-1-0.dll
 0002:00007410       .idata$6                   0000000180019410     ucrt:api-ms-win-crt-time-l1-1-0.dll
 0002:00007430       .idata$6                   0000000180019430     ucrt:api-ms-win-crt-stdio-l1-1-0.dll
 0002:00007450       .idata$6                   0000000180019450     ucrt:api-ms-win-crt-utility-l1-1-0.dll
 0002:00007472       .idata$6                   0000000180019472     ucrt:api-ms-win-crt-filesystem-l1-1-0.dll
 0002:000076a0       .idata$6                   00000001800196a0     kernel32:KERNEL32.dll
 0003:00000400       ?_Tss_mutex@@3U_RTL_CRITICAL_SECTION@@A 000000018001a400     MSVCRT:thread_safe_statics.obj
 0003:00000428       ?_Tss_cv@@3U_RTL_CONDITION_VARIABLE@@A 000000018001a428     MSVCRT:thread_safe_statics.obj
 0003:00000430       ?_Tss_event@@3PEAXEA       000000018001a430     MSVCRT:thread_safe_statics.obj
 0003:00000438       ?encoded_sleep_condition_variable_cs@@3P6AHPEAU_RTL_CONDITION_VARIABLE@@PEAU_RTL_CRITICAL_SECTION@@K@ZEA 000000018001a438     MSVCRT:thread_safe_statics.obj
 0003:00000440       ?encoded_wake_all_condition_variable@@3P6AXPEAU_RTL_CONDITION_VARIABLE@@@ZEA 000000018001a440     MSVCRT:thread_safe_statics.obj
 0003:00000448       ?__proc_attached@@3HA      000000018001a448     MSVCRT:dll_dllmain.obj
 0003:00000450       GS_ExceptionRecord         000000018001a450     MSVCRT:gs_report.obj
 0003:000004f0       GS_ContextRecord           000000018001a4f0     MSVCRT:gs_report.obj
 0003:000009c4       ?module_local_atexit_table_initialized@@3_NA 000000018001a9c4     MSVCRT:utility.obj
 0003:000009d0       ?module_local_atexit_table@@3U_onexit_table_t@@A 000000018001a9d0     MSVCRT:utility.obj
 0003:000009e8       ?module_local_at_quick_exit_table@@3U_onexit_table_t@@A 000000018001a9e8     MSVCRT:utility.obj
 0003:00000a00       ?is_initialized_as_dll@@3_NA 000000018001aa00     MSVCRT:utility.obj
 0003:00000a38       ?_Fac_head@std@@3PEAU_Fac_node@1@EA 000000018001aa38     msvcprt:locale0_implib.obj
 0003:00000a40       ?_Fac_tidy_reg@std@@3U_Fac_tidy_reg_t@1@B 000000018001aa40     msvcprt:locale0_implib.obj
 0003:00000a6c       ?endr@arma@@3U?$injector_end_of_row@H@1@B 000000018001aa6c     Gaussian.obj
 0003:00000a6d       ?none@fill@arma@@3U?$fill_class@Ufill_none@fill@arma@@@12@B 000000018001aa6d     Gaussian.obj
 0003:00000a6e       ?zeros@fill@arma@@3U?$fill_class@Ufill_zeros@fill@arma@@@12@B 000000018001aa6e     Gaussian.obj
 0003:00000a6f       ?ones@fill@arma@@3U?$fill_class@Ufill_ones@fill@arma@@@12@B 000000018001aa6f     Gaussian.obj
 0003:00000a70       ?eye@fill@arma@@3U?$fill_class@Ufill_eye@fill@arma@@@12@B 000000018001aa70     Gaussian.obj
 0003:00000a71       ?randu@fill@arma@@3U?$fill_class@Ufill_randu@fill@arma@@@12@B 000000018001aa71     Gaussian.obj
 0003:00000a72       ?randn@fill@arma@@3U?$fill_class@Ufill_randn@fill@arma@@@12@B 000000018001aa72     Gaussian.obj
 0003:00000a73       ?endr@arma@@3U?$injector_end_of_row@H@1@B 000000018001aa73     GibbsSampler.obj
 0003:00000a74       ?none@solve_opts@arma@@3Uopts_none@12@B 000000018001aa74     Gaussian.obj
 0003:00000a78       ?fast@solve_opts@arma@@3Uopts_fast@12@B 000000018001aa78     Gaussian.obj
 0003:00000a7c       ?equilibrate@solve_opts@arma@@3Uopts_equilibrate@12@B 000000018001aa7c     Gaussian.obj
 0003:00000a80       ?no_approx@solve_opts@arma@@3Uopts_no_approx@12@B 000000018001aa80     Gaussian.obj
 0003:00000a84       ?triu@solve_opts@arma@@3Uopts_triu@12@B 000000018001aa84     Gaussian.obj
 0003:00000a88       ?tril@solve_opts@arma@@3Uopts_tril@12@B 000000018001aa88     Gaussian.obj
 0003:00000a8c       ?eucl_dist@arma@@3Ugmm_dist_eucl@1@B 000000018001aa8c     Gaussian.obj
 0003:00000a90       ?maha_dist@arma@@3Ugmm_dist_maha@1@B 000000018001aa90     Gaussian.obj
 0003:00000a94       ?prob_dist@arma@@3Ugmm_dist_prob@1@B 000000018001aa94     Gaussian.obj
 0003:00000a98       ?keep_existing@arma@@3Ugmm_seed_keep_existing@1@B 000000018001aa98     Gaussian.obj
 0003:00000a9c       ?static_subset@arma@@3Ugmm_seed_static_subset@1@B 000000018001aa9c     Gaussian.obj
 0003:00000aa0       ?static_spread@arma@@3Ugmm_seed_static_spread@1@B 000000018001aaa0     Gaussian.obj
 0003:00000aa4       ?random_subset@arma@@3Ugmm_seed_random_subset@1@B 000000018001aaa4     Gaussian.obj
 0003:00000aa8       ?random_spread@arma@@3Ugmm_seed_random_spread@1@B 000000018001aaa8     Gaussian.obj
 0003:00000aac       ?none@fill@arma@@3U?$fill_class@Ufill_none@fill@arma@@@12@B 000000018001aaac     GibbsSampler.obj
 0003:00000aad       ?zeros@fill@arma@@3U?$fill_class@Ufill_zeros@fill@arma@@@12@B 000000018001aaad     GibbsSampler.obj
 0003:00000aae       ?ones@fill@arma@@3U?$fill_class@Ufill_ones@fill@arma@@@12@B 000000018001aaae     GibbsSampler.obj
 0003:00000aaf       ?eye@fill@arma@@3U?$fill_class@Ufill_eye@fill@arma@@@12@B 000000018001aaaf     GibbsSampler.obj
 0003:00000ab0       ?randu@fill@arma@@3U?$fill_class@Ufill_randu@fill@arma@@@12@B 000000018001aab0     GibbsSampler.obj
 0003:00000ab1       ?randn@fill@arma@@3U?$fill_class@Ufill_randn@fill@arma@@@12@B 000000018001aab1     GibbsSampler.obj
 0003:00000ab2       ?endr@arma@@3U?$injector_end_of_row@H@1@B 000000018001aab2     nCRP-Gibbs-Sampler.obj
 0003:00000ab3       ?none@fill@arma@@3U?$fill_class@Ufill_none@fill@arma@@@12@B 000000018001aab3     nCRP-Gibbs-Sampler.obj
 0003:00000ab4       ?none@solve_opts@arma@@3Uopts_none@12@B 000000018001aab4     GibbsSampler.obj
 0003:00000ab8       ?fast@solve_opts@arma@@3Uopts_fast@12@B 000000018001aab8     GibbsSampler.obj
 0003:00000abc       ?equilibrate@solve_opts@arma@@3Uopts_equilibrate@12@B 000000018001aabc     GibbsSampler.obj
 0003:00000ac0       ?no_approx@solve_opts@arma@@3Uopts_no_approx@12@B 000000018001aac0     GibbsSampler.obj
 0003:00000ac4       ?triu@solve_opts@arma@@3Uopts_triu@12@B 000000018001aac4     GibbsSampler.obj
 0003:00000ac8       ?tril@solve_opts@arma@@3Uopts_tril@12@B 000000018001aac8     GibbsSampler.obj
 0003:00000acc       ?eucl_dist@arma@@3Ugmm_dist_eucl@1@B 000000018001aacc     GibbsSampler.obj
 0003:00000ad0       ?maha_dist@arma@@3Ugmm_dist_maha@1@B 000000018001aad0     GibbsSampler.obj
 0003:00000ad4       ?prob_dist@arma@@3Ugmm_dist_prob@1@B 000000018001aad4     GibbsSampler.obj
 0003:00000ad8       ?keep_existing@arma@@3Ugmm_seed_keep_existing@1@B 000000018001aad8     GibbsSampler.obj
 0003:00000adc       ?static_subset@arma@@3Ugmm_seed_static_subset@1@B 000000018001aadc     GibbsSampler.obj
 0003:00000ae0       ?static_spread@arma@@3Ugmm_seed_static_spread@1@B 000000018001aae0     GibbsSampler.obj
 0003:00000ae4       ?random_subset@arma@@3Ugmm_seed_random_subset@1@B 000000018001aae4     GibbsSampler.obj
 0003:00000ae8       ?random_spread@arma@@3Ugmm_seed_random_spread@1@B 000000018001aae8     GibbsSampler.obj
 0003:00000aec       ?zeros@fill@arma@@3U?$fill_class@Ufill_zeros@fill@arma@@@12@B 000000018001aaec     nCRP-Gibbs-Sampler.obj
 0003:00000aed       ?ones@fill@arma@@3U?$fill_class@Ufill_ones@fill@arma@@@12@B 000000018001aaed     nCRP-Gibbs-Sampler.obj
 0003:00000aee       ?eye@fill@arma@@3U?$fill_class@Ufill_eye@fill@arma@@@12@B 000000018001aaee     nCRP-Gibbs-Sampler.obj
 0003:00000aef       ?randu@fill@arma@@3U?$fill_class@Ufill_randu@fill@arma@@@12@B 000000018001aaef     nCRP-Gibbs-Sampler.obj
 0003:00000af0       ?randn@fill@arma@@3U?$fill_class@Ufill_randn@fill@arma@@@12@B 000000018001aaf0     nCRP-Gibbs-Sampler.obj
 0003:00000af4       ?none@solve_opts@arma@@3Uopts_none@12@B 000000018001aaf4     nCRP-Gibbs-Sampler.obj
 0003:00000af8       ?fast@solve_opts@arma@@3Uopts_fast@12@B 000000018001aaf8     nCRP-Gibbs-Sampler.obj
 0003:00000afc       ?equilibrate@solve_opts@arma@@3Uopts_equilibrate@12@B 000000018001aafc     nCRP-Gibbs-Sampler.obj
 0003:00000b00       ?no_approx@solve_opts@arma@@3Uopts_no_approx@12@B 000000018001ab00     nCRP-Gibbs-Sampler.obj
 0003:00000b04       ?triu@solve_opts@arma@@3Uopts_triu@12@B 000000018001ab04     nCRP-Gibbs-Sampler.obj
 0003:00000b08       ?tril@solve_opts@arma@@3Uopts_tril@12@B 000000018001ab08     nCRP-Gibbs-Sampler.obj
 0003:00000b0c       ?eucl_dist@arma@@3Ugmm_dist_eucl@1@B 000000018001ab0c     nCRP-Gibbs-Sampler.obj
 0003:00000b10       ?maha_dist@arma@@3Ugmm_dist_maha@1@B 000000018001ab10     nCRP-Gibbs-Sampler.obj
 0003:00000b14       ?prob_dist@arma@@3Ugmm_dist_prob@1@B 000000018001ab14     nCRP-Gibbs-Sampler.obj
 0003:00000b18       ?keep_existing@arma@@3Ugmm_seed_keep_existing@1@B 000000018001ab18     nCRP-Gibbs-Sampler.obj
 0003:00000b1c       ?static_subset@arma@@3Ugmm_seed_static_subset@1@B 000000018001ab1c     nCRP-Gibbs-Sampler.obj
 0003:00000b20       ?static_spread@arma@@3Ugmm_seed_static_spread@1@B 000000018001ab20     nCRP-Gibbs-Sampler.obj
 0003:00000b24       ?random_subset@arma@@3Ugmm_seed_random_subset@1@B 000000018001ab24     nCRP-Gibbs-Sampler.obj
 0003:00000b28       ?random_spread@arma@@3Ugmm_seed_random_spread@1@B 000000018001ab28     nCRP-Gibbs-Sampler.obj
 0004:00000000       $pdata$??__E?nan@?$Datum@N@arma@@2NB@@YAXXZ 000000018001b000     GibbsSampler.obj
 0004:0000000c       $pdata$??0exception@std@@QEAA@QEBD@Z 000000018001b00c     Gaussian.obj
 0004:00000018       $pdata$??0exception@std@@QEAA@AEBV01@@Z 000000018001b018     Gaussian.obj
 0004:00000024       $pdata$??_Gexception@std@@UEAAPEAXI@Z 000000018001b024     Gaussian.obj
 0004:00000030       $pdata$??0bad_alloc@std@@QEAA@XZ 000000018001b030     Gaussian.obj
 0004:0000003c       $pdata$??_Gbad_cast@std@@UEAAPEAXI@Z 000000018001b03c     GibbsSampler.obj
 0004:0000003c       $pdata$??_Gbad_alloc@std@@UEAAPEAXI@Z 000000018001b03c     Gaussian.obj
 0004:0000003c       $pdata$??_Gruntime_error@std@@UEAAPEAXI@Z 000000018001b03c     Gaussian.obj
 0004:00000048       $pdata$?copy@?$char_traits@D@std@@SAPEADQEADQEBD_K@Z 000000018001b048     Gaussian.obj
 0004:00000054       $pdata$?not_eof@?$char_traits@D@std@@SAHAEBH@Z 000000018001b054     Gaussian.obj
 0004:00000060       $pdata$?_Allocate@std@@YAPEAX_K0_N@Z 000000018001b060     Gaussian.obj
 0004:0000006c       $pdata$?_Deallocate@std@@YAXPEAX_K1@Z 000000018001b06c     Gaussian.obj
 0004:00000078       $pdata$??0runtime_error@std@@QEAA@AEBV?$basic_string@DU?$char_traits@D@std@@V?$allocator@D@2@@1@@Z 000000018001b078     Gaussian.obj
 0004:00000084       $pdata$??0runtime_error@std@@QEAA@AEBV01@@Z 000000018001b084     Gaussian.obj
 0004:00000090       $pdata$??0opts_none@solve_opts@arma@@QEAA@XZ 000000018001b090     Gaussian.obj
 0004:0000009c       $pdata$??0opts_fast@solve_opts@arma@@QEAA@XZ 000000018001b09c     Gaussian.obj
 0004:0000009c       $pdata$??0gmm_seed_keep_existing@arma@@QEAA@XZ 000000018001b09c     Gaussian.obj
 0004:0000009c       $pdata$??0gmm_dist_eucl@arma@@QEAA@XZ 000000018001b09c     Gaussian.obj
 0004:000000a8       $pdata$??0opts_equilibrate@solve_opts@arma@@QEAA@XZ 000000018001b0a8     Gaussian.obj
 0004:000000a8       $pdata$??0gmm_seed_static_subset@arma@@QEAA@XZ 000000018001b0a8     Gaussian.obj
 0004:000000a8       $pdata$??0gmm_dist_maha@arma@@QEAA@XZ 000000018001b0a8     Gaussian.obj
 0004:000000b4       $pdata$??0gmm_seed_random_subset@arma@@QEAA@XZ 000000018001b0b4     Gaussian.obj
 0004:000000b4       $pdata$??0opts_no_approx@solve_opts@arma@@QEAA@XZ 000000018001b0b4     Gaussian.obj
 0004:000000c0       $pdata$??0opts_triu@solve_opts@arma@@QEAA@XZ 000000018001b0c0     Gaussian.obj
 0004:000000cc       $pdata$??0opts_tril@solve_opts@arma@@QEAA@XZ 000000018001b0cc     Gaussian.obj
 0004:000000d8       $pdata$??0gmm_seed_static_spread@arma@@QEAA@XZ 000000018001b0d8     Gaussian.obj
 0004:000000d8       $pdata$??0gmm_dist_prob@arma@@QEAA@XZ 000000018001b0d8     Gaussian.obj
 0004:000000e4       $pdata$??0gmm_seed_random_spread@arma@@QEAA@XZ 000000018001b0e4     Gaussian.obj
 0004:000000f0       $pdata$??0arma_ostream_state@arma@@QEAA@AEBV?$basic_ostream@DU?$char_traits@D@std@@@std@@@Z 000000018001b0f0     Gaussian.obj
 0004:000000fc       $pdata$?restore@arma_ostream_state@arma@@QEBAXAEAV?$basic_ostream@DU?$char_traits@D@std@@@std@@@Z 000000018001b0fc     Gaussian.obj
 0004:00000108       $pdata$?cholupdate@@YA?AV?$Mat@N@arma@@V12@V?$Col@N@2@@Z 000000018001b108     Gaussian.obj
 0004:00000114       $pdata$?choldowndate@@YA?AV?$Mat@N@arma@@V12@V?$Col@N@2@@Z 000000018001b114     Gaussian.obj
 0004:00000120       $pdata$?ZZ@@YANNNNNV?$Mat@N@arma@@V?$Col@N@2@@Z 000000018001b120     Gaussian.obj
 0004:0000012c       $pdata$??0Gaussian@@QEAA@XZ 000000018001b12c     Gaussian.obj
 0004:00000138       $pdata$??1Gaussian@@QEAA@XZ 000000018001b138     Gaussian.obj
 0004:00000144       $pdata$?init@Gaussian@@QEAAXNNV?$Mat@N@arma@@NV?$Col@N@3@@Z 000000018001b144     Gaussian.obj
 0004:00000150       $pdata$?getMu@Gaussian@@QEAA?AV?$Col@N@arma@@XZ 000000018001b150     Gaussian.obj
 0004:0000015c       $pdata$?getSigma@Gaussian@@QEAA?AV?$Mat@N@arma@@XZ 000000018001b15c     Gaussian.obj
 0004:00000168       $pdata$?additem@Gaussian@@QEAAXV?$Col@N@arma@@@Z 000000018001b168     Gaussian.obj
 0004:00000174       $pdata$?delitem@Gaussian@@QEAAXV?$Col@N@arma@@@Z 000000018001b174     Gaussian.obj
 0004:00000180       $pdata$?logpredictive@Gaussian@@QEAANV?$Col@N@arma@@@Z 000000018001b180     Gaussian.obj
 0004:0000018c       $pdata$??_D?$basic_ostringstream@DU?$char_traits@D@std@@V?$allocator@D@2@@std@@QEAAXXZ 000000018001b18c     Gaussian.obj
 0004:00000198       $pdata$?size@?$basic_string@DU?$char_traits@D@std@@V?$allocator@D@2@@std@@QEBA_KXZ 000000018001b198     Gaussian.obj
 0004:000001a4       $pdata$??0?$basic_string@DU?$char_traits@D@std@@V?$allocator@D@2@@std@@QEAA@$$QEAV01@@Z 000000018001b1a4     Gaussian.obj
 0004:000001b0       $pdata$??0?$basic_string@DU?$char_traits@D@std@@V?$allocator@D@2@@std@@QEAA@QEBD@Z 000000018001b1b0     Gaussian.obj
 0004:000001bc       $pdata$??0?$basic_string@DU?$char_traits@D@std@@V?$allocator@D@2@@std@@QEAA@QEBD_K@Z 000000018001b1bc     Gaussian.obj
 0004:000001c8       $pdata$??0?$basic_string@DU?$char_traits@D@std@@V?$allocator@D@2@@std@@QEAA@XZ 000000018001b1c8     Gaussian.obj
 0004:000001d4       $pdata$?str@?$basic_ostringstream@DU?$char_traits@D@std@@V?$allocator@D@2@@std@@QEBA?AV?$basic_string@DU?$char_traits@D@std@@V?$allocator@D@2@@2@XZ 000000018001b1d4     Gaussian.obj
 0004:000001e0       $pdata$??1?$basic_ostringstream@DU?$char_traits@D@std@@V?$allocator@D@2@@std@@UEAA@XZ 000000018001b1e0     Gaussian.obj
 0004:000001ec       $pdata$??0?$basic_ostringstream@DU?$char_traits@D@std@@V?$allocator@D@2@@std@@QEAA@H@Z 000000018001b1ec     Gaussian.obj
 0004:000001f8       $pdata$?seekpos@?$basic_stringbuf@DU?$char_traits@D@std@@V?$allocator@D@2@@std@@MEAA?AV?$fpos@U_Mbstatet@@@2@V32@H@Z 000000018001b1f8     Gaussian.obj
 0004:00000204       $pdata$?seekoff@?$basic_stringbuf@DU?$char_traits@D@std@@V?$allocator@D@2@@std@@MEAA?AV?$fpos@U_Mbstatet@@@2@_JHH@Z 000000018001b204     Gaussian.obj
 0004:00000210       $pdata$?underflow@?$basic_stringbuf@DU?$char_traits@D@std@@V?$allocator@D@2@@std@@MEAAHXZ 000000018001b210     Gaussian.obj
 0004:0000021c       $pdata$0$?underflow@?$basic_stringbuf@DU?$char_traits@D@std@@V?$allocator@D@2@@std@@MEAAHXZ 000000018001b21c     Gaussian.obj
 0004:00000228       $pdata$2$?underflow@?$basic_stringbuf@DU?$char_traits@D@std@@V?$allocator@D@2@@std@@MEAAHXZ 000000018001b228     Gaussian.obj
 0004:00000234       $pdata$?pbackfail@?$basic_stringbuf@DU?$char_traits@D@std@@V?$allocator@D@2@@std@@MEAAHH@Z 000000018001b234     Gaussian.obj
 0004:00000240       $pdata$?overflow@?$basic_stringbuf@DU?$char_traits@D@std@@V?$allocator@D@2@@std@@MEAAHH@Z 000000018001b240     Gaussian.obj
 0004:0000024c       $pdata$0$?overflow@?$basic_stringbuf@DU?$char_traits@D@std@@V?$allocator@D@2@@std@@MEAAHH@Z 000000018001b24c     Gaussian.obj
 0004:00000258       $pdata$3$?overflow@?$basic_stringbuf@DU?$char_traits@D@std@@V?$allocator@D@2@@std@@MEAAHH@Z 000000018001b258     Gaussian.obj
 0004:00000264       $pdata$6$?overflow@?$basic_stringbuf@DU?$char_traits@D@std@@V?$allocator@D@2@@std@@MEAAHH@Z 000000018001b264     Gaussian.obj
 0004:00000270       $pdata$8$?overflow@?$basic_stringbuf@DU?$char_traits@D@std@@V?$allocator@D@2@@std@@MEAAHH@Z 000000018001b270     Gaussian.obj
 0004:0000027c       $pdata$9$?overflow@?$basic_stringbuf@DU?$char_traits@D@std@@V?$allocator@D@2@@std@@MEAAHH@Z 000000018001b27c     Gaussian.obj
 0004:00000288       $pdata$10$?overflow@?$basic_stringbuf@DU?$char_traits@D@std@@V?$allocator@D@2@@std@@MEAAHH@Z 000000018001b288     Gaussian.obj
 0004:00000294       $pdata$11$?overflow@?$basic_stringbuf@DU?$char_traits@D@std@@V?$allocator@D@2@@std@@MEAAHH@Z 000000018001b294     Gaussian.obj
 0004:000002a0       $pdata$12$?overflow@?$basic_stringbuf@DU?$char_traits@D@std@@V?$allocator@D@2@@std@@MEAAHH@Z 000000018001b2a0     Gaussian.obj
 0004:000002ac       $pdata$??1?$basic_stringbuf@DU?$char_traits@D@std@@V?$allocator@D@2@@std@@UEAA@XZ 000000018001b2ac     Gaussian.obj
 0004:000002b8       $pdata$??_G?$basic_ostringstream@DU?$char_traits@D@std@@V?$allocator@D@2@@std@@UEAAPEAXI@Z 000000018001b2b8     Gaussian.obj
 0004:000002c4       $pdata$??_G?$basic_stringbuf@DU?$char_traits@D@std@@V?$allocator@D@2@@std@@UEAAPEAXI@Z 000000018001b2c4     Gaussian.obj
 0004:000002d0       $pdata$??1sentry@?$basic_ostream@DU?$char_traits@D@std@@@std@@QEAA@XZ 000000018001b2d0     Gaussian.obj
 0004:000002dc       $pdata$??0sentry@?$basic_ostream@DU?$char_traits@D@std@@@std@@QEAA@AEAV12@@Z 000000018001b2dc     Gaussian.obj
 0004:000002e8       $pdata$?_Mysize@?$_String_alloc@U?$_String_base_types@DV?$allocator@D@std@@@std@@@std@@QEAAAEA_KXZ 000000018001b2e8     Gaussian.obj
 0004:000002e8       $pdata$?_Mysize@?$_String_alloc@U?$_String_base_types@DV?$allocator@D@std@@@std@@@std@@QEBAAEB_KXZ 000000018001b2e8     Gaussian.obj
 0004:000002f4       $pdata$??0?$_String_alloc@U?$_String_base_types@DV?$allocator@D@std@@@std@@@std@@QEAA@XZ 000000018001b2f4     Gaussian.obj
 0004:000002f4       $pdata$??$?0U?$_Wrap_alloc@V?$allocator@D@std@@@std@@X@?$_String_alloc@U?$_String_base_types@DV?$allocator@D@std@@@std@@@std@@QEAA@$$QEAU?$_Wrap_alloc@V?$allocator@D@std@@@1@@Z 000000018001b2f4     Gaussian.obj
 0004:00000300       $pdata$?_Myptr@?$_String_alloc@U?$_String_base_types@DV?$allocator@D@std@@@std@@@std@@QEBAPEBDXZ 000000018001b300     Gaussian.obj
 0004:00000300       $pdata$?_Myptr@?$_String_alloc@U?$_String_base_types@DV?$allocator@D@std@@@std@@@std@@QEAAPEADXZ 000000018001b300     Gaussian.obj
 0004:0000030c       $pdata$?_Tidy_deallocate@?$basic_string@DU?$char_traits@D@std@@V?$allocator@D@2@@std@@QEAAXXZ 000000018001b30c     Gaussian.obj
 0004:00000318       $pdata$?_Tidy_init@?$basic_string@DU?$char_traits@D@std@@V?$allocator@D@2@@std@@QEAAXXZ 000000018001b318     Gaussian.obj
 0004:00000324       $pdata$?_Eos@?$basic_string@DU?$char_traits@D@std@@V?$allocator@D@2@@std@@QEAAX_K@Z 000000018001b324     Gaussian.obj
 0004:00000330       $pdata$?erase@?$basic_string@DU?$char_traits@D@std@@V?$allocator@D@2@@std@@QEAAAEAV12@_K0@Z 000000018001b330     Gaussian.obj
 0004:0000033c       $pdata$?assign@?$basic_string@DU?$char_traits@D@std@@V?$allocator@D@2@@std@@QEAAAEAV12@QEBD@Z 000000018001b33c     Gaussian.obj
 0004:00000348       $pdata$?assign@?$basic_string@DU?$char_traits@D@std@@V?$allocator@D@2@@std@@QEAAAEAV12@QEBD_K@Z 000000018001b348     Gaussian.obj
 0004:00000354       $pdata$?_Assign_rv_contents_with_alloc_always_equal@?$basic_string@DU?$char_traits@D@std@@V?$allocator@D@2@@std@@QEAAX$$QEAV12@U?$integral_constant@_N$00@2@@Z 000000018001b354     Gaussian.obj
 0004:00000360       $pdata$?_Tidy@?$basic_stringbuf@DU?$char_traits@D@std@@V?$allocator@D@2@@std@@IEAAXXZ 000000018001b360     Gaussian.obj
 0004:0000036c       $pdata$0$?_Tidy@?$basic_stringbuf@DU?$char_traits@D@std@@V?$allocator@D@2@@std@@IEAAXXZ 000000018001b36c     Gaussian.obj
 0004:00000378       $pdata$1$?_Tidy@?$basic_stringbuf@DU?$char_traits@D@std@@V?$allocator@D@2@@std@@IEAAXXZ 000000018001b378     Gaussian.obj
 0004:00000384       $pdata$?str@?$basic_stringbuf@DU?$char_traits@D@std@@V?$allocator@D@2@@std@@QEBA?AV?$basic_string@DU?$char_traits@D@std@@V?$allocator@D@2@@2@XZ 000000018001b384     Gaussian.obj
 0004:00000390       $pdata$0$?str@?$basic_stringbuf@DU?$char_traits@D@std@@V?$allocator@D@2@@std@@QEBA?AV?$basic_string@DU?$char_traits@D@std@@V?$allocator@D@2@@2@XZ 000000018001b390     Gaussian.obj
 0004:0000039c       $pdata$1$?str@?$basic_stringbuf@DU?$char_traits@D@std@@V?$allocator@D@2@@std@@QEBA?AV?$basic_string@DU?$char_traits@D@std@@V?$allocator@D@2@@2@XZ 000000018001b39c     Gaussian.obj
 0004:000003a8       $pdata$??0?$basic_stringbuf@DU?$char_traits@D@std@@V?$allocator@D@2@@std@@QEAA@H@Z 000000018001b3a8     Gaussian.obj
 0004:000003b4       $pdata$??1_Sentry_base@?$basic_ostream@DU?$char_traits@D@std@@@std@@QEAA@XZ 000000018001b3b4     Gaussian.obj
 0004:000003c0       $pdata$??0_Sentry_base@?$basic_ostream@DU?$char_traits@D@std@@@std@@QEAA@AEAV12@@Z 000000018001b3c0     Gaussian.obj
 0004:000003cc       $pdata$?_Myptr@?$_String_val@U?$_Simple_types@D@std@@@std@@QEBAPEBDXZ 000000018001b3cc     Gaussian.obj
 0004:000003cc       $pdata$?_Myptr@?$_String_val@U?$_Simple_types@D@std@@@std@@QEAAPEADXZ 000000018001b3cc     Gaussian.obj
 0004:000003d8       $pdata$?_Check_offset@?$basic_string@DU?$char_traits@D@std@@V?$allocator@D@2@@std@@QEBAX_K@Z 000000018001b3d8     Gaussian.obj
 0004:000003e4       $pdata$?_Xlen@?$basic_string@DU?$char_traits@D@std@@V?$allocator@D@2@@std@@SAXXZ 000000018001b3e4     Gaussian.obj
 0004:000003f0       $pdata$?_Inside@?$basic_string@DU?$char_traits@D@std@@V?$allocator@D@2@@std@@QEBA_NQEBD@Z 000000018001b3f0     Gaussian.obj
 0004:000003fc       $pdata$?_Grow@?$basic_string@DU?$char_traits@D@std@@V?$allocator@D@2@@std@@QEAA_N_K@Z 000000018001b3fc     Gaussian.obj
 0004:00000408       $pdata$?_Clamp_suffix_size@?$basic_string@DU?$char_traits@D@std@@V?$allocator@D@2@@std@@QEBA_K_K0@Z 000000018001b408     Gaussian.obj
 0004:00000414       $pdata$?assign@?$basic_string@DU?$char_traits@D@std@@V?$allocator@D@2@@std@@QEAAAEAV12@AEBV12@_K_K@Z 000000018001b414     Gaussian.obj
 0004:00000420       $pdata$?_Myres@?$_String_alloc@U?$_String_base_types@DV?$allocator@D@std@@@std@@@std@@QEAAAEA_KXZ 000000018001b420     Gaussian.obj
 0004:0000042c       $pdata$?_Xran@?$basic_string@DU?$char_traits@D@std@@V?$allocator@D@2@@std@@SAXXZ 000000018001b42c     Gaussian.obj
 0004:00000438       $pdata$?_Copy@?$basic_string@DU?$char_traits@D@std@@V?$allocator@D@2@@std@@QEAAX_K@Z 000000018001b438     Gaussian.obj
 0004:00000444       $pdata$?erase@?$basic_string@DU?$char_traits@D@std@@V?$allocator@D@2@@std@@QEAAAEAV12@_K@Z 000000018001b444     Gaussian.obj
 0004:00000450       $pdata$?max_size@?$basic_string@DU?$char_traits@D@std@@V?$allocator@D@2@@std@@QEBA_KXZ 000000018001b450     Gaussian.obj
 0004:0000045c       $pdata$??1?$Mat@N@arma@@QEAA@XZ 000000018001b45c     Gaussian.obj
 0004:0000045c       $pdata$??1?$Mat@I@arma@@QEAA@XZ 000000018001b45c     GibbsSampler.obj
 0004:00000468       $pdata$??0?$Mat@N@arma@@QEAA@AEBV01@@Z 000000018001b468     Gaussian.obj
 0004:00000474       $pdata$??4?$Mat@N@arma@@QEAAAEBV01@AEBV01@@Z 000000018001b474     Gaussian.obj
 0004:00000480       $pdata$?end@?$Mat@N@arma@@QEAAPEANXZ 000000018001b480     Gaussian.obj
 0004:0000048c       $pdata$??0?$Col@N@arma@@QEAA@AEBV01@@Z 000000018001b48c     Gaussian.obj
 0004:00000498       $pdata$??0?$Col@N@arma@@QEAA@XZ 000000018001b498     Gaussian.obj
 0004:000004a4       $pdata$?t@?$Col@N@arma@@QEBA?BV?$Op@V?$Col@N@arma@@Vop_htrans@2@@2@XZ 000000018001b4a4     Gaussian.obj
 0004:000004b0       $pdata$??$?6U?$char_traits@D@std@@@std@@YAAEAV?$basic_ostream@DU?$char_traits@D@std@@@0@AEAV10@PEBD@Z 000000018001b4b0     Gaussian.obj
 0004:000004bc       $pdata$??$?6U?$char_traits@D@std@@@std@@YAAEAV?$basic_ostream@DU?$char_traits@D@std@@@0@AEAV10@D@Z 000000018001b4bc     Gaussian.obj
 0004:000004c8       $pdata$?t@?$Base_trans_default@V?$Mat@N@arma@@@arma@@QEBA?BV?$Op@V?$Mat@N@arma@@Vop_htrans@2@@2@XZ 000000018001b4c8     Gaussian.obj
 0004:000004d4       $pdata$??1wall_clock@arma@@QEAA@XZ 000000018001b4d4     GibbsSampler.obj
 0004:000004d4       $pdata$??1?$Glue@V?$eOp@V?$Col@N@arma@@Veop_scalar_times@2@@arma@@V?$Op@V?$Col@N@arma@@Vop_htrans@2@@2@Vglue_times@2@@arma@@QEAA@XZ 000000018001b4d4     Gaussian.obj
 0004:000004d4       $pdata$??1?$eOp@V?$eOp@V?$Row@N@arma@@Veop_scalar_minus_post@2@@arma@@Veop_exp@2@@arma@@QEAA@XZ 000000018001b4d4     GibbsSampler.obj
 0004:000004d4       $pdata$??1?$eOp@V?$eOp@V?$Col@N@arma@@Veop_scalar_minus_pre@2@@arma@@Veop_scalar_div_post@2@@arma@@QEAA@XZ 000000018001b4d4     Gaussian.obj
 0004:000004d4       $pdata$??1?$Op@V?$Row@N@arma@@Vop_cumsum_default@2@@arma@@QEAA@XZ 000000018001b4d4     GibbsSampler.obj
 0004:000004d4       $pdata$??1?$eGlue@V?$Col@N@arma@@V12@Veglue_plus@2@@arma@@QEAA@XZ 000000018001b4d4     Gaussian.obj
 0004:000004d4       $pdata$??1?$Op@V?$Mat@N@arma@@Vop_htrans@2@@arma@@QEAA@XZ 000000018001b4d4     Gaussian.obj
 0004:000004d4       $pdata$??1?$Gen@V?$Col@N@arma@@Vgen_randu@2@@arma@@QEAA@XZ 000000018001b4d4     GibbsSampler.obj
 0004:000004d4       $pdata$??1?$eOp@V?$Row@N@arma@@Veop_scalar_div_post@2@@arma@@QEAA@XZ 000000018001b4d4     GibbsSampler.obj
 0004:000004d4       $pdata$??1?$diagview@N@arma@@QEAA@XZ 000000018001b4d4     Gaussian.obj
 0004:000004d4       $pdata$??1?$eOp@V?$Col@N@arma@@Veop_scalar_div_post@2@@arma@@QEAA@XZ 000000018001b4d4     Gaussian.obj
 0004:000004d4       $pdata$??1?$Op@V?$Mat@N@arma@@Vop_diagvec@2@@arma@@QEAA@XZ 000000018001b4d4     Gaussian.obj
 0004:000004d4       $pdata$??1?$mtOp@IV?$Op@V?$Row@N@arma@@Vop_cumsum_default@2@@arma@@Vop_rel_gt_pre@2@@arma@@QEAA@XZ 000000018001b4d4     GibbsSampler.obj
 0004:000004d4       $pdata$??1?$eOp@V?$Row@N@arma@@Veop_scalar_minus_post@2@@arma@@QEAA@XZ 000000018001b4d4     GibbsSampler.obj
 0004:000004d4       $pdata$??1?$Op@V?$Col@N@arma@@Vop_htrans@2@@arma@@QEAA@XZ 000000018001b4d4     Gaussian.obj
 0004:000004d4       $pdata$??1?$Glue@V?$Op@V?$Mat@N@arma@@Vop_htrans@2@@arma@@V?$Mat@N@2@Vglue_times@2@@arma@@QEAA@XZ 000000018001b4d4     Gaussian.obj
 0004:000004d4       $pdata$??1?$eOp@V?$Mat@N@arma@@Veop_scalar_times@2@@arma@@QEAA@XZ 000000018001b4d4     Gaussian.obj
 0004:000004d4       $pdata$??1?$eOp@V?$Col@N@arma@@Veop_scalar_minus_pre@2@@arma@@QEAA@XZ 000000018001b4d4     Gaussian.obj
 0004:000004d4       $pdata$??1?$subview@N@arma@@QEAA@XZ 000000018001b4d4     GibbsSampler.obj
 0004:000004d4       $pdata$??1?$Op@V?$eGlue@V?$eOp@V?$Mat@N@arma@@Veop_scalar_times@2@@arma@@V?$Glue@V?$eOp@V?$Col@N@arma@@Veop_scalar_times@2@@arma@@V?$Op@V?$Col@N@arma@@Vop_htrans@2@@2@Vglue_times@2@@2@Veglue_plus@2@@arma@@Vop_chol@2@@arma@@QEAA@XZ 000000018001b4d4     Gaussian.obj
 0004:000004d4       $pdata$??1?$eOp@V?$Col@N@arma@@Veop_scalar_times@2@@arma@@QEAA@XZ 000000018001b4d4     Gaussian.obj
 0004:000004d4       $pdata$??1?$eGlue@V?$Col@N@arma@@V12@Veglue_minus@2@@arma@@QEAA@XZ 000000018001b4d4     Gaussian.obj
 0004:000004e0       $pdata$??$arma_stream_err2@D@arma@@YAAEAV?$basic_ostream@DU?$char_traits@D@std@@@std@@PEAV12@@Z 000000018001b4e0     Gaussian.obj
 0004:000004ec       $pdata$??$endl@DU?$char_traits@D@std@@@std@@YAAEAV?$basic_ostream@DU?$char_traits@D@std@@@0@AEAV10@@Z 000000018001b4ec     Gaussian.obj
 0004:000004f8       $pdata$??$regspace@V?$Col@N@arma@@@arma@@YA?AV?$Col@N@0@NN@Z 000000018001b4f8     Gaussian.obj
 0004:00000504       $pdata$??$?DV?$Col@N@arma@@@arma@@YA?BV?$eOp@V?$Col@N@arma@@Veop_scalar_times@2@@0@NAEBV?$Col@N@0@@Z 000000018001b504     Gaussian.obj
 0004:00000504       $pdata$??$?GV?$Col@N@arma@@@arma@@YA?BV?$eOp@V?$Col@N@arma@@Veop_scalar_minus_pre@2@@0@NAEBV?$Col@N@0@@Z 000000018001b504     Gaussian.obj
 0004:00000510       $pdata$??$?DV?$Mat@N@arma@@@arma@@YA?BV?$eOp@V?$Mat@N@arma@@Veop_scalar_times@2@@0@AEBV?$Mat@N@0@N@Z 000000018001b510     Gaussian.obj
 0004:00000510       $pdata$??$?GV?$Row@N@arma@@@arma@@YA?BV?$eOp@V?$Row@N@arma@@Veop_scalar_minus_post@2@@0@AEBV?$Row@N@0@N@Z 000000018001b510     GibbsSampler.obj
 0004:00000510       $pdata$??$?KV?$Row@N@arma@@@arma@@YA?BV?$eOp@V?$Row@N@arma@@Veop_scalar_div_post@2@@0@AEBV?$Row@N@0@N@Z 000000018001b510     GibbsSampler.obj
 0004:00000510       $pdata$??$?KV?$eOp@V?$Col@N@arma@@Veop_scalar_minus_pre@2@@arma@@@arma@@YA?BV?$eOp@V?$eOp@V?$Col@N@arma@@Veop_scalar_minus_pre@2@@arma@@Veop_scalar_div_post@2@@0@AEBV?$eOp@V?$Col@N@arma@@Veop_scalar_minus_pre@2@@0@N@Z 000000018001b510     Gaussian.obj
 0004:00000510       $pdata$??$?KV?$Col@N@arma@@@arma@@YA?BV?$eOp@V?$Col@N@arma@@Veop_scalar_div_post@2@@0@AEBV?$Col@N@0@N@Z 000000018001b510     Gaussian.obj
 0004:0000051c       $pdata$??$?0V?$eOp@V?$eOp@V?$Col@N@arma@@Veop_scalar_minus_pre@2@@arma@@Veop_scalar_div_post@2@@arma@@@?$Col@N@arma@@QEAA@AEBU?$Base@NV?$eOp@V?$eOp@V?$Col@N@arma@@Veop_scalar_minus_pre@2@@arma@@Veop_scalar_div_post@2@@arma@@@1@@Z 000000018001b51c     Gaussian.obj
 0004:00000528       $pdata$??$?0V?$eOp@V?$Col@N@arma@@Veop_scalar_div_post@2@@arma@@@?$Col@N@arma@@QEAA@AEBU?$Base@NV?$eOp@V?$Col@N@arma@@Veop_scalar_div_post@2@@arma@@@1@@Z 000000018001b528     Gaussian.obj
 0004:00000534       $pdata$??$diagvec@V?$Mat@N@arma@@@arma@@YA?BV?$Op@V?$Mat@N@arma@@Vop_diagvec@2@@0@AEBU?$Base@NV?$Mat@N@arma@@@0@H@Z 000000018001b534     Gaussian.obj
 0004:00000540       $pdata$??1?$eOp@V?$Op@V?$Mat@N@arma@@Vop_diagvec@2@@arma@@Veop_log@2@@arma@@QEAA@XZ 000000018001b540     Gaussian.obj
 0004:0000054c       $pdata$??$log@V?$Op@V?$Mat@N@arma@@Vop_diagvec@2@@arma@@@arma@@YA?BV?$eOp@V?$Op@V?$Mat@N@arma@@Vop_diagvec@2@@arma@@Veop_log@2@@0@AEBV?$Op@V?$Mat@N@arma@@Vop_diagvec@2@@0@@Z 000000018001b54c     Gaussian.obj
 0004:00000558       $pdata$??$?DV?$Op@V?$Mat@N@arma@@Vop_htrans@2@@arma@@V?$Mat@N@1@@arma@@YA?BV?$Glue@V?$Op@V?$Mat@N@arma@@Vop_htrans@2@@arma@@V?$Mat@N@2@Vglue_times@2@@0@AEBV?$Op@V?$Mat@N@arma@@Vop_htrans@2@@0@AEBV?$Mat@N@0@@Z 000000018001b558     Gaussian.obj
 0004:00000558       $pdata$??$?DV?$eOp@V?$Col@N@arma@@Veop_scalar_times@2@@arma@@V?$Op@V?$Col@N@arma@@Vop_htrans@2@@1@@arma@@YA?BV?$Glue@V?$eOp@V?$Col@N@arma@@Veop_scalar_times@2@@arma@@V?$Op@V?$Col@N@arma@@Vop_htrans@2@@2@Vglue_times@2@@0@AEBV?$eOp@V?$Col@N@arma@@Veop_scalar_times@2@@0@AEBV?$Op@V?$Col@N@arma@@Vop_htrans@2@@0@@Z 000000018001b558     Gaussian.obj
 0004:00000564       $pdata$??1?$eGlue@V?$eOp@V?$Mat@N@arma@@Veop_scalar_times@2@@arma@@V?$Glue@V?$eOp@V?$Col@N@arma@@Veop_scalar_times@2@@arma@@V?$Op@V?$Col@N@arma@@Vop_htrans@2@@2@Vglue_times@2@@2@Veglue_plus@2@@arma@@QEAA@XZ 000000018001b564     Gaussian.obj
 0004:00000570       $pdata$??$?HV?$eOp@V?$Mat@N@arma@@Veop_scalar_times@2@@arma@@V?$Glue@V?$eOp@V?$Col@N@arma@@Veop_scalar_times@2@@arma@@V?$Op@V?$Col@N@arma@@Vop_htrans@2@@2@Vglue_times@2@@1@@arma@@YA?BV?$eGlue@V?$eOp@V?$Mat@N@arma@@Veop_scalar_times@2@@arma@@V?$Glue@V?$eOp@V?$Col@N@arma@@Veop_scalar_times@2@@arma@@V?$Op@V?$Col@N@arma@@Vop_htrans@2@@2@Vglue_times@2@@2@Veglue_plus@2@@0@AEBV?$eOp@V?$Mat@N@arma@@Veop_scalar_times@2@@0@AEBV?$Glue@V?$eOp@V?$Col@N@arma@@Veop_scalar_times@2@@arma@@V?$Op@V?$Col@N@arma@@Vop_htrans@2@@2@Vglue_times@2@@0@@Z 000000018001b570     Gaussian.obj
 0004:0000057c       $pdata$??$chol@V?$eGlue@V?$eOp@V?$Mat@N@arma@@Veop_scalar_times@2@@arma@@V?$Glue@V?$eOp@V?$Col@N@arma@@Veop_scalar_times@2@@arma@@V?$Op@V?$Col@N@arma@@Vop_htrans@2@@2@Vglue_times@2@@2@Veglue_plus@2@@arma@@@arma@@YA?BV?$Op@V?$eGlue@V?$eOp@V?$Mat@N@arma@@Veop_scalar_times@2@@arma@@V?$Glue@V?$eOp@V?$Col@N@arma@@Veop_scalar_times@2@@arma@@V?$Op@V?$Col@N@arma@@Vop_htrans@2@@2@Vglue_times@2@@2@Veglue_plus@2@@arma@@Vop_chol@2@@0@AEBU?$Base@NV?$eGlue@V?$eOp@V?$Mat@N@arma@@Veop_scalar_times@2@@arma@@V?$Glue@V?$eOp@V?$Col@N@arma@@Veop_scalar_times@2@@arma@@V?$Op@V?$Col@N@arma@@Vop_htrans@2@@2@Vglue_times@2@@2@Veglue_plus@2@@arma@@@0@PEBD@Z 000000018001b57c     Gaussian.obj
 0004:00000588       $pdata$??$?4V?$eGlue@V?$eOp@V?$Mat@N@arma@@Veop_scalar_times@2@@arma@@V?$Glue@V?$eOp@V?$Col@N@arma@@Veop_scalar_times@2@@arma@@V?$Op@V?$Col@N@arma@@Vop_htrans@2@@2@Vglue_times@2@@2@Veglue_plus@2@@arma@@Vop_chol@1@@?$Mat@N@arma@@QEAAAEBV01@AEBV?$Op@V?$eGlue@V?$eOp@V?$Mat@N@arma@@Veop_scalar_times@2@@arma@@V?$Glue@V?$eOp@V?$Col@N@arma@@Veop_scalar_times@2@@arma@@V?$Op@V?$Col@N@arma@@Vop_htrans@2@@2@Vglue_times@2@@2@Veglue_plus@2@@arma@@Vop_chol@2@@1@@Z 000000018001b588     Gaussian.obj
 0004:00000594       $pdata$??$?4V?$eOp@V?$Col@N@arma@@Veop_scalar_times@2@@arma@@@?$Col@N@arma@@QEAAAEBV01@AEBU?$Base@NV?$eOp@V?$Col@N@arma@@Veop_scalar_times@2@@arma@@@1@@Z 000000018001b594     Gaussian.obj
 0004:000005a0       $pdata$??1?$eOp@V?$Glue@V?$Op@V?$Mat@N@arma@@Vop_htrans@2@@arma@@V?$Mat@N@2@Vglue_times@2@@arma@@Veop_scalar_div_post@2@@arma@@QEAA@XZ 000000018001b5a0     Gaussian.obj
 0004:000005ac       $pdata$??$?KV?$Glue@V?$Op@V?$Mat@N@arma@@Vop_htrans@2@@arma@@V?$Mat@N@2@Vglue_times@2@@arma@@@arma@@YA?BV?$eOp@V?$Glue@V?$Op@V?$Mat@N@arma@@Vop_htrans@2@@arma@@V?$Mat@N@2@Vglue_times@2@@arma@@Veop_scalar_div_post@2@@0@AEBV?$Glue@V?$Op@V?$Mat@N@arma@@Vop_htrans@2@@arma@@V?$Mat@N@2@Vglue_times@2@@0@N@Z 000000018001b5ac     Gaussian.obj
 0004:000005b8       $pdata$??$?0V?$Glue@V?$Op@V?$Mat@N@arma@@Vop_htrans@2@@arma@@V?$Mat@N@2@Vglue_times@2@@arma@@Veop_scalar_div_post@1@@?$Mat@N@arma@@QEAA@AEBV?$eOp@V?$Glue@V?$Op@V?$Mat@N@arma@@Vop_htrans@2@@arma@@V?$Mat@N@2@Vglue_times@2@@arma@@Veop_scalar_div_post@2@@1@@Z 000000018001b5b8     Gaussian.obj
 0004:000005c4       $pdata$??$?GV?$Col@N@arma@@V01@@arma@@YA?BV?$eGlue@V?$Col@N@arma@@V12@Veglue_minus@2@@0@AEBV?$Col@N@0@0@Z 000000018001b5c4     Gaussian.obj
 0004:000005c4       $pdata$??$?HV?$Col@N@arma@@V01@@arma@@YA?BV?$eGlue@V?$Col@N@arma@@V12@Veglue_plus@2@@0@AEBV?$Col@N@0@0@Z 000000018001b5c4     Gaussian.obj
 0004:000005d0       $pdata$??$?4V?$eGlue@V?$Col@N@arma@@V12@Veglue_plus@2@@arma@@@?$Col@N@arma@@QEAAAEBV01@AEBU?$Base@NV?$eGlue@V?$Col@N@arma@@V12@Veglue_plus@2@@arma@@@1@@Z 000000018001b5d0     Gaussian.obj
 0004:000005dc       $pdata$??$?0V?$eGlue@V?$Col@N@arma@@V12@Veglue_plus@2@@arma@@@?$Col@N@arma@@QEAA@AEBU?$Base@NV?$eGlue@V?$Col@N@arma@@V12@Veglue_plus@2@@arma@@@1@@Z 000000018001b5dc     Gaussian.obj
 0004:000005e8       $pdata$??$?4V?$eGlue@V?$Col@N@arma@@V12@Veglue_minus@2@@arma@@@?$Col@N@arma@@QEAAAEBV01@AEBU?$Base@NV?$eGlue@V?$Col@N@arma@@V12@Veglue_minus@2@@arma@@@1@@Z 000000018001b5e8     Gaussian.obj
 0004:000005f4       $pdata$??$?6NV?$Mat@N@arma@@@arma@@YAAEAV?$basic_ostream@DU?$char_traits@D@std@@@std@@AEAV12@AEBU?$Base@NV?$Mat@N@arma@@@0@@Z 000000018001b5f4     Gaussian.obj
 0004:00000600       $pdata$??$?0$$V@?$_Compressed_pair@U?$_Wrap_alloc@V?$allocator@D@std@@@std@@V?$_String_val@U?$_Simple_types@D@std@@@2@$00@std@@QEAA@U_Zero_then_variadic_args_t@1@@Z 000000018001b600     Gaussian.obj
 0004:00000600       $pdata$??$?0U?$_Wrap_alloc@V?$allocator@D@std@@@std@@$$V@?$_Compressed_pair@U?$_Wrap_alloc@V?$allocator@D@std@@@std@@V?$_String_val@U?$_Simple_types@D@std@@@2@$00@std@@QEAA@U_One_then_variadic_args_t@1@$$QEAU?$_Wrap_alloc@V?$allocator@D@std@@@1@@Z 000000018001b600     Gaussian.obj
 0004:0000060c       $pdata$??$construct@PEADAEAPEAD@?$_Wrap_alloc@V?$allocator@D@std@@@std@@QEAAXPEAPEADAEAPEAD@Z 000000018001b60c     Gaussian.obj
 0004:00000618       $pdata$??0?$Mat@N@arma@@IEAA@AEBUarma_vec_indicator@1@IIG@Z 000000018001b618     Gaussian.obj
 0004:00000624       $pdata$?init_cold@?$Mat@N@arma@@IEAAXXZ 000000018001b624     Gaussian.obj
 0004:00000630       $pdata$?init_warm@?$Mat@N@arma@@IEAAXII@Z 000000018001b630     Gaussian.obj
 0004:0000063c       $pdata$1$?init_warm@?$Mat@N@arma@@IEAAXII@Z 000000018001b63c     Gaussian.obj
 0004:00000648       $pdata$2$?init_warm@?$Mat@N@arma@@IEAAXII@Z 000000018001b648     Gaussian.obj
 0004:00000654       $pdata$??0?$eOp@V?$Row@N@arma@@Veop_scalar_div_post@2@@arma@@QEAA@AEBV?$Row@N@1@N@Z 000000018001b654     GibbsSampler.obj
 0004:00000654       $pdata$??0?$eOp@V?$Mat@N@arma@@Veop_scalar_times@2@@arma@@QEAA@AEBV?$Mat@N@1@N@Z 000000018001b654     Gaussian.obj
 0004:00000654       $pdata$??0?$eOp@V?$Col@N@arma@@Veop_scalar_minus_pre@2@@arma@@QEAA@AEBV?$Col@N@1@N@Z 000000018001b654     Gaussian.obj
 0004:00000654       $pdata$??0?$eOp@V?$Col@N@arma@@Veop_scalar_div_post@2@@arma@@QEAA@AEBV?$Col@N@1@N@Z 000000018001b654     Gaussian.obj
 0004:00000654       $pdata$??0?$eOp@V?$eOp@V?$Col@N@arma@@Veop_scalar_minus_pre@2@@arma@@Veop_scalar_div_post@2@@arma@@QEAA@AEBV?$eOp@V?$Col@N@arma@@Veop_scalar_minus_pre@2@@1@N@Z 000000018001b654     Gaussian.obj
 0004:00000654       $pdata$??0?$eOp@V?$Row@N@arma@@Veop_scalar_minus_post@2@@arma@@QEAA@AEBV?$Row@N@1@N@Z 000000018001b654     GibbsSampler.obj
 0004:00000654       $pdata$??0?$eOp@V?$Col@N@arma@@Veop_scalar_times@2@@arma@@QEAA@AEBV?$Col@N@1@N@Z 000000018001b654     Gaussian.obj
 0004:00000660       $pdata$??0?$eOp@V?$Op@V?$Mat@N@arma@@Vop_diagvec@2@@arma@@Veop_log@2@@arma@@QEAA@AEBV?$Op@V?$Mat@N@arma@@Vop_diagvec@2@@1@@Z 000000018001b660     Gaussian.obj
 0004:0000066c       $pdata$??0?$eGlue@V?$eOp@V?$Mat@N@arma@@Veop_scalar_times@2@@arma@@V?$Glue@V?$eOp@V?$Col@N@arma@@Veop_scalar_times@2@@arma@@V?$Op@V?$Col@N@arma@@Vop_htrans@2@@2@Vglue_times@2@@2@Veglue_plus@2@@arma@@QEAA@AEBV?$eOp@V?$Mat@N@arma@@Veop_scalar_times@2@@1@AEBV?$Glue@V?$eOp@V?$Col@N@arma@@Veop_scalar_times@2@@arma@@V?$Op@V?$Col@N@arma@@Vop_htrans@2@@2@Vglue_times@2@@1@@Z 000000018001b66c     Gaussian.obj
 0004:00000678       $pdata$??0?$eOp@V?$Glue@V?$Op@V?$Mat@N@arma@@Vop_htrans@2@@arma@@V?$Mat@N@2@Vglue_times@2@@arma@@Veop_scalar_div_post@2@@arma@@QEAA@AEBV?$Glue@V?$Op@V?$Mat@N@arma@@Vop_htrans@2@@arma@@V?$Mat@N@2@Vglue_times@2@@1@N@Z 000000018001b678     Gaussian.obj
 0004:00000684       $pdata$??0?$eGlue@V?$Col@N@arma@@V12@Veglue_minus@2@@arma@@QEAA@AEBV?$Col@N@1@0@Z 000000018001b684     Gaussian.obj
 0004:00000684       $pdata$??0?$eGlue@V?$Col@N@arma@@V12@Veglue_plus@2@@arma@@QEAA@AEBV?$Col@N@1@0@Z 000000018001b684     Gaussian.obj
 0004:00000690       $pdata$??$inplace_set@N@arrayops@arma@@SAXPEANNI@Z 000000018001b690     Gaussian.obj
 0004:0000069c       $pdata$??$internal_regspace_default_delta@N@arma@@YAXAEAV?$Mat@N@0@NN@Z 000000018001b69c     Gaussian.obj
 0004:000006a8       $pdata$??$?4V?$eOp@V?$Col@N@arma@@Veop_scalar_minus_pre@2@@arma@@Veop_scalar_div_post@1@@?$Mat@N@arma@@QEAAAEBV01@AEBV?$eOp@V?$eOp@V?$Col@N@arma@@Veop_scalar_minus_pre@2@@arma@@Veop_scalar_div_post@2@@1@@Z 000000018001b6a8     Gaussian.obj
 0004:000006b4       $pdata$??$?4V?$Col@N@arma@@Veop_scalar_div_post@1@@?$Mat@N@arma@@QEAAAEBV01@AEBV?$eOp@V?$Col@N@arma@@Veop_scalar_div_post@2@@1@@Z 000000018001b6b4     Gaussian.obj
 0004:000006c0       $pdata$??$accu@V?$eOp@V?$Op@V?$Mat@N@arma@@Vop_diagvec@2@@arma@@Veop_log@2@@arma@@@arma@@YANAEBV?$eOp@V?$Op@V?$Mat@N@arma@@Vop_diagvec@2@@arma@@Veop_log@2@@0@@Z 000000018001b6c0     Gaussian.obj
 0004:000006cc       $pdata$??$apply@V?$eGlue@V?$eOp@V?$Mat@N@arma@@Veop_scalar_times@2@@arma@@V?$Glue@V?$eOp@V?$Col@N@arma@@Veop_scalar_times@2@@arma@@V?$Op@V?$Col@N@arma@@Vop_htrans@2@@2@Vglue_times@2@@2@Veglue_plus@2@@arma@@@op_chol@arma@@SAXAEAV?$Mat@N@1@AEBV?$Op@V?$eGlue@V?$eOp@V?$Mat@N@arma@@Veop_scalar_times@2@@arma@@V?$Glue@V?$eOp@V?$Col@N@arma@@Veop_scalar_times@2@@arma@@V?$Op@V?$Col@N@arma@@Vop_htrans@2@@2@Vglue_times@2@@2@Veglue_plus@2@@arma@@Vop_chol@2@@1@@Z 000000018001b6cc     Gaussian.obj
 0004:000006d8       $pdata$??$?4V?$Col@N@arma@@Veop_scalar_times@1@@?$Mat@N@arma@@QEAAAEBV01@AEBV?$eOp@V?$Col@N@arma@@Veop_scalar_times@2@@1@@Z 000000018001b6d8     Gaussian.obj
 0004:000006e4       $pdata$??$apply@V?$Mat@N@arma@@V?$Glue@V?$Op@V?$Mat@N@arma@@Vop_htrans@2@@arma@@V?$Mat@N@2@Vglue_times@2@@2@@?$eop_core@Veop_scalar_div_post@arma@@@arma@@SAXAEAV?$Mat@N@1@AEBV?$eOp@V?$Glue@V?$Op@V?$Mat@N@arma@@Vop_htrans@2@@arma@@V?$Mat@N@2@Vglue_times@2@@arma@@Veop_scalar_div_post@2@@1@@Z 000000018001b6e4     Gaussian.obj
 0004:000006f0       $pdata$??$?4V?$Col@N@arma@@V01@Veglue_plus@1@@?$Mat@N@arma@@QEAAAEBV01@AEBV?$eGlue@V?$Col@N@arma@@V12@Veglue_plus@2@@1@@Z 000000018001b6f0     Gaussian.obj
 0004:000006fc       $pdata$??$?4V?$Col@N@arma@@V01@Veglue_minus@1@@?$Mat@N@arma@@QEAAAEBV01@AEBV?$eGlue@V?$Col@N@arma@@V12@Veglue_minus@2@@1@@Z 000000018001b6fc     Gaussian.obj
 0004:00000708       $pdata$??$print@N@arma_ostream@arma@@SAXAEAV?$basic_ostream@DU?$char_traits@D@std@@@std@@AEBV?$Mat@N@1@_N@Z 000000018001b708     Gaussian.obj
 0004:00000714       $pdata$??$construct@PEADAEAPEAD@?$allocator_traits@V?$allocator@D@std@@@std@@SAXAEAV?$allocator@D@1@PEAPEADAEAPEAD@Z 000000018001b714     Gaussian.obj
 0004:00000720       $pdata$??_G?$Mat@N@arma@@QEAAPEAXI@Z 000000018001b720     Gaussian.obj
 0004:0000072c       $pdata$??0?$Proxy@V?$Glue@V?$Op@V?$Mat@N@arma@@Vop_htrans@2@@arma@@V?$Mat@N@2@Vglue_times@2@@arma@@@arma@@QEAA@AEBV?$Glue@V?$Op@V?$Mat@N@arma@@Vop_htrans@2@@arma@@V?$Mat@N@2@Vglue_times@2@@1@@Z 000000018001b72c     Gaussian.obj
 0004:00000738       $pdata$??0?$Proxy@V?$Glue@V?$eOp@V?$Col@N@arma@@Veop_scalar_times@2@@arma@@V?$Op@V?$Col@N@arma@@Vop_htrans@2@@2@Vglue_times@2@@arma@@@arma@@QEAA@AEBV?$Glue@V?$eOp@V?$Col@N@arma@@Veop_scalar_times@2@@arma@@V?$Op@V?$Col@N@arma@@Vop_htrans@2@@2@Vglue_times@2@@1@@Z 000000018001b738     Gaussian.obj
 0004:00000744       $pdata$??0?$Proxy@V?$Op@V?$Mat@N@arma@@Vop_diagvec@2@@arma@@@arma@@QEAA@AEBV?$Op@V?$Mat@N@arma@@Vop_diagvec@2@@1@@Z 000000018001b744     Gaussian.obj
 0004:00000750       $pdata$??0?$Proxy_diagvec_mat@V?$Op@V?$Mat@N@arma@@Vop_diagvec@2@@arma@@@arma@@QEAA@AEBV?$Op@V?$Mat@N@arma@@Vop_diagvec@2@@1@@Z 000000018001b750     Gaussian.obj
 0004:0000075c       $pdata$?diag@?$Mat@N@arma@@QEBA?BV?$diagview@N@2@H@Z 000000018001b75c     Gaussian.obj
 0004:00000768       $pdata$?steal_mem@?$Mat@N@arma@@QEAAXAEAV12@@Z 000000018001b768     Gaussian.obj
 0004:00000774       $pdata$5$?steal_mem@?$Mat@N@arma@@QEAAXAEAV12@@Z 000000018001b774     Gaussian.obj
 0004:00000780       $pdata$6$?steal_mem@?$Mat@N@arma@@QEAAXAEAV12@@Z 000000018001b780     Gaussian.obj
 0004:0000078c       $pdata$7$?steal_mem@?$Mat@N@arma@@QEAAXAEAV12@@Z 000000018001b78c     Gaussian.obj
 0004:00000798       $pdata$??$acquire@N@memory@arma@@SAPEANI@Z 000000018001b798     Gaussian.obj
 0004:000007a4       $pdata$??$arma_check_bad_alloc@$$BY0CH@D@arma@@YAX_NAEAY0CH@$$CBD@Z 000000018001b7a4     Gaussian.obj
 0004:000007b0       $pdata$??$inplace_set_base@N@arrayops@arma@@SAXPEANNI@Z 000000018001b7b0     Gaussian.obj
 0004:000007bc       $pdata$??$apply@V?$Mat@N@arma@@V?$eOp@V?$Col@N@arma@@Veop_scalar_minus_pre@2@@2@@?$eop_core@Veop_scalar_div_post@arma@@@arma@@SAXAEAV?$Mat@N@1@AEBV?$eOp@V?$eOp@V?$Col@N@arma@@Veop_scalar_minus_pre@2@@arma@@Veop_scalar_div_post@2@@1@@Z 000000018001b7bc     Gaussian.obj
 0004:000007c8       $pdata$??$apply@V?$Mat@N@arma@@V?$Col@N@2@@?$eop_core@Veop_scalar_div_post@arma@@@arma@@SAXAEAV?$Mat@N@1@AEBV?$eOp@V?$Col@N@arma@@Veop_scalar_div_post@2@@1@@Z 000000018001b7c8     Gaussian.obj
 0004:000007c8       $pdata$??$apply@V?$Mat@N@arma@@V?$Row@N@2@@?$eop_core@Veop_scalar_div_post@arma@@@arma@@SAXAEAV?$Mat@N@1@AEBV?$eOp@V?$Row@N@arma@@Veop_scalar_div_post@2@@1@@Z 000000018001b7c8     GibbsSampler.obj
 0004:000007d4       $pdata$??$accu_proxy_linear@V?$eOp@V?$Op@V?$Mat@N@arma@@Vop_diagvec@2@@arma@@Veop_log@2@@arma@@@arma@@YANAEBV?$Proxy@V?$eOp@V?$Op@V?$Mat@N@arma@@Vop_diagvec@2@@arma@@Veop_log@2@@arma@@@0@@Z 000000018001b7d4     Gaussian.obj
 0004:000007e0       $pdata$??$chol@NV?$eGlue@V?$eOp@V?$Mat@N@arma@@Veop_scalar_times@2@@arma@@V?$Glue@V?$eOp@V?$Col@N@arma@@Veop_scalar_times@2@@arma@@V?$Op@V?$Col@N@arma@@Vop_htrans@2@@2@Vglue_times@2@@2@Veglue_plus@2@@arma@@@auxlib@arma@@SA_NAEAV?$Mat@N@1@AEBU?$Base@NV?$eGlue@V?$eOp@V?$Mat@N@arma@@Veop_scalar_times@2@@arma@@V?$Glue@V?$eOp@V?$Col@N@arma@@Veop_scalar_times@2@@arma@@V?$Op@V?$Col@N@arma@@Vop_htrans@2@@2@Vglue_times@2@@2@Veglue_plus@2@@arma@@@1@I@Z 000000018001b7e0     Gaussian.obj
 0004:000007ec       $pdata$??$arma_stop_runtime_error@$$BY0BN@D@arma@@YAXAEAY0BN@$$CBD@Z 000000018001b7ec     Gaussian.obj
 0004:000007f8       $pdata$??$apply@V?$Mat@N@arma@@V?$Col@N@2@@?$eop_core@Veop_scalar_times@arma@@@arma@@SAXAEAV?$Mat@N@1@AEBV?$eOp@V?$Col@N@arma@@Veop_scalar_times@2@@1@@Z 000000018001b7f8     Gaussian.obj
 0004:00000804       $pdata$??$apply@V?$Mat@N@arma@@V?$Col@N@2@V32@@?$eglue_core@Veglue_plus@arma@@@arma@@SAXAEAV?$Mat@N@1@AEBV?$eGlue@V?$Col@N@arma@@V12@Veglue_plus@2@@1@@Z 000000018001b804     Gaussian.obj
 0004:00000810       $pdata$??$apply@V?$Mat@N@arma@@V?$Col@N@2@V32@@?$eglue_core@Veglue_minus@arma@@@arma@@SAXAEAV?$Mat@N@1@AEBV?$eGlue@V?$Col@N@arma@@V12@Veglue_minus@2@@1@@Z 000000018001b810     Gaussian.obj
 0004:0000081c       $pdata$??$modify_stream@N@arma_ostream@arma@@SA_JAEAV?$basic_ostream@DU?$char_traits@D@std@@@std@@PEBNI@Z 000000018001b81c     Gaussian.obj
 0004:00000828       $pdata$??$print_elem@N@arma_ostream@arma@@SAXAEAV?$basic_ostream@DU?$char_traits@D@std@@@std@@AEBN_N@Z 000000018001b828     Gaussian.obj
 0004:00000834       $pdata$??$construct@PEADAEAPEAD@?$allocator@D@std@@QEAAXPEAPEADAEAPEAD@Z 000000018001b834     Gaussian.obj
 0004:00000840       $pdata$??$?0V?$Op@V?$Mat@N@arma@@Vop_htrans@2@@arma@@V?$Mat@N@1@Vglue_times@1@@?$Mat@N@arma@@QEAA@AEBV?$Glue@V?$Op@V?$Mat@N@arma@@Vop_htrans@2@@arma@@V?$Mat@N@2@Vglue_times@2@@1@@Z 000000018001b840     Gaussian.obj
 0004:0000084c       $pdata$??$?0V?$eOp@V?$Col@N@arma@@Veop_scalar_times@2@@arma@@V?$Op@V?$Col@N@arma@@Vop_htrans@2@@1@Vglue_times@1@@?$Mat@N@arma@@QEAA@AEBV?$Glue@V?$eOp@V?$Col@N@arma@@Veop_scalar_times@2@@arma@@V?$Op@V?$Col@N@arma@@Vop_htrans@2@@2@Vglue_times@2@@1@@Z 000000018001b84c     Gaussian.obj
 0004:00000858       $pdata$??A?$eOp@V?$Col@N@arma@@Veop_scalar_minus_pre@2@@arma@@QEBANI@Z 000000018001b858     Gaussian.obj
 0004:00000864       $pdata$?at_alt@?$eOp@V?$Col@N@arma@@Veop_scalar_minus_pre@2@@arma@@QEBANI@Z 000000018001b864     Gaussian.obj
 0004:00000870       $pdata$??A?$eOp@V?$Op@V?$Mat@N@arma@@Vop_diagvec@2@@arma@@Veop_log@2@@arma@@QEBANI@Z 000000018001b870     Gaussian.obj
 0004:0000087c       $pdata$??$arma_stop_bad_alloc@$$BY0CH@D@arma@@YAXAEAY0CH@$$CBD@Z 000000018001b87c     Gaussian.obj
 0004:00000888       $pdata$??$?4V?$eOp@V?$Mat@N@arma@@Veop_scalar_times@2@@arma@@V?$Glue@V?$eOp@V?$Col@N@arma@@Veop_scalar_times@2@@arma@@V?$Op@V?$Col@N@arma@@Vop_htrans@2@@2@Vglue_times@2@@1@Veglue_plus@1@@?$Mat@N@arma@@QEAAAEBV01@AEBV?$eGlue@V?$eOp@V?$Mat@N@arma@@Veop_scalar_times@2@@arma@@V?$Glue@V?$eOp@V?$Col@N@arma@@Veop_scalar_times@2@@arma@@V?$Op@V?$Col@N@arma@@Vop_htrans@2@@2@Vglue_times@2@@2@Veglue_plus@2@@1@@Z 000000018001b888     Gaussian.obj
 0004:00000894       $pdata$??$print_elem_zero@N@arma_ostream@arma@@SAXAEAV?$basic_ostream@DU?$char_traits@D@std@@@std@@_N@Z 000000018001b894     Gaussian.obj
 0004:000008a0       $pdata$??$apply@V?$Op@V?$Mat@N@arma@@Vop_htrans@2@@arma@@V?$Mat@N@2@@glue_times@arma@@SAXAEAV?$Mat@N@1@AEBV?$Glue@V?$Op@V?$Mat@N@arma@@Vop_htrans@2@@arma@@V?$Mat@N@2@Vglue_times@2@@1@@Z 000000018001b8a0     Gaussian.obj
 0004:000008ac       $pdata$??$apply@V?$eOp@V?$Col@N@arma@@Veop_scalar_times@2@@arma@@V?$Op@V?$Col@N@arma@@Vop_htrans@2@@2@@glue_times@arma@@SAXAEAV?$Mat@N@1@AEBV?$Glue@V?$eOp@V?$Col@N@arma@@Veop_scalar_times@2@@arma@@V?$Op@V?$Col@N@arma@@Vop_htrans@2@@2@Vglue_times@2@@1@@Z 000000018001b8ac     Gaussian.obj
 0004:000008b8       $pdata$??0bad_alloc@std@@QEAA@AEBV01@@Z 000000018001b8b8     Gaussian.obj
 0004:000008c4       $pdata$?at_alt@?$Proxy@V?$Mat@N@arma@@@arma@@QEBANI@Z 000000018001b8c4     Gaussian.obj
 0004:000008c4       $pdata$?at_alt@?$Proxy@V?$Row@N@arma@@@arma@@QEBANI@Z 000000018001b8c4     GibbsSampler.obj
 0004:000008c4       $pdata$?at_alt@?$Proxy@V?$Col@N@arma@@@arma@@QEBANI@Z 000000018001b8c4     Gaussian.obj
 0004:000008d0       $pdata$??A?$Proxy@V?$Row@N@arma@@@arma@@QEBANI@Z 000000018001b8d0     GibbsSampler.obj
 0004:000008d0       $pdata$??A?$Proxy@V?$Mat@N@arma@@@arma@@QEBANI@Z 000000018001b8d0     Gaussian.obj
 0004:000008d0       $pdata$??A?$Proxy@V?$Col@N@arma@@@arma@@QEBANI@Z 000000018001b8d0     Gaussian.obj
 0004:000008dc       $pdata$??A?$diagview@N@arma@@QEBANI@Z 000000018001b8dc     Gaussian.obj
 0004:000008e8       $pdata$??$apply@V?$Mat@N@arma@@V?$eOp@V?$Mat@N@arma@@Veop_scalar_times@2@@2@V?$Glue@V?$eOp@V?$Col@N@arma@@Veop_scalar_times@2@@arma@@V?$Op@V?$Col@N@arma@@Vop_htrans@2@@2@Vglue_times@2@@2@@?$eglue_core@Veglue_plus@arma@@@arma@@SAXAEAV?$Mat@N@1@AEBV?$eGlue@V?$eOp@V?$Mat@N@arma@@Veop_scalar_times@2@@arma@@V?$Glue@V?$eOp@V?$Col@N@arma@@Veop_scalar_times@2@@arma@@V?$Op@V?$Col@N@arma@@Vop_htrans@2@@2@Vglue_times@2@@2@Veglue_plus@2@@1@@Z 000000018001b8e8     Gaussian.obj
 0004:000008f4       $pdata$??A?$eOp@V?$Mat@N@arma@@Veop_scalar_times@2@@arma@@QEBANI@Z 000000018001b8f4     Gaussian.obj
 0004:00000900       $pdata$?at_alt@?$eOp@V?$Mat@N@arma@@Veop_scalar_times@2@@arma@@QEBANI@Z 000000018001b900     Gaussian.obj
 0004:0000090c       $pdata$??1?$unwrap_check@V?$Mat@N@arma@@@arma@@QEAA@XZ 000000018001b90c     Gaussian.obj
 0004:00000918       $pdata$??$apply@V?$Op@V?$Mat@N@arma@@Vop_htrans@2@@arma@@V?$Mat@N@2@@?$glue_times_redirect2_helper@$0A@@arma@@SAXAEAV?$Mat@N@1@AEBV?$Glue@V?$Op@V?$Mat@N@arma@@Vop_htrans@2@@arma@@V?$Mat@N@2@Vglue_times@2@@1@@Z 000000018001b918     Gaussian.obj
 0004:00000924       $pdata$??$apply@V?$eOp@V?$Col@N@arma@@Veop_scalar_times@2@@arma@@V?$Op@V?$Col@N@arma@@Vop_htrans@2@@2@@?$glue_times_redirect2_helper@$0A@@arma@@SAXAEAV?$Mat@N@1@AEBV?$Glue@V?$eOp@V?$Col@N@arma@@Veop_scalar_times@2@@arma@@V?$Op@V?$Col@N@arma@@Vop_htrans@2@@2@Vglue_times@2@@1@@Z 000000018001b924     Gaussian.obj
 0004:00000930       $pdata$??0?$Mat@N@arma@@QEAA@II@Z 000000018001b930     Gaussian.obj
 0004:0000093c       $pdata$??$apply@N$00$0A@$0A@V?$Mat@N@arma@@V12@@glue_times@arma@@SAXAEAV?$Mat@N@1@AEBV21@1N@Z 000000018001b93c     Gaussian.obj
 0004:00000948       $pdata$??$apply@N$0A@$00$00V?$Col@N@arma@@V12@@glue_times@arma@@SAXAEAV?$Mat@N@1@AEBV?$Col@N@1@1N@Z 000000018001b948     Gaussian.obj
 0004:00000954       $pdata$?zeros@?$Mat@N@arma@@QEAAAEBV12@XZ 000000018001b954     Gaussian.obj
 0004:00000960       $pdata$??$apply_blas_type@NV?$Mat@N@arma@@@?$gemv@$00$0A@$0A@@arma@@SAXPEANAEBV?$Mat@N@1@PEBNNN@Z 000000018001b960     Gaussian.obj
 0004:0000096c       $pdata$??$apply_blas_type@NV?$Mat@N@arma@@@?$syrk@$00$0A@$0A@@arma@@SAXAEAV?$Mat@N@1@AEBV21@NN@Z 000000018001b96c     Gaussian.obj
 0004:00000978       $pdata$??$apply_blas_type@NV?$Mat@N@arma@@V12@@?$gemm@$00$0A@$0A@$0A@@arma@@SAXAEAV?$Mat@N@1@AEBV21@1NN@Z 000000018001b978     Gaussian.obj
 0004:00000984       $pdata$??$apply_blas_type@NV?$Col@N@arma@@@?$gemv@$0A@$00$0A@@arma@@SAXPEANAEBV?$Col@N@1@PEBNNN@Z 000000018001b984     Gaussian.obj
 0004:00000990       $pdata$??$apply_blas_type@NV?$Col@N@arma@@@?$syrk@$0A@$00$0A@@arma@@SAXAEAV?$Mat@N@1@AEBV?$Col@N@1@NN@Z 000000018001b990     Gaussian.obj
 0004:0000099c       $pdata$??$apply_blas_type@NV?$Col@N@arma@@V12@@?$gemm@$0A@$00$00$0A@@arma@@SAXAEAV?$Mat@N@1@AEBV?$Col@N@1@1NN@Z 000000018001b99c     Gaussian.obj
 0004:000009a8       $pdata$??$apply@NV?$Mat@N@arma@@@?$gemv_emul_tinysq@$00$0A@$0A@@arma@@SAXPEANAEBV?$Mat@N@1@PEBNNN@Z 000000018001b9a8     Gaussian.obj
 0004:000009b4       $pdata$1$??$apply@NV?$Mat@N@arma@@@?$gemv_emul_tinysq@$00$0A@$0A@@arma@@SAXPEANAEBV?$Mat@N@1@PEBNNN@Z 000000018001b9b4     Gaussian.obj
 0004:000009c0       $pdata$2$??$apply@NV?$Mat@N@arma@@@?$gemv_emul_tinysq@$00$0A@$0A@@arma@@SAXPEANAEBV?$Mat@N@1@PEBNNN@Z 000000018001b9c0     Gaussian.obj
 0004:000009cc       $pdata$3$??$apply@NV?$Mat@N@arma@@@?$gemv_emul_tinysq@$00$0A@$0A@@arma@@SAXPEANAEBV?$Mat@N@1@PEBNNN@Z 000000018001b9cc     Gaussian.obj
 0004:000009d8       $pdata$5$??$apply@NV?$Mat@N@arma@@@?$gemv_emul_tinysq@$00$0A@$0A@@arma@@SAXPEANAEBV?$Mat@N@1@PEBNNN@Z 000000018001b9d8     Gaussian.obj
 0004:000009e4       $pdata$6$??$apply@NV?$Mat@N@arma@@@?$gemv_emul_tinysq@$00$0A@$0A@@arma@@SAXPEANAEBV?$Mat@N@1@PEBNNN@Z 000000018001b9e4     Gaussian.obj
 0004:000009f0       $pdata$??$gemv@N@blas@arma@@YAXPEBDPEBH1PEBN21212PEAN1@Z 000000018001b9f0     Gaussian.obj
 0004:000009fc       $pdata$??$gemm@N@blas@arma@@YAXPEBD0PEBH11PEBN21212PEAN1@Z 000000018001b9fc     Gaussian.obj
 0004:00000a08       $pdata$??$apply@NV?$Mat@N@arma@@@?$syrk_vec@$00$0A@$0A@@arma@@SAXAEAV?$Mat@N@1@AEBV21@NN@Z 000000018001ba08     Gaussian.obj
 0004:00000a14       $pdata$2$??$apply@NV?$Mat@N@arma@@@?$syrk_vec@$00$0A@$0A@@arma@@SAXAEAV?$Mat@N@1@AEBV21@NN@Z 000000018001ba14     Gaussian.obj
 0004:00000a20       $pdata$3$??$apply@NV?$Mat@N@arma@@@?$syrk_vec@$00$0A@$0A@@arma@@SAXAEAV?$Mat@N@1@AEBV21@NN@Z 000000018001ba20     Gaussian.obj
 0004:00000a2c       $pdata$??$apply@NV?$Mat@N@arma@@@?$syrk_emul@$00$0A@$0A@@arma@@SAXAEAV?$Mat@N@1@AEBV21@NN@Z 000000018001ba2c     Gaussian.obj
 0004:00000a38       $pdata$1$??$apply@NV?$Mat@N@arma@@@?$syrk_emul@$00$0A@$0A@@arma@@SAXAEAV?$Mat@N@1@AEBV21@NN@Z 000000018001ba38     Gaussian.obj
 0004:00000a44       $pdata$2$??$apply@NV?$Mat@N@arma@@@?$syrk_emul@$00$0A@$0A@@arma@@SAXAEAV?$Mat@N@1@AEBV21@NN@Z 000000018001ba44     Gaussian.obj
 0004:00000a50       $pdata$??$inplace_copy_upper_tri_to_lower_tri@N@syrk_helper@arma@@SAXAEAV?$Mat@N@1@@Z 000000018001ba50     Gaussian.obj
 0004:00000a5c       $pdata$0$??$inplace_copy_upper_tri_to_lower_tri@N@syrk_helper@arma@@SAXAEAV?$Mat@N@1@@Z 000000018001ba5c     Gaussian.obj
 0004:00000a68       $pdata$1$??$inplace_copy_upper_tri_to_lower_tri@N@syrk_helper@arma@@SAXAEAV?$Mat@N@1@@Z 000000018001ba68     Gaussian.obj
 0004:00000a74       $pdata$??$apply@NV?$Mat@N@arma@@V12@@?$gemm_emul_tinysq@$00$0A@$0A@@arma@@SAXAEAV?$Mat@N@1@AEBV21@1NN@Z 000000018001ba74     Gaussian.obj
 0004:00000a80       $pdata$??$apply@NV?$Mat@N@arma@@@?$syrk_emul@$00$00$0A@@arma@@SAXAEAV?$Mat@N@1@AEBV21@NN@Z 000000018001ba80     Gaussian.obj
 0004:00000a8c       $pdata$1$??$apply@NV?$Mat@N@arma@@@?$syrk_emul@$00$00$0A@@arma@@SAXAEAV?$Mat@N@1@AEBV21@NN@Z 000000018001ba8c     Gaussian.obj
 0004:00000a98       $pdata$2$??$apply@NV?$Mat@N@arma@@@?$syrk_emul@$00$00$0A@@arma@@SAXAEAV?$Mat@N@1@AEBV21@NN@Z 000000018001ba98     Gaussian.obj
 0004:00000aa4       $pdata$??$apply_mat_noalias_tinysq@NV?$Col@N@arma@@@op_strans@arma@@SAXAEAV?$Mat@N@1@AEBV?$Col@N@1@@Z 000000018001baa4     Gaussian.obj
 0004:00000ab0       $pdata$??$apply@NV?$Col@N@arma@@@?$gemv_emul_tinysq@$0A@$00$0A@@arma@@SAXPEANAEBV?$Col@N@1@PEBNNN@Z 000000018001bab0     Gaussian.obj
 0004:00000abc       $pdata$1$??$apply@NV?$Col@N@arma@@@?$gemv_emul_tinysq@$0A@$00$0A@@arma@@SAXPEANAEBV?$Col@N@1@PEBNNN@Z 000000018001babc     Gaussian.obj
 0004:00000ac8       $pdata$2$??$apply@NV?$Col@N@arma@@@?$gemv_emul_tinysq@$0A@$00$0A@@arma@@SAXPEANAEBV?$Col@N@1@PEBNNN@Z 000000018001bac8     Gaussian.obj
 0004:00000ad4       $pdata$3$??$apply@NV?$Col@N@arma@@@?$gemv_emul_tinysq@$0A@$00$0A@@arma@@SAXPEANAEBV?$Col@N@1@PEBNNN@Z 000000018001bad4     Gaussian.obj
 0004:00000ae0       $pdata$5$??$apply@NV?$Col@N@arma@@@?$gemv_emul_tinysq@$0A@$00$0A@@arma@@SAXPEANAEBV?$Col@N@1@PEBNNN@Z 000000018001bae0     Gaussian.obj
 0004:00000aec       $pdata$6$??$apply@NV?$Col@N@arma@@@?$gemv_emul_tinysq@$0A@$00$0A@@arma@@SAXPEANAEBV?$Col@N@1@PEBNNN@Z 000000018001baec     Gaussian.obj
 0004:00000af8       $pdata$??$apply@NV?$Col@N@arma@@V?$Mat@N@2@@?$gemm_emul_tinysq@$0A@$00$0A@@arma@@SAXAEAV?$Mat@N@1@AEBV?$Col@N@1@AEBV21@NN@Z 000000018001baf8     Gaussian.obj
 0004:00000b04       $pdata$??$apply@NV?$Col@N@arma@@@?$syrk_vec@$0A@$00$0A@@arma@@SAXAEAV?$Mat@N@1@AEBV?$Col@N@1@NN@Z 000000018001bb04     Gaussian.obj
 0004:00000b10       $pdata$2$??$apply@NV?$Col@N@arma@@@?$syrk_vec@$0A@$00$0A@@arma@@SAXAEAV?$Mat@N@1@AEBV?$Col@N@1@NN@Z 000000018001bb10     Gaussian.obj
 0004:00000b1c       $pdata$3$??$apply@NV?$Col@N@arma@@@?$syrk_vec@$0A@$00$0A@@arma@@SAXAEAV?$Mat@N@1@AEBV?$Col@N@1@NN@Z 000000018001bb1c     Gaussian.obj
 0004:00000b28       $pdata$??$apply@NV?$Col@N@arma@@@?$syrk_emul@$0A@$00$0A@@arma@@SAXAEAV?$Mat@N@1@AEBV?$Col@N@1@NN@Z 000000018001bb28     Gaussian.obj
 0004:00000b34       $pdata$??$apply_mat_noalias@NV?$Col@N@arma@@@op_strans@arma@@SAXAEAV?$Mat@N@1@AEBV?$Col@N@1@@Z 000000018001bb34     Gaussian.obj
 0004:00000b40       $pdata$??$dot@N@blas@arma@@YANIPEBN0@Z 000000018001bb40     Gaussian.obj
 0004:00000b4c       $pdata$?assign@?$char_traits@D@std@@SAPEADQEAD_KD@Z 000000018001bb4c     GibbsSampler.obj
 0004:00000b58       $pdata$??0bad_cast@std@@QEAA@XZ 000000018001bb58     GibbsSampler.obj
 0004:00000b64       $pdata$??1locale@std@@QEAA@XZ 000000018001bb64     GibbsSampler.obj
 0004:00000b70       $pdata$?_Getfacet@locale@std@@QEBAPEBVfacet@12@_K@Z 000000018001bb70     GibbsSampler.obj
 0004:00000b7c       $pdata$??$_Fgetc@D@std@@YA_NAEADPEAU_iobuf@@@Z 000000018001bb7c     GibbsSampler.obj
 0004:00000b88       $pdata$??$_Fputc@D@std@@YA_NDPEAU_iobuf@@@Z 000000018001bb88     GibbsSampler.obj
 0004:00000b94       $pdata$??$_Ungetc@D@std@@YA_NAEBDPEAU_iobuf@@@Z 000000018001bb94     GibbsSampler.obj
 0004:00000ba0       $pdata$?randi_val@arma_rng_cxx98@arma@@SAHXZ 000000018001bba0     GibbsSampler.obj
 0004:00000bac       $pdata$?randu_val@arma_rng_cxx98@arma@@SANXZ 000000018001bbac     GibbsSampler.obj
 0004:00000bb8       $pdata$?set_seed_random@arma_rng@arma@@SAXXZ 000000018001bbb8     GibbsSampler.obj
 0004:00000bc4       $pdata$??_D?$basic_ifstream@DU?$char_traits@D@std@@@std@@QEAAXXZ 000000018001bbc4     GibbsSampler.obj
 0004:00000bd0       $pdata$?tic@wall_clock@arma@@QEAAXXZ 000000018001bbd0     GibbsSampler.obj
 0004:00000bdc       $pdata$?toc@wall_clock@arma@@QEAANXZ 000000018001bbdc     GibbsSampler.obj
 0004:00000be8       $pdata$??0GibbsSampler@@QEAA@XZ 000000018001bbe8     GibbsSampler.obj
 0004:00000bf4       $pdata$??1GibbsSampler@@QEAA@XZ 000000018001bbf4     GibbsSampler.obj
 0004:00000c00       $pdata$?init@GibbsSampler@@QEAAXNNV?$Row@N@arma@@N0V?$field@V?$Mat@N@arma@@@3@0@Z 000000018001bc00     GibbsSampler.obj
 0004:00000c0c       $pdata$??4Gaussian@@QEAAAEAV0@AEBV0@@Z 000000018001bc0c     GibbsSampler.obj
 0004:00000c18       $pdata$?run@GibbsSampler@@QEAAXN@Z 000000018001bc18     GibbsSampler.obj
 0004:00000c24       $pdata$??0?$basic_string@DU?$char_traits@D@std@@V?$allocator@D@2@@std@@QEAA@_KD@Z 000000018001bc24     GibbsSampler.obj
 0004:00000c30       $pdata$??1?$basic_ifstream@DU?$char_traits@D@std@@@std@@UEAA@XZ 000000018001bc30     GibbsSampler.obj
 0004:00000c3c       $pdata$??0?$basic_ifstream@DU?$char_traits@D@std@@@std@@QEAA@PEBDHH@Z 000000018001bc3c     GibbsSampler.obj
 0004:00000c48       $pdata$?imbue@?$basic_filebuf@DU?$char_traits@D@std@@@std@@MEAAXAEBVlocale@2@@Z 000000018001bc48     GibbsSampler.obj
 0004:00000c54       $pdata$?sync@?$basic_filebuf@DU?$char_traits@D@std@@@std@@MEAAHXZ 000000018001bc54     GibbsSampler.obj
 0004:00000c60       $pdata$0$?sync@?$basic_filebuf@DU?$char_traits@D@std@@@std@@MEAAHXZ 000000018001bc60     GibbsSampler.obj
 0004:00000c6c       $pdata$1$?sync@?$basic_filebuf@DU?$char_traits@D@std@@@std@@MEAAHXZ 000000018001bc6c     GibbsSampler.obj
 0004:00000c78       $pdata$?setbuf@?$basic_filebuf@DU?$char_traits@D@std@@@std@@MEAAPEAV?$basic_streambuf@DU?$char_traits@D@std@@@2@PEAD_J@Z 000000018001bc78     GibbsSampler.obj
 0004:00000c84       $pdata$?seekpos@?$basic_filebuf@DU?$char_traits@D@std@@@std@@MEAA?AV?$fpos@U_Mbstatet@@@2@V32@H@Z 000000018001bc84     GibbsSampler.obj
 0004:00000c90       $pdata$?seekoff@?$basic_filebuf@DU?$char_traits@D@std@@@std@@MEAA?AV?$fpos@U_Mbstatet@@@2@_JHH@Z 000000018001bc90     GibbsSampler.obj
 0004:00000c9c       $pdata$?uflow@?$basic_filebuf@DU?$char_traits@D@std@@@std@@MEAAHXZ 000000018001bc9c     GibbsSampler.obj
 0004:00000ca8       $pdata$?underflow@?$basic_filebuf@DU?$char_traits@D@std@@@std@@MEAAHXZ 000000018001bca8     GibbsSampler.obj
 0004:00000cb4       $pdata$?pbackfail@?$basic_filebuf@DU?$char_traits@D@std@@@std@@MEAAHH@Z 000000018001bcb4     GibbsSampler.obj
 0004:00000cc0       $pdata$0$?pbackfail@?$basic_filebuf@DU?$char_traits@D@std@@@std@@MEAAHH@Z 000000018001bcc0     GibbsSampler.obj
 0004:00000ccc       $pdata$2$?pbackfail@?$basic_filebuf@DU?$char_traits@D@std@@@std@@MEAAHH@Z 000000018001bccc     GibbsSampler.obj
 0004:00000cd8       $pdata$4$?pbackfail@?$basic_filebuf@DU?$char_traits@D@std@@@std@@MEAAHH@Z 000000018001bcd8     GibbsSampler.obj
 0004:00000ce4       $pdata$?overflow@?$basic_filebuf@DU?$char_traits@D@std@@@std@@MEAAHH@Z 000000018001bce4     GibbsSampler.obj
 0004:00000cf0       $pdata$??1?$basic_filebuf@DU?$char_traits@D@std@@@std@@UEAA@XZ 000000018001bcf0     GibbsSampler.obj
 0004:00000cfc       $pdata$??_G?$basic_ifstream@DU?$char_traits@D@std@@@std@@UEAAPEAXI@Z 000000018001bcfc     GibbsSampler.obj
 0004:00000d08       $pdata$??_G?$basic_filebuf@DU?$char_traits@D@std@@@std@@UEAAPEAXI@Z 000000018001bd08     GibbsSampler.obj
 0004:00000d14       $pdata$?begin@?$basic_string@DU?$char_traits@D@std@@V?$allocator@D@2@@std@@QEAA?AV?$_String_iterator@V?$_String_val@U?$_Simple_types@D@std@@@std@@@2@XZ 000000018001bd14     GibbsSampler.obj
 0004:00000d20       $pdata$?assign@?$basic_string@DU?$char_traits@D@std@@V?$allocator@D@2@@std@@QEAAAEAV12@_KD@Z 000000018001bd20     GibbsSampler.obj
 0004:00000d2c       $pdata$?append@?$basic_string@DU?$char_traits@D@std@@V?$allocator@D@2@@std@@QEAAAEAV12@_KD@Z 000000018001bd2c     GibbsSampler.obj
 0004:00000d38       $pdata$0$?append@?$basic_string@DU?$char_traits@D@std@@V?$allocator@D@2@@std@@QEAAAEAV12@_KD@Z 000000018001bd38     GibbsSampler.obj
 0004:00000d44       $pdata$1$?append@?$basic_string@DU?$char_traits@D@std@@V?$allocator@D@2@@std@@QEAAAEAV12@_KD@Z 000000018001bd44     GibbsSampler.obj
 0004:00000d50       $pdata$?_Set_back@?$basic_filebuf@DU?$char_traits@D@std@@@std@@AEAAXXZ 000000018001bd50     GibbsSampler.obj
 0004:00000d5c       $pdata$?_Reset_back@?$basic_filebuf@DU?$char_traits@D@std@@@std@@AEAAXXZ 000000018001bd5c     GibbsSampler.obj
 0004:00000d68       $pdata$?_Initcvt@?$basic_filebuf@DU?$char_traits@D@std@@@std@@IEAAXPEBV?$codecvt@DDU_Mbstatet@@@2@@Z 000000018001bd68     GibbsSampler.obj
 0004:00000d74       $pdata$?_Endwrite@?$basic_filebuf@DU?$char_traits@D@std@@@std@@IEAA_NXZ 000000018001bd74     GibbsSampler.obj
 0004:00000d80       $pdata$?_Init@?$basic_filebuf@DU?$char_traits@D@std@@@std@@IEAAXPEAU_iobuf@@W4_Initfl@12@@Z 000000018001bd80     GibbsSampler.obj
 0004:00000d8c       $pdata$?close@?$basic_filebuf@DU?$char_traits@D@std@@@std@@QEAAPEAV12@XZ 000000018001bd8c     GibbsSampler.obj
 0004:00000d98       $pdata$0$?close@?$basic_filebuf@DU?$char_traits@D@std@@@std@@QEAAPEAV12@XZ 000000018001bd98     GibbsSampler.obj
 0004:00000da4       $pdata$1$?close@?$basic_filebuf@DU?$char_traits@D@std@@@std@@QEAAPEAV12@XZ 000000018001bda4     GibbsSampler.obj
 0004:00000db0       $pdata$?open@?$basic_filebuf@DU?$char_traits@D@std@@@std@@QEAAPEAV12@PEBDHH@Z 000000018001bdb0     GibbsSampler.obj
 0004:00000dbc       $pdata$??0?$basic_filebuf@DU?$char_traits@D@std@@@std@@QEAA@PEAU_iobuf@@@Z 000000018001bdbc     GibbsSampler.obj
 0004:00000dc8       $pdata$??0?$_String_iterator@V?$_String_val@U?$_Simple_types@D@std@@@std@@@std@@QEAA@PEADPEBU_Container_base0@1@@Z 000000018001bdc8     GibbsSampler.obj
 0004:00000dd4       $pdata$?_Chassign@?$basic_string@DU?$char_traits@D@std@@V?$allocator@D@2@@std@@QEAAX_K0D@Z 000000018001bdd4     GibbsSampler.obj
 0004:00000de0       $pdata$?col@?$Mat@N@arma@@QEAA?AV?$subview_col@N@2@I@Z 000000018001bde0     GibbsSampler.obj
 0004:00000dec       $pdata$?zeros@?$Mat@N@arma@@QEAAAEBV12@I@Z 000000018001bdec     GibbsSampler.obj
 0004:00000df8       $pdata$??4?$Col@N@arma@@QEAAAEBV01@AEBV01@@Z 000000018001bdf8     GibbsSampler.obj
 0004:00000df8       $pdata$??4?$Row@N@arma@@QEAAAEBV01@AEBV01@@Z 000000018001bdf8     GibbsSampler.obj
 0004:00000e04       $pdata$??0?$Row@N@arma@@QEAA@XZ 000000018001be04     GibbsSampler.obj
 0004:00000e10       $pdata$??1?$field@VGaussian@@@arma@@QEAA@XZ 000000018001be10     GibbsSampler.obj
 0004:00000e1c       $pdata$??0?$field@VGaussian@@@arma@@QEAA@II@Z 000000018001be1c     GibbsSampler.obj
 0004:00000e28       $pdata$??4?$field@VGaussian@@@arma@@QEAAAEBV01@AEBV01@@Z 000000018001be28     GibbsSampler.obj
 0004:00000e34       $pdata$??1?$field@V?$field@VGaussian@@@arma@@@arma@@QEAA@XZ 000000018001be34     GibbsSampler.obj
 0004:00000e40       $pdata$??0?$field@V?$field@VGaussian@@@arma@@@arma@@QEAA@II@Z 000000018001be40     GibbsSampler.obj
 0004:00000e4c       $pdata$??4?$field@V?$field@VGaussian@@@arma@@@arma@@QEAAAEBV01@AEBV01@@Z 000000018001be4c     GibbsSampler.obj
 0004:00000e58       $pdata$??1?$field@V?$Mat@N@arma@@@arma@@QEAA@XZ 000000018001be58     GibbsSampler.obj
 0004:00000e64       $pdata$??4?$field@V?$Mat@N@arma@@@arma@@QEAAAEBV01@AEBV01@@Z 000000018001be64     GibbsSampler.obj
 0004:00000e70       $pdata$??1?$field@V?$Row@N@arma@@@arma@@QEAA@XZ 000000018001be70     GibbsSampler.obj
 0004:00000e7c       $pdata$??0?$field@V?$Row@N@arma@@@arma@@QEAA@II@Z 000000018001be7c     GibbsSampler.obj
 0004:00000e88       $pdata$??4?$field@V?$Row@N@arma@@@arma@@QEAAAEBV01@AEBV01@@Z 000000018001be88     GibbsSampler.obj
 0004:00000e94       $pdata$??1?$field@V?$field@V?$Row@N@arma@@@arma@@@arma@@QEAA@XZ 000000018001be94     GibbsSampler.obj
 0004:00000ea0       $pdata$??0?$field@V?$field@V?$Row@N@arma@@@arma@@@arma@@QEAA@II@Z 000000018001bea0     GibbsSampler.obj
 0004:00000eac       $pdata$??4?$field@V?$field@V?$Row@N@arma@@@arma@@@arma@@QEAAAEBV01@AEBV01@@Z 000000018001beac     GibbsSampler.obj
 0004:00000eb8       $pdata$??$?0Ufill_eye@fill@arma@@@?$Mat@N@arma@@QEAA@IIAEBU?$fill_class@Ufill_eye@fill@arma@@@fill@1@@Z 000000018001beb8     GibbsSampler.obj
 0004:00000ec4       $pdata$??$?0Ufill_zeros@fill@arma@@@?$Col@N@arma@@QEAA@IAEBU?$fill_class@Ufill_zeros@fill@arma@@@fill@1@@Z 000000018001bec4     GibbsSampler.obj
 0004:00000ed0       $pdata$??$randi@V?$Row@N@arma@@@arma@@YA?AV?$Row@N@0@IAEBVdistr_param@0@Varma_empty_class@0@PEBV10@@Z 000000018001bed0     GibbsSampler.obj
 0004:00000edc       $pdata$??$?0Ufill_zeros@fill@arma@@@?$Row@N@arma@@QEAA@IAEBU?$fill_class@Ufill_zeros@fill@arma@@@fill@1@@Z 000000018001bedc     GibbsSampler.obj
 0004:00000ee8       $pdata$??$randi@V?$Col@N@arma@@@arma@@YA?AV?$Col@N@0@IAEBVdistr_param@0@Varma_empty_class@0@PEBV10@@Z 000000018001bee8     GibbsSampler.obj
 0004:00000ef4       $pdata$??$?0V?$subview@N@arma@@@?$Col@N@arma@@QEAA@AEBU?$Base@NV?$subview@N@arma@@@1@@Z 000000018001bef4     GibbsSampler.obj
 0004:00000f00       $pdata$??$exp@V?$eOp@V?$Row@N@arma@@Veop_scalar_minus_post@2@@arma@@@arma@@YA?BV?$eOp@V?$eOp@V?$Row@N@arma@@Veop_scalar_minus_post@2@@arma@@Veop_exp@2@@0@AEBV?$eOp@V?$Row@N@arma@@Veop_scalar_minus_post@2@@0@@Z 000000018001bf00     GibbsSampler.obj
 0004:00000f0c       $pdata$??$?4V?$eOp@V?$eOp@V?$Row@N@arma@@Veop_scalar_minus_post@2@@arma@@Veop_exp@2@@arma@@@?$Row@N@arma@@QEAAAEBV01@AEBU?$Base@NV?$eOp@V?$eOp@V?$Row@N@arma@@Veop_scalar_minus_post@2@@arma@@Veop_exp@2@@arma@@@1@@Z 000000018001bf0c     GibbsSampler.obj
 0004:00000f18       $pdata$??$?0V?$eOp@V?$eOp@V?$Row@N@arma@@Veop_scalar_minus_post@2@@arma@@Veop_exp@2@@arma@@@?$Row@N@arma@@QEAA@AEBU?$Base@NV?$eOp@V?$eOp@V?$Row@N@arma@@Veop_scalar_minus_post@2@@arma@@Veop_exp@2@@arma@@@1@@Z 000000018001bf18     GibbsSampler.obj
 0004:00000f24       $pdata$??$?4V?$eOp@V?$Row@N@arma@@Veop_scalar_div_post@2@@arma@@@?$Row@N@arma@@QEAAAEBV01@AEBU?$Base@NV?$eOp@V?$Row@N@arma@@Veop_scalar_div_post@2@@arma@@@1@@Z 000000018001bf24     GibbsSampler.obj
 0004:00000f30       $pdata$??$randu@V?$Col@N@arma@@@arma@@YA?BV?$Gen@V?$Col@N@arma@@Vgen_randu@2@@0@IVarma_empty_class@0@PEBV?$Col@N@0@@Z 000000018001bf30     GibbsSampler.obj
 0004:00000f3c       $pdata$??$?4V?$Gen@V?$Col@N@arma@@Vgen_randu@2@@arma@@@?$Col@N@arma@@QEAAAEBV01@AEBU?$Base@NV?$Gen@V?$Col@N@arma@@Vgen_randu@2@@arma@@@1@@Z 000000018001bf3c     GibbsSampler.obj
 0004:00000f48       $pdata$??$cumsum@V?$Row@N@arma@@@arma@@YA?BV?$Op@V?$Row@N@arma@@Vop_cumsum_default@2@@0@AEBV?$Row@N@0@@Z 000000018001bf48     GibbsSampler.obj
 0004:00000f54       $pdata$??$?OV?$Op@V?$Row@N@arma@@Vop_cumsum_default@2@@arma@@@arma@@YA?BV?$mtOp@IV?$Op@V?$Row@N@arma@@Vop_cumsum_default@2@@arma@@Vop_rel_gt_pre@2@@0@NAEBV?$Op@V?$Row@N@arma@@Vop_cumsum_default@2@@0@@Z 000000018001bf54     GibbsSampler.obj
 0004:00000f60       $pdata$??$use_facet@V?$codecvt@DDU_Mbstatet@@@std@@@std@@YAAEBV?$codecvt@DDU_Mbstatet@@@0@AEBVlocale@0@@Z 000000018001bf60     GibbsSampler.obj
 0004:00000f6c       $pdata$??0bad_cast@std@@QEAA@AEBV01@@Z 000000018001bf6c     GibbsSampler.obj
 0004:00000f78       $pdata$?fill@?$randu@N@arma_rng@arma@@SAXPEANI@Z 000000018001bf78     GibbsSampler.obj
 0004:00000f84       $pdata$1$?fill@?$randu@N@arma_rng@arma@@SAXPEANI@Z 000000018001bf84     GibbsSampler.obj
 0004:00000f90       $pdata$2$?fill@?$randu@N@arma_rng@arma@@SAXPEANI@Z 000000018001bf90     GibbsSampler.obj
 0004:00000f9c       $pdata$3$?fill@?$randu@N@arma_rng@arma@@SAXPEANI@Z 000000018001bf9c     GibbsSampler.obj
 0004:00000fa8       $pdata$4$?fill@?$randu@N@arma_rng@arma@@SAXPEANI@Z 000000018001bfa8     GibbsSampler.obj
 0004:00000fb4       $pdata$??4?$Mat@N@arma@@QEAAAEBV01@AEBV?$subview@N@1@@Z 000000018001bfb4     GibbsSampler.obj
 0004:00000fc0       $pdata$??0?$subview_col@N@arma@@IEAA@AEBV?$Mat@N@1@I@Z 000000018001bfc0     GibbsSampler.obj
 0004:00000fcc       $pdata$?init@?$field@VGaussian@@@arma@@AEAAXAEBV12@@Z 000000018001bfcc     GibbsSampler.obj
 0004:00000fd8       $pdata$4$?init@?$field@VGaussian@@@arma@@AEAAXAEBV12@@Z 000000018001bfd8     GibbsSampler.obj
 0004:00000fe4       $pdata$5$?init@?$field@VGaussian@@@arma@@AEAAXAEBV12@@Z 000000018001bfe4     GibbsSampler.obj
 0004:00000ff0       $pdata$6$?init@?$field@VGaussian@@@arma@@AEAAXAEBV12@@Z 000000018001bff0     GibbsSampler.obj
 0004:00000ffc       $pdata$7$?init@?$field@VGaussian@@@arma@@AEAAXAEBV12@@Z 000000018001bffc     GibbsSampler.obj
 0004:00001008       $pdata$?delete_objects@?$field@VGaussian@@@arma@@AEAAXXZ 000000018001c008     GibbsSampler.obj
 0004:00001014       $pdata$0$?delete_objects@?$field@VGaussian@@@arma@@AEAAXXZ 000000018001c014     GibbsSampler.obj
 0004:00001020       $pdata$1$?delete_objects@?$field@VGaussian@@@arma@@AEAAXXZ 000000018001c020     GibbsSampler.obj
 0004:0000102c       $pdata$?init@?$field@V?$field@VGaussian@@@arma@@@arma@@AEAAXAEBV12@@Z 000000018001c02c     GibbsSampler.obj
 0004:00001038       $pdata$4$?init@?$field@V?$field@VGaussian@@@arma@@@arma@@AEAAXAEBV12@@Z 000000018001c038     GibbsSampler.obj
 0004:00001044       $pdata$5$?init@?$field@V?$field@VGaussian@@@arma@@@arma@@AEAAXAEBV12@@Z 000000018001c044     GibbsSampler.obj
 0004:00001050       $pdata$6$?init@?$field@V?$field@VGaussian@@@arma@@@arma@@AEAAXAEBV12@@Z 000000018001c050     GibbsSampler.obj
 0004:0000105c       $pdata$7$?init@?$field@V?$field@VGaussian@@@arma@@@arma@@AEAAXAEBV12@@Z 000000018001c05c     GibbsSampler.obj
 0004:00001068       $pdata$?delete_objects@?$field@V?$field@VGaussian@@@arma@@@arma@@AEAAXXZ 000000018001c068     GibbsSampler.obj
 0004:00001074       $pdata$0$?delete_objects@?$field@V?$field@VGaussian@@@arma@@@arma@@AEAAXXZ 000000018001c074     GibbsSampler.obj
 0004:00001080       $pdata$1$?delete_objects@?$field@V?$field@VGaussian@@@arma@@@arma@@AEAAXXZ 000000018001c080     GibbsSampler.obj
 0004:0000108c       $pdata$?init@?$field@V?$Mat@N@arma@@@arma@@AEAAXAEBV12@@Z 000000018001c08c     GibbsSampler.obj
 0004:00001098       $pdata$4$?init@?$field@V?$Mat@N@arma@@@arma@@AEAAXAEBV12@@Z 000000018001c098     GibbsSampler.obj
 0004:000010a4       $pdata$5$?init@?$field@V?$Mat@N@arma@@@arma@@AEAAXAEBV12@@Z 000000018001c0a4     GibbsSampler.obj
 0004:000010b0       $pdata$6$?init@?$field@V?$Mat@N@arma@@@arma@@AEAAXAEBV12@@Z 000000018001c0b0     GibbsSampler.obj
 0004:000010bc       $pdata$7$?init@?$field@V?$Mat@N@arma@@@arma@@AEAAXAEBV12@@Z 000000018001c0bc     GibbsSampler.obj
 0004:000010c8       $pdata$?delete_objects@?$field@V?$Mat@N@arma@@@arma@@AEAAXXZ 000000018001c0c8     GibbsSampler.obj
 0004:000010d4       $pdata$0$?delete_objects@?$field@V?$Mat@N@arma@@@arma@@AEAAXXZ 000000018001c0d4     GibbsSampler.obj
 0004:000010e0       $pdata$1$?delete_objects@?$field@V?$Mat@N@arma@@@arma@@AEAAXXZ 000000018001c0e0     GibbsSampler.obj
 0004:000010ec       $pdata$?init@?$field@V?$Row@N@arma@@@arma@@AEAAXAEBV12@@Z 000000018001c0ec     GibbsSampler.obj
 0004:000010f8       $pdata$4$?init@?$field@V?$Row@N@arma@@@arma@@AEAAXAEBV12@@Z 000000018001c0f8     GibbsSampler.obj
 0004:00001104       $pdata$5$?init@?$field@V?$Row@N@arma@@@arma@@AEAAXAEBV12@@Z 000000018001c104     GibbsSampler.obj
 0004:00001110       $pdata$6$?init@?$field@V?$Row@N@arma@@@arma@@AEAAXAEBV12@@Z 000000018001c110     GibbsSampler.obj
 0004:0000111c       $pdata$7$?init@?$field@V?$Row@N@arma@@@arma@@AEAAXAEBV12@@Z 000000018001c11c     GibbsSampler.obj
 0004:00001128       $pdata$?delete_objects@?$field@V?$Row@N@arma@@@arma@@AEAAXXZ 000000018001c128     GibbsSampler.obj
 0004:00001134       $pdata$0$?delete_objects@?$field@V?$Row@N@arma@@@arma@@AEAAXXZ 000000018001c134     GibbsSampler.obj
 0004:00001140       $pdata$1$?delete_objects@?$field@V?$Row@N@arma@@@arma@@AEAAXXZ 000000018001c140     GibbsSampler.obj
 0004:0000114c       $pdata$?init@?$field@V?$field@V?$Row@N@arma@@@arma@@@arma@@AEAAXAEBV12@@Z 000000018001c14c     GibbsSampler.obj
 0004:00001158       $pdata$4$?init@?$field@V?$field@V?$Row@N@arma@@@arma@@@arma@@AEAAXAEBV12@@Z 000000018001c158     GibbsSampler.obj
 0004:00001164       $pdata$5$?init@?$field@V?$field@V?$Row@N@arma@@@arma@@@arma@@AEAAXAEBV12@@Z 000000018001c164     GibbsSampler.obj
 0004:00001170       $pdata$6$?init@?$field@V?$field@V?$Row@N@arma@@@arma@@@arma@@AEAAXAEBV12@@Z 000000018001c170     GibbsSampler.obj
 0004:0000117c       $pdata$7$?init@?$field@V?$field@V?$Row@N@arma@@@arma@@@arma@@AEAAXAEBV12@@Z 000000018001c17c     GibbsSampler.obj
 0004:00001188       $pdata$?delete_objects@?$field@V?$field@V?$Row@N@arma@@@arma@@@arma@@AEAAXXZ 000000018001c188     GibbsSampler.obj
 0004:00001194       $pdata$0$?delete_objects@?$field@V?$field@V?$Row@N@arma@@@arma@@@arma@@AEAAXXZ 000000018001c194     GibbsSampler.obj
 0004:000011a0       $pdata$1$?delete_objects@?$field@V?$field@V?$Row@N@arma@@@arma@@@arma@@AEAAXXZ 000000018001c1a0     GibbsSampler.obj
 0004:000011ac       $pdata$??$randi@V?$Row@N@arma@@@arma@@YA?AV?$Row@N@0@IIAEBVdistr_param@0@PEBV10@@Z 000000018001c1ac     GibbsSampler.obj
 0004:000011b8       $pdata$??$randi@V?$Col@N@arma@@@arma@@YA?AV?$Col@N@0@IIAEBVdistr_param@0@PEBV10@@Z 000000018001c1b8     GibbsSampler.obj
 0004:000011c4       $pdata$??0?$eOp@V?$eOp@V?$Row@N@arma@@Veop_scalar_minus_post@2@@arma@@Veop_exp@2@@arma@@QEAA@AEBV?$eOp@V?$Row@N@arma@@Veop_scalar_minus_post@2@@1@@Z 000000018001c1c4     GibbsSampler.obj
 0004:000011d0       $pdata$??$acquire@I@memory@arma@@SAPEAII@Z 000000018001c1d0     GibbsSampler.obj
 0004:000011dc       $pdata$??$fill@Ufill_eye@0arma@@@?$Mat@N@arma@@QEAAAEBV01@AEBU?$fill_class@Ufill_eye@fill@arma@@@fill@1@@Z 000000018001c1dc     GibbsSampler.obj
 0004:000011e8       $pdata$??$fill@Ufill_zeros@0arma@@@?$Mat@N@arma@@QEAAAEBV01@AEBU?$fill_class@Ufill_zeros@fill@arma@@@fill@1@@Z 000000018001c1e8     GibbsSampler.obj
 0004:000011f4       $pdata$??$accu@V?$Row@N@arma@@@arma@@YANAEBV?$Row@N@0@@Z 000000018001c1f4     GibbsSampler.obj
 0004:00001200       $pdata$??$max@V?$Mat@N@arma@@@op_max@arma@@SANAEBU?$Base@NV?$Mat@N@arma@@@1@@Z 000000018001c200     GibbsSampler.obj
 0004:0000120c       $pdata$??$?4V?$eOp@V?$Row@N@arma@@Veop_scalar_minus_post@2@@arma@@Veop_exp@1@@?$Mat@N@arma@@QEAAAEBV01@AEBV?$eOp@V?$eOp@V?$Row@N@arma@@Veop_scalar_minus_post@2@@arma@@Veop_exp@2@@1@@Z 000000018001c20c     GibbsSampler.obj
 0004:00001218       $pdata$??$?4V?$Row@N@arma@@Veop_scalar_div_post@1@@?$Mat@N@arma@@QEAAAEBV01@AEBV?$eOp@V?$Row@N@arma@@Veop_scalar_div_post@2@@1@@Z 000000018001c218     GibbsSampler.obj
 0004:00001224       $pdata$??$?4V?$Col@N@arma@@Vgen_randu@1@@?$Mat@N@arma@@QEAAAEBV01@AEBV?$Gen@V?$Col@N@arma@@Vgen_randu@2@@1@@Z 000000018001c224     GibbsSampler.obj
 0004:00001230       $pdata$??$accu@V?$mtOp@IV?$Op@V?$Row@N@arma@@Vop_cumsum_default@2@@arma@@Vop_rel_gt_pre@2@@arma@@@arma@@YAIAEBV?$mtOp@IV?$Op@V?$Row@N@arma@@Vop_cumsum_default@2@@arma@@Vop_rel_gt_pre@2@@0@@Z 000000018001c230     GibbsSampler.obj
 0004:0000123c       $pdata$??_GGaussian@@QEAAPEAXI@Z 000000018001c23c     GibbsSampler.obj
 0004:00001248       $pdata$??_G?$field@VGaussian@@@arma@@QEAAPEAXI@Z 000000018001c248     GibbsSampler.obj
 0004:00001254       $pdata$??_G?$Row@N@arma@@QEAAPEAXI@Z 000000018001c254     GibbsSampler.obj
 0004:00001260       $pdata$??_G?$field@V?$Row@N@arma@@@arma@@QEAAPEAXI@Z 000000018001c260     GibbsSampler.obj
 0004:0000126c       $pdata$??0?$Proxy@V?$mtOp@IV?$Op@V?$Row@N@arma@@Vop_cumsum_default@2@@arma@@Vop_rel_gt_pre@2@@arma@@@arma@@QEAA@AEBV?$mtOp@IV?$Op@V?$Row@N@arma@@Vop_cumsum_default@2@@arma@@Vop_rel_gt_pre@2@@1@@Z 000000018001c26c     GibbsSampler.obj
 0004:00001278       $pdata$??0?$Mat@N@arma@@QEAA@AEBV?$subview@N@1@@Z 000000018001c278     GibbsSampler.obj
 0004:00001284       $pdata$?randu@?$Mat@N@arma@@QEAAAEBV12@XZ 000000018001c284     GibbsSampler.obj
 0004:00001290       $pdata$?eye@?$Mat@N@arma@@QEAAAEBV12@XZ 000000018001c290     GibbsSampler.obj
 0004:0000129c       $pdata$??0?$Col@N@arma@@QEAA@II@Z 000000018001c29c     GibbsSampler.obj
 0004:000012a8       $pdata$??0?$Row@N@arma@@QEAA@II@Z 000000018001c2a8     GibbsSampler.obj
 0004:000012b4       $pdata$??0?$Row@N@arma@@QEAA@AEBV01@@Z 000000018001c2b4     GibbsSampler.obj
 0004:000012c0       $pdata$?extract@?$subview@N@arma@@SAXAEAV?$Mat@N@2@AEBV12@@Z 000000018001c2c0     GibbsSampler.obj
 0004:000012cc       $pdata$?init@?$field@VGaussian@@@arma@@AEAAXIII@Z 000000018001c2cc     GibbsSampler.obj
 0004:000012d8       $pdata$?init@?$field@V?$field@VGaussian@@@arma@@@arma@@AEAAXIII@Z 000000018001c2d8     GibbsSampler.obj
 0004:000012e4       $pdata$?init@?$field@V?$Mat@N@arma@@@arma@@AEAAXIII@Z 000000018001c2e4     GibbsSampler.obj
 0004:000012f0       $pdata$?init@?$field@V?$Row@N@arma@@@arma@@AEAAXIII@Z 000000018001c2f0     GibbsSampler.obj
 0004:000012fc       $pdata$?init@?$field@V?$field@V?$Row@N@arma@@@arma@@@arma@@AEAAXIII@Z 000000018001c2fc     GibbsSampler.obj
 0004:00001308       $pdata$??$accu_proxy_mat@V?$Row@N@arma@@@arma@@YANAEBV?$Proxy@V?$Row@N@arma@@@0@@Z 000000018001c308     GibbsSampler.obj
 0004:00001314       $pdata$??$most_neg@N@priv@arma@@YANPEAN@Z 000000018001c314     GibbsSampler.obj
 0004:00001320       $pdata$??$apply@V?$Mat@N@arma@@V?$eOp@V?$Row@N@arma@@Veop_scalar_minus_post@2@@2@@?$eop_core@Veop_exp@arma@@@arma@@SAXAEAV?$Mat@N@1@AEBV?$eOp@V?$eOp@V?$Row@N@arma@@Veop_scalar_minus_post@2@@arma@@Veop_exp@2@@1@@Z 000000018001c320     GibbsSampler.obj
 0004:0000132c       $pdata$??$accu_proxy_mat@V?$mtOp@IV?$Op@V?$Row@N@arma@@Vop_cumsum_default@2@@arma@@Vop_rel_gt_pre@2@@arma@@@arma@@YAIAEBV?$Proxy@V?$mtOp@IV?$Op@V?$Row@N@arma@@Vop_cumsum_default@2@@arma@@Vop_rel_gt_pre@2@@arma@@@0@@Z 000000018001c32c     GibbsSampler.obj
 0004:00001338       $pdata$??$?0V?$Op@V?$Row@N@arma@@Vop_cumsum_default@2@@arma@@Vop_rel_gt_pre@1@@?$Mat@I@arma@@QEAA@AEBV?$mtOp@IV?$Op@V?$Row@N@arma@@Vop_cumsum_default@2@@arma@@Vop_rel_gt_pre@2@@1@@Z 000000018001c338     GibbsSampler.obj
 0004:00001344       $pdata$??$randi_fill@N@arma_rng_cxx98@arma@@SAXPEANIHH@Z 000000018001c344     GibbsSampler.obj
 0004:00001350       $pdata$0$??$randi_fill@N@arma_rng_cxx98@arma@@SAXPEANIHH@Z 000000018001c350     GibbsSampler.obj
 0004:0000135c       $pdata$1$??$randi_fill@N@arma_rng_cxx98@arma@@SAXPEANIHH@Z 000000018001c35c     GibbsSampler.obj
 0004:00001368       $pdata$?init_warm@?$Mat@I@arma@@IEAAXII@Z 000000018001c368     GibbsSampler.obj
 0004:00001374       $pdata$1$?init_warm@?$Mat@I@arma@@IEAAXII@Z 000000018001c374     GibbsSampler.obj
 0004:00001380       $pdata$2$?init_warm@?$Mat@I@arma@@IEAAXII@Z 000000018001c380     GibbsSampler.obj
 0004:0000138c       $pdata$?create_objects@?$field@VGaussian@@@arma@@AEAAXXZ 000000018001c38c     GibbsSampler.obj
 0004:00001398       $pdata$?create_objects@?$field@V?$field@V?$Row@N@arma@@@arma@@@arma@@AEAAXXZ 000000018001c398     GibbsSampler.obj
 0004:00001398       $pdata$?create_objects@?$field@V?$field@VGaussian@@@arma@@@arma@@AEAAXXZ 000000018001c398     GibbsSampler.obj
 0004:000013a4       $pdata$?create_objects@?$field@V?$Mat@N@arma@@@arma@@AEAAXXZ 000000018001c3a4     GibbsSampler.obj
 0004:000013b0       $pdata$?create_objects@?$field@V?$Row@N@arma@@@arma@@AEAAXXZ 000000018001c3b0     GibbsSampler.obj
 0004:000013bc       $pdata$??A?$eOp@V?$Row@N@arma@@Veop_scalar_minus_post@2@@arma@@QEBANI@Z 000000018001c3bc     GibbsSampler.obj
 0004:000013c8       $pdata$?at_alt@?$eOp@V?$Row@N@arma@@Veop_scalar_minus_post@2@@arma@@QEBANI@Z 000000018001c3c8     GibbsSampler.obj
 0004:000013d4       $pdata$??$arma_check_bad_alloc@$$BY0BN@D@arma@@YAX_NAEAY0BN@$$CBD@Z 000000018001c3d4     GibbsSampler.obj
 0004:000013e0       $pdata$??$accumulate@I@arrayops@arma@@SAIPEBII@Z 000000018001c3e0     GibbsSampler.obj
 0004:000013ec       $pdata$??$apply@V?$Op@V?$Row@N@arma@@Vop_cumsum_default@2@@arma@@@op_rel_gt_pre@arma@@SAXAEAV?$Mat@I@1@AEBV?$mtOp@IV?$Op@V?$Row@N@arma@@Vop_cumsum_default@2@@arma@@Vop_rel_gt_pre@2@@1@@Z 000000018001c3ec     GibbsSampler.obj
 0004:000013f8       $pdata$??0?$Proxy@V?$Op@V?$Row@N@arma@@Vop_cumsum_default@2@@arma@@@arma@@QEAA@AEBV?$Op@V?$Row@N@arma@@Vop_cumsum_default@2@@1@@Z 000000018001c3f8     GibbsSampler.obj
 0004:00001404       $pdata$??$arma_stop_bad_alloc@$$BY0BN@D@arma@@YAXAEAY0BN@$$CBD@Z 000000018001c404     GibbsSampler.obj
 0004:00001410       $pdata$??$?0V?$Row@N@arma@@Vop_cumsum_default@1@@?$Mat@N@arma@@QEAA@AEBV?$Op@V?$Row@N@arma@@Vop_cumsum_default@2@@1@@Z 000000018001c410     GibbsSampler.obj
 0004:0000141c       $pdata$??$apply@V?$Row@N@arma@@@op_cumsum_default@arma@@SAXAEAV?$Mat@N@1@AEBV?$Op@V?$Row@N@arma@@Vop_cumsum_default@2@@1@@Z 000000018001c41c     GibbsSampler.obj
 0004:00001428       $pdata$??$apply_noalias@N@op_cumsum@arma@@SAXAEAV?$Mat@N@1@AEBV21@I@Z 000000018001c428     GibbsSampler.obj
 0004:00001434       $pdata$0$??$apply_noalias@N@op_cumsum@arma@@SAXAEAV?$Mat@N@1@AEBV21@I@Z 000000018001c434     GibbsSampler.obj
 0004:00001440       $pdata$1$??$apply_noalias@N@op_cumsum@arma@@SAXAEAV?$Mat@N@1@AEBV21@I@Z 000000018001c440     GibbsSampler.obj
 0004:0000144c       $pdata$2$??$apply_noalias@N@op_cumsum@arma@@SAXAEAV?$Mat@N@1@AEBV21@I@Z 000000018001c44c     GibbsSampler.obj
 0004:00001458       $pdata$3$??$apply_noalias@N@op_cumsum@arma@@SAXAEAV?$Mat@N@1@AEBV21@I@Z 000000018001c458     GibbsSampler.obj
 0004:00001464       $pdata$memcpy_s            000000018001c464     GibbsSampler.obj
 0004:00001470       $pdata$?armaGetPr@@YA?AV?$Mat@N@arma@@PEBUmxArray_tag@@_N1@Z 000000018001c470     nCRP-Gibbs-Sampler.obj
 0004:0000147c       $pdata$1$?armaGetPr@@YA?AV?$Mat@N@arma@@PEBUmxArray_tag@@_N1@Z 000000018001c47c     nCRP-Gibbs-Sampler.obj
 0004:00001488       $pdata$2$?armaGetPr@@YA?AV?$Mat@N@arma@@PEBUmxArray_tag@@_N1@Z 000000018001c488     nCRP-Gibbs-Sampler.obj
 0004:00001494       $pdata$?armaSetPr@@YAXPEAUmxArray_tag@@AEBV?$Mat@N@arma@@@Z 000000018001c494     nCRP-Gibbs-Sampler.obj
 0004:000014a0       $pdata$?armaSetCubePr@@YAXPEAUmxArray_tag@@AEBV?$Cube@N@arma@@@Z 000000018001c4a0     nCRP-Gibbs-Sampler.obj
 0004:000014ac       $pdata$?armaCreateMxMatrix@@YAPEAUmxArray_tag@@_K0W4mxClassID@@W4mxComplexity@@@Z 000000018001c4ac     nCRP-Gibbs-Sampler.obj
 0004:000014b8       $pdata$?armaCreateMxMatrix@@YAPEAUmxArray_tag@@_K00W4mxClassID@@W4mxComplexity@@@Z 000000018001c4b8     nCRP-Gibbs-Sampler.obj
 0004:000014c4       $pdata$?createCell@@YAPEAUmxArray_tag@@V?$field@V?$Row@N@arma@@@arma@@@Z 000000018001c4c4     nCRP-Gibbs-Sampler.obj
 0004:000014d0       $pdata$?createCell@@YAPEAUmxArray_tag@@V?$field@V?$field@V?$Row@N@arma@@@arma@@@arma@@@Z 000000018001c4d0     nCRP-Gibbs-Sampler.obj
 0004:000014dc       $pdata$?createMuCell@@YAPEAUmxArray_tag@@V?$field@V?$field@VGaussian@@@arma@@@arma@@@Z 000000018001c4dc     nCRP-Gibbs-Sampler.obj
 0004:000014e8       $pdata$?createSigmaCell@@YAPEAUmxArray_tag@@V?$field@V?$field@VGaussian@@@arma@@@arma@@@Z 000000018001c4e8     nCRP-Gibbs-Sampler.obj
 0004:000014f4       $pdata$mexFunction         000000018001c4f4     nCRP-Gibbs-Sampler.obj
 0004:00001500       $pdata$??0?$Row@N@arma@@QEAA@I@Z 000000018001c500     nCRP-Gibbs-Sampler.obj
 0004:0000150c       $pdata$??1?$Cube@N@arma@@QEAA@XZ 000000018001c50c     nCRP-Gibbs-Sampler.obj
 0004:00001518       $pdata$?slice@?$Cube@N@arma@@QEAAAEAV?$Mat@N@2@I@Z 000000018001c518     nCRP-Gibbs-Sampler.obj
 0004:00001524       $pdata$??0?$field@VGaussian@@@arma@@QEAA@AEBV01@@Z 000000018001c524     nCRP-Gibbs-Sampler.obj
 0004:00001530       $pdata$??0?$field@V?$field@VGaussian@@@arma@@@arma@@QEAA@AEBV01@@Z 000000018001c530     nCRP-Gibbs-Sampler.obj
 0004:0000153c       $pdata$??0?$field@V?$Mat@N@arma@@@arma@@QEAA@II@Z 000000018001c53c     nCRP-Gibbs-Sampler.obj
 0004:00001548       $pdata$??0?$field@V?$Mat@N@arma@@@arma@@QEAA@AEBV01@@Z 000000018001c548     nCRP-Gibbs-Sampler.obj
 0004:00001554       $pdata$??0?$field@V?$Row@N@arma@@@arma@@QEAA@AEBV01@@Z 000000018001c554     nCRP-Gibbs-Sampler.obj
 0004:00001560       $pdata$??0?$field@V?$field@V?$Row@N@arma@@@arma@@@arma@@QEAA@AEBV01@@Z 000000018001c560     nCRP-Gibbs-Sampler.obj
 0004:0000156c       $pdata$??$?0V?$Mat@N@arma@@@?$Row@N@arma@@QEAA@AEBU?$Base@NV?$Mat@N@arma@@@1@@Z 000000018001c56c     nCRP-Gibbs-Sampler.obj
 0004:00001578       $pdata$??$?0Ufill_zeros@fill@arma@@@?$Mat@N@arma@@QEAA@IIAEBU?$fill_class@Ufill_zeros@fill@arma@@@fill@1@@Z 000000018001c578     nCRP-Gibbs-Sampler.obj
 0004:00001584       $pdata$??$?0Ufill_zeros@fill@arma@@@?$Cube@N@arma@@QEAA@IIIAEBU?$fill_class@Ufill_zeros@fill@arma@@@fill@1@@Z 000000018001c584     nCRP-Gibbs-Sampler.obj
 0004:00001590       $pdata$?zeros@?$Cube@N@arma@@QEAAAEBV12@XZ 000000018001c590     nCRP-Gibbs-Sampler.obj
 0004:0000159c       $pdata$?init_cold@?$Cube@N@arma@@IEAAXXZ 000000018001c59c     nCRP-Gibbs-Sampler.obj
 0004:000015a8       $pdata$?delete_mat@?$Cube@N@arma@@IEAAXXZ 000000018001c5a8     nCRP-Gibbs-Sampler.obj
 0004:000015b4       $pdata$0$?delete_mat@?$Cube@N@arma@@IEAAXXZ 000000018001c5b4     nCRP-Gibbs-Sampler.obj
 0004:000015c0       $pdata$1$?delete_mat@?$Cube@N@arma@@IEAAXXZ 000000018001c5c0     nCRP-Gibbs-Sampler.obj
 0004:000015cc       $pdata$?create_mat@?$Cube@N@arma@@IEAAXXZ 000000018001c5cc     nCRP-Gibbs-Sampler.obj
 0004:000015d8       $pdata$0$?create_mat@?$Cube@N@arma@@IEAAXXZ 000000018001c5d8     nCRP-Gibbs-Sampler.obj
 0004:000015e4       $pdata$1$?create_mat@?$Cube@N@arma@@IEAAXXZ 000000018001c5e4     nCRP-Gibbs-Sampler.obj
 0004:000015f0       $pdata$??$arma_check_bad_alloc@$$BY0CC@D@arma@@YAX_NAEAY0CC@$$CBD@Z 000000018001c5f0     nCRP-Gibbs-Sampler.obj
 0004:000015fc       $pdata$??$inplace_op@Vop_internal_equ@arma@@V?$Mat@N@2@@?$subview@N@arma@@QEAAXAEBU?$Base@NV?$Mat@N@arma@@@1@PEBD@Z 000000018001c5fc     nCRP-Gibbs-Sampler.obj
 0004:00001608       $pdata$0$??$inplace_op@Vop_internal_equ@arma@@V?$Mat@N@2@@?$subview@N@arma@@QEAAXAEBU?$Base@NV?$Mat@N@arma@@@1@PEBD@Z 000000018001c608     nCRP-Gibbs-Sampler.obj
 0004:00001614       $pdata$1$??$inplace_op@Vop_internal_equ@arma@@V?$Mat@N@2@@?$subview@N@arma@@QEAAXAEBU?$Base@NV?$Mat@N@arma@@@1@PEBD@Z 000000018001c614     nCRP-Gibbs-Sampler.obj
 0004:00001620       $pdata$2$??$inplace_op@Vop_internal_equ@arma@@V?$Mat@N@2@@?$subview@N@arma@@QEAAXAEBU?$Base@NV?$Mat@N@arma@@@1@PEBD@Z 000000018001c620     nCRP-Gibbs-Sampler.obj
 0004:0000162c       $pdata$3$??$inplace_op@Vop_internal_equ@arma@@V?$Mat@N@2@@?$subview@N@arma@@QEAAXAEBU?$Base@NV?$Mat@N@arma@@@1@PEBD@Z 000000018001c62c     nCRP-Gibbs-Sampler.obj
 0004:00001638       $pdata$??0?$unwrap_check@V?$Mat@N@arma@@@arma@@QEAA@AEBV?$Mat@N@1@_N@Z 000000018001c638     nCRP-Gibbs-Sampler.obj
 0004:00001644       $pdata$??$arma_stop_bad_alloc@$$BY0CC@D@arma@@YAXAEAY0CC@$$CBD@Z 000000018001c644     nCRP-Gibbs-Sampler.obj
 0004:0000165c       $pdata$??2@YAPEAX_K@Z      000000018001c65c     MSVCRT:new_scalar.obj
 0004:00001668       $pdata$??_Gtype_info@@UEAAPEAXI@Z 000000018001c668     MSVCRT:std_type_info_static.obj
 0004:00001674       $pdata$?__scrt_initialize_thread_safe_statics@@YAHXZ 000000018001c674     MSVCRT:thread_safe_statics.obj
 0004:00001680       $pdata$?__scrt_uninitialize_thread_safe_statics@@YAXXZ 000000018001c680     MSVCRT:thread_safe_statics.obj
 0004:0000168c       $pdata$_Init_thread_footer 000000018001c68c     MSVCRT:thread_safe_statics.obj
 0004:00001698       $pdata$_Init_thread_header 000000018001c698     MSVCRT:thread_safe_statics.obj
 0004:000016a4       $pdata$_Init_thread_notify 000000018001c6a4     MSVCRT:thread_safe_statics.obj
 0004:000016b0       $pdata$_Init_thread_wait   000000018001c6b0     MSVCRT:thread_safe_statics.obj
 0004:000016bc       $pdata$?dllmain_crt_dispatch@@YAHQEAUHINSTANCE__@@KQEAX@Z 000000018001c6bc     MSVCRT:dll_dllmain.obj
 0004:000016c8       $pdata$?dllmain_crt_process_attach@@YAHQEAUHINSTANCE__@@QEAX@Z 000000018001c6c8     MSVCRT:dll_dllmain.obj
 0004:000016d4       $pdata$?dllmain_crt_process_detach@@YAH_N@Z 000000018001c6d4     MSVCRT:dll_dllmain.obj
 0004:000016e0       $pdata$?dllmain_dispatch@@YAHQEAUHINSTANCE__@@KQEAX@Z 000000018001c6e0     MSVCRT:dll_dllmain.obj
 0004:000016ec       $pdata$?dllmain_raw@@YAHQEAUHINSTANCE__@@KQEAX@Z 000000018001c6ec     MSVCRT:dll_dllmain.obj
 0004:000016f8       $pdata$_DllMainCRTStartup  000000018001c6f8     MSVCRT:dll_dllmain.obj
 0004:00001704       $pdata$__raise_securityfailure 000000018001c704     MSVCRT:gs_report.obj
 0004:00001710       $pdata$__report_gsfailure  000000018001c710     MSVCRT:gs_report.obj
 0004:0000171c       $pdata$capture_previous_context 000000018001c71c     MSVCRT:gs_report.obj
 0004:00001728       $pdata$??0bad_array_new_length@std@@QEAA@AEBV01@@Z 000000018001c728     MSVCRT:throw_bad_alloc.obj
 0004:00001734       $pdata$??_Gbad_array_new_length@std@@UEAAPEAXI@Z 000000018001c734     MSVCRT:throw_bad_alloc.obj
 0004:00001740       $pdata$?__scrt_throw_std_bad_alloc@@YAXXZ 000000018001c740     MSVCRT:throw_bad_alloc.obj
 0004:0000174c       $pdata$?__scrt_throw_std_bad_array_new_length@@YAXXZ 000000018001c74c     MSVCRT:throw_bad_alloc.obj
 0004:00001758       $pdata$__scrt_acquire_startup_lock 000000018001c758     MSVCRT:utility.obj
 0004:00001764       $pdata$__scrt_dllmain_after_initialize_c 000000018001c764     MSVCRT:utility.obj
 0004:00001770       $pdata$__scrt_dllmain_before_initialize_c 000000018001c770     MSVCRT:utility.obj
 0004:0000177c       $pdata$__scrt_dllmain_crt_thread_attach 000000018001c77c     MSVCRT:utility.obj
 0004:00001788       $pdata$__scrt_dllmain_crt_thread_detach 000000018001c788     MSVCRT:utility.obj
 0004:00001794       $pdata$__scrt_dllmain_exception_filter 000000018001c794     MSVCRT:utility.obj
 0004:000017a0       $pdata$__scrt_dllmain_uninitialize_c 000000018001c7a0     MSVCRT:utility.obj
 0004:000017ac       $pdata$__scrt_dllmain_uninitialize_critical 000000018001c7ac     MSVCRT:utility.obj
 0004:000017b8       $pdata$__scrt_initialize_crt 000000018001c7b8     MSVCRT:utility.obj
 0004:000017c4       $pdata$__scrt_initialize_onexit_tables 000000018001c7c4     MSVCRT:utility.obj
 0004:000017d0       $pdata$__scrt_is_nonwritable_in_current_image 000000018001c7d0     MSVCRT:utility.obj
 0004:000017dc       $pdata$__scrt_release_startup_lock 000000018001c7dc     MSVCRT:utility.obj
 0004:000017e8       $pdata$__scrt_uninitialize_crt 000000018001c7e8     MSVCRT:utility.obj
 0004:000017f4       $pdata$_onexit             000000018001c7f4     MSVCRT:utility.obj
 0004:00001800       $pdata$atexit              000000018001c800     MSVCRT:utility.obj
 0004:0000180c       $pdata$__scrt_fastfail     000000018001c80c     MSVCRT:utility_desktop.obj
 0004:00001818       $pdata$??2@YAPEAX_KAEBUnothrow_t@std@@@Z 000000018001c818     MSVCRT:new_scalar_nothrow.obj
 0004:00001824       $pdata$__security_init_cookie 000000018001c824     MSVCRT:gs_support.obj
 0004:00001830       $pdata$__scrt_initialize_default_local_stdio_options 000000018001c830     MSVCRT:default_local_stdio_options.obj
 0004:0000183c       $pdata$_RTC_Initialize     000000018001c83c     MSVCRT:_initsect_.obj
 0004:00001848       $pdata$_RTC_Terminate      000000018001c848     MSVCRT:_initsect_.obj
 0004:00001854       $pdata$__isa_available_init 000000018001c854     MSVCRT:_cpu_disp_.obj
 0004:00001860       $pdata$??_G_Fac_node@std@@QEAAPEAXI@Z 000000018001c860     msvcprt:locale0_implib.obj
 0004:0000186c       $pdata$?_Facet_Register@std@@YAXPEAV_Facet_base@1@@Z 000000018001c86c     msvcprt:locale0_implib.obj
 0004:00001878       $pdata$__GSHandlerCheck    000000018001c878     MSVCRT:_gshandler_.obj
 0004:00001884       $pdata$__GSHandlerCheckCommon 000000018001c884     MSVCRT:_gshandler_.obj
 0004:00001890       $pdata$__GSHandlerCheck_EH 000000018001c890     MSVCRT:gshandlereh.obj
 0004:000018a8       $pdata$?dtor$0@?0???0?$basic_ostringstream@DU?$char_traits@D@std@@V?$allocator@D@2@@std@@QEAA@H@Z@4HA 000000018001c8a8     Gaussian.obj
 0004:000018b4       $pdata$?catch$0@?0??_Copy@?$basic_string@DU?$char_traits@D@std@@V?$allocator@D@2@@std@@QEAAX_K@Z@4HA 000000018001c8b4     Gaussian.obj
 0004:000018c0       $pdata$?catch$1@?0???$?6U?$char_traits@D@std@@@std@@YAAEAV?$basic_ostream@DU?$char_traits@D@std@@@0@AEAV10@PEBD@Z@4HA 000000018001c8c0     Gaussian.obj
 0004:000018cc       $pdata$?catch$1@?0???$?6U?$char_traits@D@std@@@std@@YAAEAV?$basic_ostream@DU?$char_traits@D@std@@@0@AEAV10@D@Z@4HA 000000018001c8cc     Gaussian.obj
 0004:000018d8       $pdata$?dtor$0@?0???$randi@V?$Col@N@arma@@@arma@@YA?AV?$Col@N@0@IIAEBVdistr_param@0@PEBV10@@Z@4HA 000000018001c8d8     GibbsSampler.obj
 0004:000018d8       $pdata$?dtor$0@?0???$randi@V?$Row@N@arma@@@arma@@YA?AV?$Row@N@0@IIAEBVdistr_param@0@PEBV10@@Z@4HA 000000018001c8d8     GibbsSampler.obj
 0004:000018d8       $pdata$?dtor$0@?0???$regspace@V?$Col@N@arma@@@arma@@YA?AV?$Col@N@0@NN@Z@4HA 000000018001c8d8     Gaussian.obj
 0004:000018e4       $pdata$?catch$1@?0??set_seed_random@arma_rng@arma@@SAXXZ@4HA 000000018001c8e4     GibbsSampler.obj
 0004:000018f0       $pdata$?dtor$0@?0???0?$basic_ifstream@DU?$char_traits@D@std@@@std@@QEAA@PEBDHH@Z@4HA 000000018001c8f0     GibbsSampler.obj
 0004:000018fc       $pdata$?dtor$1@?0??create_objects@?$field@VGaussian@@@arma@@AEAAXXZ@4HA 000000018001c8fc     GibbsSampler.obj
 0004:00001908       $pdata$?dtor$1@?0??create_objects@?$field@V?$field@VGaussian@@@arma@@@arma@@AEAAXXZ@4HA 000000018001c908     GibbsSampler.obj
 0004:00001908       $pdata$?dtor$1@?0??create_objects@?$field@V?$field@V?$Row@N@arma@@@arma@@@arma@@AEAAXXZ@4HA 000000018001c908     GibbsSampler.obj
 0004:00001914       $pdata$?dtor$1@?0??create_objects@?$field@V?$Row@N@arma@@@arma@@AEAAXXZ@4HA 000000018001c914     GibbsSampler.obj
 0004:00001914       $pdata$?dtor$1@?0??create_objects@?$field@V?$Mat@N@arma@@@arma@@AEAAXXZ@4HA 000000018001c914     GibbsSampler.obj
 0004:00001920       $pdata$?dtor$0@?0??slice@?$Cube@N@arma@@QEAAAEAV?$Mat@N@2@I@Z@4HA 000000018001c920     nCRP-Gibbs-Sampler.obj
 0004:0000192c       $pdata$?dtor$0@?0???0?$unwrap_check@V?$Mat@N@arma@@@arma@@QEAA@AEBV?$Mat@N@1@_N@Z@4HA 000000018001c92c     nCRP-Gibbs-Sampler.obj
 0004:00001938       $pdata$?fin$0@?0??dllmain_crt_process_attach@@YAHQEAUHINSTANCE__@@QEAX@Z@4HA 000000018001c938     MSVCRT:dll_dllmain.obj
 0004:00001944       $pdata$?fin$0@?0??dllmain_crt_process_detach@@YAH_N@Z@4HA 000000018001c944     MSVCRT:dll_dllmain.obj
 0004:00001950       $pdata$?filt$0@?0??dllmain_dispatch@@YAHQEAUHINSTANCE__@@KQEAX@Z@4HA 000000018001c950     MSVCRT:dll_dllmain.obj
 0004:0000195c       $pdata$__scrt_is_nonwritable_in_current_image$filt$0 000000018001c95c     MSVCRT:utility.obj
 0004:00001968       $pdata$?catch$0@?0???2@YAPEAX_KAEBUnothrow_t@std@@@Z@4HA 000000018001c968     MSVCRT:new_scalar_nothrow.obj
 0004:00001974       $pdata$??__F_Fac_tidy_reg@std@@YAXXZ 000000018001c974     msvcprt:locale0_implib.obj
